(dp0
S'popt20'
p1
(dp2
S'KNN'
p3
(lp4
(lp5
F0.221
aF0.421
aF0.221
aF0.421
aF0.421
aF0.307
aF0.421
aF0.3
aF0.221
aF0.2
aF0.3
aF0.421
aF0.421
aF0.421
aF0.421
aF0.421
aF0.421
aF0.3
aF0.2
aF0.421
aa(lp6
(lp7
I2
aS'uniform'
p8
aa(lp9
I8
ag8
aa(lp10
I2
ag8
aa(lp11
I8
ag8
aa(lp12
I10
ag8
aa(lp13
I4
ag8
aa(lp14
I8
ag8
aa(lp15
I6
ag8
aa(lp16
I2
ag8
aa(lp17
I9
aS'distance'
p18
aa(lp19
I6
ag8
aa(lp20
I8
ag8
aa(lp21
I8
ag8
aa(lp22
I8
ag8
aa(lp23
I10
ag8
aa(lp24
I8
ag8
aa(lp25
I10
ag8
aa(lp26
I6
ag8
aa(lp27
I9
ag18
aa(lp28
I10
ag8
aaa(lp29
I8
aI15
aI13
aI16
aI8
aI12
aI10
aI8
aI10
aI12
aI9
aI10
aI13
aI16
aI14
aI8
aI8
aI10
aI13
aI8
aa(lp30
F0.4087340831756592
aF0.5576651096343994
aF0.5173931121826172
aF0.5904409885406494
aF0.39392709732055664
aF0.4942760467529297
aF0.4457881450653076
aF0.4145939350128174
aF0.4507029056549072
aF0.49331212043762207
aF0.4198939800262451
aF0.4464111328125
aF0.528170108795166
aF0.579369068145752
aF0.5308048725128174
aF0.4050781726837158
aF0.3954939842224121
aF0.4493858814239502
aF0.5114748477935791
aF0.4021148681640625
aasS'DTC'
p31
(lp32
(lp33
F0.536
aF0.536
aF0.271
aF0.143
aF0.536
aF0.536
aF0.293
aF0.536
aF0.536
aF0.457
aF0.536
aF0.143
aF0.271
aF0.136
aF0.536
aF0.207
aF0.536
aF0.536
aF0.536
aF0.536
aa(lp34
(lp35
S'gini'
p36
aF0.8108852745584855
aI9
aI10
aI1
aa(lp37
S'entropy'
p38
aF0.2901757392381842
aI30
aI4
aI1
aa(lp39
g36
aF0.49862006914718193
aI15
aI17
aI2
aa(lp40
g38
aF0.593054208726867
aI4
aI12
aI18
aa(lp41
g38
aF0.35881824469542456
aI11
aI8
aI1
aa(lp42
g36
aF0.9559226241665784
aI13
aI3
aI1
aa(lp43
g36
aF0.48260789316554953
aI6
aI8
aI4
aa(lp44
g36
aF0.12120231750058853
aI16
aI16
aI3
aa(lp45
g36
aF0.308978379212387
aI6
aI10
aI1
aa(lp46
g38
aF0.3990384747347865
aI19
aI13
aI2
aa(lp47
g38
aF0.3298101979435982
aI4
aI21
aI1
aa(lp48
g36
aF0.8769164530105193
aI13
aI6
aI4
aa(lp49
g36
aF0.6194496353753735
aI9
aI18
aI2
aa(lp50
g38
aF0.8913822361561285
aI7
aI20
aI6
aa(lp51
g38
aF0.2464110984365953
aI28
aI19
aI1
aa(lp52
g38
aF0.6406389405922989
aI14
aI4
aI3
aa(lp53
g38
aF0.13847346455449264
aI14
aI17
aI3
aa(lp54
g36
aF0.45467910770139397
aI8
aI4
aI1
aa(lp55
g36
aF0.964265948474606
aI27
aI11
aI1
aa(lp56
g38
aF0.433819268287852
aI27
aI5
aI1
aaa(lp57
I9
aI17
aI16
aI13
aI10
aI14
aI13
aI8
aI10
aI13
aI10
aI17
aI12
aI15
aI7
aI10
aI10
aI10
aI10
aI10
aa(lp58
F0.36178112030029297
aF0.5425529479980469
aF0.4702441692352295
aF0.4471611976623535
aF0.3627610206604004
aF0.4808769226074219
aF0.465878963470459
aF0.33330202102661133
aF0.372222900390625
aF0.4453439712524414
aF0.36624622344970703
aF0.5322940349578857
aF0.4478268623352051
aF0.4805479049682617
aF0.32059597969055176
aF0.3868257999420166
aF0.36862897872924805
aF0.37480711936950684
aF0.3744680881500244
aF0.3666801452636719
aasS'RF'
p59
(lp60
(lp61
F0.429
aF0.5
aF0.371
aF0.464
aF0.2
aF0.207
aF0.5
aF0.193
aF0.529
aF0.421
aF0.429
aF0.321
aF0.15
aF0.343
aF0.35
aF0.471
aF0.271
aF0.286
aF0.443
aF0.45
aa(lp62
(lp63
g38
aF0.28447447047389923
aI7
aI17
aI13
aa(lp64
g36
aF0.1058103186859916
aI5
aI17
aI53
aa(lp65
g36
aF0.4391807387733897
aI23
aI21
aI35
aa(lp66
g38
aF0.28039670257400573
aI3
aI21
aI77
aa(lp67
g36
aF0.524843629226673
aI8
aI6
aI31
aa(lp68
g38
aF0.7404352798959201
aI18
aI12
aI34
aa(lp69
g38
aF0.1994871494204712
aI8
aI21
aI60
aa(lp70
g36
aF0.323490950209425
aI12
aI3
aI15
aa(lp71
g38
aF0.17337819305392743
aI18
aI21
aI13
aa(lp72
g36
aF0.26187959958038753
aI12
aI16
aI95
aa(lp73
g36
aF0.7057472173467438
aI10
aI21
aI37
aa(lp74
g36
aF0.5208255803605283
aI26
aI18
aI34
aa(lp75
g38
aF0.8630149723872516
aI7
aI5
aI96
aa(lp76
g36
aF0.30952363397179916
aI8
aI17
aI100
aa(lp77
g36
aF0.5398166666345299
aI27
aI19
aI46
aa(lp78
g36
aF0.3403096589280547
aI18
aI21
aI31
aa(lp79
g36
aF0.3215119949120562
aI6
aI13
aI78
aa(lp80
g38
aF0.1757004010621509
aI25
aI7
aI84
aa(lp81
g36
aF0.37350556507842614
aI30
aI21
aI82
aa(lp82
g38
aF0.1894572439824039
aI20
aI16
aI61
aaa(lp83
I13
aI9
aI16
aI10
aI14
aI12
aI10
aI9
aI8
aI10
aI15
aI8
aI16
aI10
aI9
aI9
aI10
aI16
aI10
aI9
aa(lp84
F24.829834938049316
aF19.645524978637695
aF27.692131996154785
aF21.629297971725464
aF25.764326095581055
aF23.406780004501343
aF20.89619493484497
aF20.203689098358154
aF19.865535974502563
aF22.011953115463257
aF27.311771154403687
aF20.539649963378906
aF28.390489101409912
aF22.120376110076904
aF20.26407504081726
aF21.00518798828125
aF21.992083072662354
aF28.24486207962036
aF22.3302059173584
aF20.859251976013184
aasS'SVM'
p85
(lp86
(lp87
F0.5
aF0.5
aF0.5
aF0.5
aF0.486
aF0.5
aF0.5
aF0.5
aF0.5
aF0.479
aF0.5
aF0.5
aF0.486
aF0.486
aF0.486
aF0.5
aF0.486
aF0.486
aF0.479
aF0.5
aa(lp88
(lp89
I5
aS'rbf'
p90
aF0.43675050843551
aF0.7188412175931581
aa(lp91
I49
ag90
aF0.8081714317827653
aF0.8412986346787958
aa(lp92
I51
ag90
aF0.7695775753521472
aF0.42447635341599954
aa(lp93
I98
ag90
aF0.12675978507915173
aF0.6622336633242448
aa(lp94
I40
ag90
aF0.9668971905942374
aF0.14085545280314546
aa(lp95
I15
ag90
aF0.31732649379834255
aF0.7578926066234124
aa(lp96
I23
ag90
aF0.7259264431105846
aF0.5749842428180232
aa(lp97
I17
ag90
aF0.553926285776733
aF0.7725920922941963
aa(lp98
I94
ag90
aF0.34726634110362214
aF0.3298440650352036
aa(lp99
I56
ag90
aF0.3246570945688451
aF0.1031815441796527
aa(lp100
I6
ag90
aF0.26779291717144443
aF0.6359980959699918
aa(lp101
I29
ag90
aF0.7241108419937847
aF0.8843156927810935
aa(lp102
I6
ag90
aF0.8267651960133396
aF0.1262739141684596
aa(lp103
I59
ag90
aF0.9658246041333464
aF0.13604084228149196
aa(lp104
I56
ag90
aF0.26556206838501484
aF0.14537461482512531
aa(lp105
I76
ag90
aF0.6699424293622563
aF0.5135556311253204
aa(lp106
I23
ag90
aF0.15638931635974052
aF0.1317248390252469
aa(lp107
I76
ag90
aF0.5044213078984963
aF0.169698858586327
aa(lp108
I61
ag90
aF0.8871956143141364
aF0.12072198161491282
aa(lp109
I72
ag90
aF0.2140520039770022
aF0.549455557101162
aaa(lp110
I17
aI7
aI13
aI14
aI9
aI10
aI17
aI13
aI13
aI8
aI12
aI10
aI10
aI13
aI12
aI10
aI15
aI12
aI9
aI10
aa(lp111
F1.492189884185791
aF0.9236569404602051
aF0.8361899852752686
aF1.2317168712615967
aF0.9809679985046387
aF0.8875510692596436
aF1.127427101135254
aF1.197416067123413
aF1.1177599430084229
aF1.070080041885376
aF1.0448310375213623
aF1.1755430698394775
aF1.2643499374389648
aF1.1457901000976562
aF1.3232300281524658
aF0.9860870838165283
aF1.277867078781128
aF1.3913068771362305
aF0.8492348194122314
aF1.1474370956420898
aass.