(dp0
S'f1'
p1
(dp2
S'KNN'
p3
(lp4
(lp5
cnumpy.core.multiarray
scalar
p6
(cnumpy
dtype
p7
(S'f8'
p8
I0
I1
tp9
Rp10
(I3
S'<'
p11
NNNI-1
I-1
I0
tp12
bS'R\xb8\x1e\x85\xebQ\xd8?'
p13
tp14
Rp15
ag6
(g10
S'R\xb8\x1e\x85\xebQ\xd8?'
p16
tp17
Rp18
ag6
(g10
S'R\xb8\x1e\x85\xebQ\xd8?'
p19
tp20
Rp21
ag6
(g10
S'R\xb8\x1e\x85\xebQ\xd8?'
p22
tp23
Rp24
ag6
(g10
S'R\xb8\x1e\x85\xebQ\xd8?'
p25
tp26
Rp27
ag6
(g10
S'R\xb8\x1e\x85\xebQ\xd8?'
p28
tp29
Rp30
ag6
(g10
S'R\xb8\x1e\x85\xebQ\xd8?'
p31
tp32
Rp33
ag6
(g10
S'R\xb8\x1e\x85\xebQ\xd8?'
p34
tp35
Rp36
ag6
(g10
S'R\xb8\x1e\x85\xebQ\xd8?'
p37
tp38
Rp39
ag6
(g10
S'333333\xd3?'
p40
tp41
Rp42
ag6
(g10
S'ffffff\xd6?'
p43
tp44
Rp45
ag6
(g10
S'R\xb8\x1e\x85\xebQ\xd8?'
p46
tp47
Rp48
ag6
(g10
S'R\xb8\x1e\x85\xebQ\xd8?'
p49
tp50
Rp51
ag6
(g10
S'\n\xd7\xa3p=\n\xd7?'
p52
tp53
Rp54
ag6
(g10
S'R\xb8\x1e\x85\xebQ\xd8?'
p55
tp56
Rp57
ag6
(g10
S'\n\xd7\xa3p=\n\xd7?'
p58
tp59
Rp60
ag6
(g10
S'R\xb8\x1e\x85\xebQ\xd8?'
p61
tp62
Rp63
ag6
(g10
S'\n\xd7\xa3p=\n\xd7?'
p64
tp65
Rp66
ag6
(g10
S'H\xe1z\x14\xaeG\xd1?'
p67
tp68
Rp69
ag6
(g10
S'\xd7\xa3p=\n\xd7\xd3?'
p70
tp71
Rp72
ag6
(g10
S'R\xb8\x1e\x85\xebQ\xd8?'
p73
tp74
Rp75
ag6
(g10
S'R\xb8\x1e\x85\xebQ\xd8?'
p76
tp77
Rp78
ag6
(g10
S'R\xb8\x1e\x85\xebQ\xd8?'
p79
tp80
Rp81
ag6
(g10
S'\n\xd7\xa3p=\n\xd7?'
p82
tp83
Rp84
ag6
(g10
S'R\xb8\x1e\x85\xebQ\xd8?'
p85
tp86
Rp87
ag6
(g10
S'\xd7\xa3p=\n\xd7\xd3?'
p88
tp89
Rp90
ag6
(g10
S'\xd7\xa3p=\n\xd7\xd3?'
p91
tp92
Rp93
ag6
(g10
S'R\xb8\x1e\x85\xebQ\xd8?'
p94
tp95
Rp96
ag6
(g10
S'R\xb8\x1e\x85\xebQ\xd8?'
p97
tp98
Rp99
ag6
(g10
S'333333\xd3?'
p100
tp101
Rp102
ag6
(g10
S'333333\xd3?'
p103
tp104
Rp105
ag6
(g10
S'ffffff\xd6?'
p106
tp107
Rp108
ag6
(g10
S'\xc3\xf5(\\\x8f\xc2\xd5?'
p109
tp110
Rp111
ag6
(g10
S'R\xb8\x1e\x85\xebQ\xd8?'
p112
tp113
Rp114
ag6
(g10
S'\xd7\xa3p=\n\xd7\xd3?'
p115
tp116
Rp117
ag6
(g10
S'R\xb8\x1e\x85\xebQ\xd8?'
p118
tp119
Rp120
ag6
(g10
S'\n\xd7\xa3p=\n\xd7?'
p121
tp122
Rp123
ag6
(g10
S'H\xe1z\x14\xaeG\xd1?'
p124
tp125
Rp126
ag6
(g10
S'R\xb8\x1e\x85\xebQ\xd8?'
p127
tp128
Rp129
ag6
(g10
S'ffffff\xd6?'
p130
tp131
Rp132
ag6
(g10
S'R\xb8\x1e\x85\xebQ\xd8?'
p133
tp134
Rp135
ag6
(g10
S'R\xb8\x1e\x85\xebQ\xd8?'
p136
tp137
Rp138
ag6
(g10
S'R\xb8\x1e\x85\xebQ\xd8?'
p139
tp140
Rp141
ag6
(g10
S'\n\xd7\xa3p=\n\xd7?'
p142
tp143
Rp144
ag6
(g10
S'H\xe1z\x14\xaeG\xd1?'
p145
tp146
Rp147
ag6
(g10
S'\x9a\x99\x99\x99\x99\x99\xd9?'
p148
tp149
Rp150
ag6
(g10
S'333333\xd3?'
p151
tp152
Rp153
ag6
(g10
S'R\xb8\x1e\x85\xebQ\xd8?'
p154
tp155
Rp156
ag6
(g10
S'333333\xd3?'
p157
tp158
Rp159
ag6
(g10
S'R\xb8\x1e\x85\xebQ\xd8?'
p160
tp161
Rp162
ag6
(g10
S'R\xb8\x1e\x85\xebQ\xd8?'
p163
tp164
Rp165
ag6
(g10
S'333333\xd3?'
p166
tp167
Rp168
ag6
(g10
S'R\xb8\x1e\x85\xebQ\xd8?'
p169
tp170
Rp171
ag6
(g10
S'\xd7\xa3p=\n\xd7\xd3?'
p172
tp173
Rp174
ag6
(g10
S'=\n\xd7\xa3p=\xda?'
p175
tp176
Rp177
ag6
(g10
S'R\xb8\x1e\x85\xebQ\xd8?'
p178
tp179
Rp180
ag6
(g10
S'H\xe1z\x14\xaeG\xd1?'
p181
tp182
Rp183
ag6
(g10
S'R\xb8\x1e\x85\xebQ\xd8?'
p184
tp185
Rp186
ag6
(g10
S'R\xb8\x1e\x85\xebQ\xd8?'
p187
tp188
Rp189
ag6
(g10
S'R\xb8\x1e\x85\xebQ\xd8?'
p190
tp191
Rp192
aa(lp193
(lp194
I9
aS'uniform'
p195
aa(lp196
I9
ag195
aa(lp197
I7
ag195
aa(lp198
I7
ag195
aa(lp199
I9
ag195
aa(lp200
I9
ag195
aa(lp201
I7
ag195
aa(lp202
I9
ag195
aa(lp203
I9
ag195
aa(lp204
I4
aS'distance'
p205
aa(lp206
I8
ag205
aa(lp207
I9
ag195
aa(lp208
I9
ag195
aa(lp209
I10
ag205
aa(lp210
I9
ag195
aa(lp211
I10
ag205
aa(lp212
I9
ag195
aa(lp213
I10
ag205
aa(lp214
I2
ag205
aa(lp215
I7
ag205
aa(lp216
I9
ag195
aa(lp217
I9
ag195
aa(lp218
I9
ag195
aa(lp219
I10
ag205
aa(lp220
I7
ag195
aa(lp221
I9
ag205
aa(lp222
I7
ag205
aa(lp223
I9
ag195
aa(lp224
I9
ag195
aa(lp225
I6
ag205
aa(lp226
I6
ag205
aa(lp227
I8
ag205
aa(lp228
I5
ag195
aa(lp229
I9
ag195
aa(lp230
I5
ag205
aa(lp231
I9
ag195
aa(lp232
I10
ag205
aa(lp233
I2
ag205
aa(lp234
I9
ag195
aa(lp235
I8
ag205
aa(lp236
I9
ag195
aa(lp237
I9
ag195
aa(lp238
I9
ag195
aa(lp239
I10
ag205
aa(lp240
I2
ag205
aa(lp241
I10
ag195
aa(lp242
I3
ag195
aa(lp243
I9
ag195
aa(lp244
I4
ag205
aa(lp245
I9
ag195
aa(lp246
I7
ag195
aa(lp247
I6
ag205
aa(lp248
I9
ag195
aa(lp249
I9
ag205
aa(lp250
I8
ag195
aa(lp251
I9
ag195
aa(lp252
I2
ag205
aa(lp253
I9
ag195
aa(lp254
I7
ag195
aa(lp255
I9
ag195
aaaF20.496946096420288
asS'DTC'
p256
(lp257
(lp258
g6
(g10
S'\x9a\x99\x99\x99\x99\x99\xd9?'
p259
tp260
Rp261
ag6
(g10
S'\xe1z\x14\xaeG\xe1\xda?'
p262
tp263
Rp264
ag6
(g10
S'\x9a\x99\x99\x99\x99\x99\xd9?'
p265
tp266
Rp267
ag6
(g10
S'\x9a\x99\x99\x99\x99\x99\xd9?'
p268
tp269
Rp270
ag6
(g10
S'\x9a\x99\x99\x99\x99\x99\xd9?'
p271
tp272
Rp273
ag6
(g10
S'\x9a\x99\x99\x99\x99\x99\xd9?'
p274
tp275
Rp276
ag6
(g10
S'\x9a\x99\x99\x99\x99\x99\xd9?'
p277
tp278
Rp279
ag6
(g10
S'\x9a\x99\x99\x99\x99\x99\xd9?'
p280
tp281
Rp282
ag6
(g10
S'{\x14\xaeG\xe1z\xd4?'
p283
tp284
Rp285
ag6
(g10
S'\xf6(\\\x8f\xc2\xf5\xd8?'
p286
tp287
Rp288
ag6
(g10
S'\x9a\x99\x99\x99\x99\x99\xd9?'
p289
tp290
Rp291
ag6
(g10
S'\xaeG\xe1z\x14\xae\xd7?'
p292
tp293
Rp294
ag6
(g10
S'\x9a\x99\x99\x99\x99\x99\xd9?'
p295
tp296
Rp297
ag6
(g10
S'\x9a\x99\x99\x99\x99\x99\xd9?'
p298
tp299
Rp300
ag6
(g10
S'\x9a\x99\x99\x99\x99\x99\xd9?'
p301
tp302
Rp303
ag6
(g10
S'\x85\xebQ\xb8\x1e\x85\xdb?'
p304
tp305
Rp306
ag6
(g10
S'\xd7\xa3p=\n\xd7\xd3?'
p307
tp308
Rp309
ag6
(g10
S'\xaeG\xe1z\x14\xae\xd7?'
p310
tp311
Rp312
ag6
(g10
S'=\n\xd7\xa3p=\xda?'
p313
tp314
Rp315
ag6
(g10
S'\x9a\x99\x99\x99\x99\x99\xd9?'
p316
tp317
Rp318
ag6
(g10
S'\x9a\x99\x99\x99\x99\x99\xd9?'
p319
tp320
Rp321
ag6
(g10
S'\x9a\x99\x99\x99\x99\x99\xd9?'
p322
tp323
Rp324
ag6
(g10
S'\x9a\x99\x99\x99\x99\x99\xd9?'
p325
tp326
Rp327
ag6
(g10
S'\xe1z\x14\xaeG\xe1\xda?'
p328
tp329
Rp330
ag6
(g10
S'\x9a\x99\x99\x99\x99\x99\xd9?'
p331
tp332
Rp333
ag6
(g10
S'\xe1z\x14\xaeG\xe1\xda?'
p334
tp335
Rp336
ag6
(g10
S'\xd7\xa3p=\n\xd7\xd3?'
p337
tp338
Rp339
ag6
(g10
S'\x8f\xc2\xf5(\\\x8f\xd2?'
p340
tp341
Rp342
ag6
(g10
S'=\n\xd7\xa3p=\xda?'
p343
tp344
Rp345
ag6
(g10
S'\x9a\x99\x99\x99\x99\x99\xd9?'
p346
tp347
Rp348
ag6
(g10
S'\x9a\x99\x99\x99\x99\x99\xd9?'
p349
tp350
Rp351
ag6
(g10
S'\x9a\x99\x99\x99\x99\x99\xd9?'
p352
tp353
Rp354
ag6
(g10
S'\x9a\x99\x99\x99\x99\x99\xd9?'
p355
tp356
Rp357
ag6
(g10
S'\xd7\xa3p=\n\xd7\xd3?'
p358
tp359
Rp360
ag6
(g10
S'\x9a\x99\x99\x99\x99\x99\xd9?'
p361
tp362
Rp363
ag6
(g10
S'\x9a\x99\x99\x99\x99\x99\xd9?'
p364
tp365
Rp366
ag6
(g10
S'\x9a\x99\x99\x99\x99\x99\xd9?'
p367
tp368
Rp369
ag6
(g10
S'ffffff\xd6?'
p370
tp371
Rp372
ag6
(g10
S'\xb8\x1e\x85\xebQ\xb8\xde?'
p373
tp374
Rp375
ag6
(g10
S'\x9a\x99\x99\x99\x99\x99\xd9?'
p376
tp377
Rp378
ag6
(g10
S')\\\x8f\xc2\xf5(\xdc?'
p379
tp380
Rp381
ag6
(g10
S'\x9a\x99\x99\x99\x99\x99\xd9?'
p382
tp383
Rp384
ag6
(g10
S')\\\x8f\xc2\xf5(\xdc?'
p385
tp386
Rp387
ag6
(g10
S'ffffff\xd6?'
p388
tp389
Rp390
ag6
(g10
S'\x9a\x99\x99\x99\x99\x99\xd9?'
p391
tp392
Rp393
ag6
(g10
S'\x1f\x85\xebQ\xb8\x1e\xd5?'
p394
tp395
Rp396
ag6
(g10
S'\xf6(\\\x8f\xc2\xf5\xd8?'
p397
tp398
Rp399
ag6
(g10
S'\x9a\x99\x99\x99\x99\x99\xd9?'
p400
tp401
Rp402
ag6
(g10
S'\xa4p=\n\xd7\xa3\xd0?'
p403
tp404
Rp405
ag6
(g10
S'\x9a\x99\x99\x99\x99\x99\xd9?'
p406
tp407
Rp408
ag6
(g10
S'\x9a\x99\x99\x99\x99\x99\xd9?'
p409
tp410
Rp411
ag6
(g10
S'\x9a\x99\x99\x99\x99\x99\xd9?'
p412
tp413
Rp414
ag6
(g10
S'\x9a\x99\x99\x99\x99\x99\xd9?'
p415
tp416
Rp417
ag6
(g10
S'\x9a\x99\x99\x99\x99\x99\xd9?'
p418
tp419
Rp420
ag6
(g10
S'\x9a\x99\x99\x99\x99\x99\xd9?'
p421
tp422
Rp423
ag6
(g10
S'\x9a\x99\x99\x99\x99\x99\xd9?'
p424
tp425
Rp426
ag6
(g10
S'{\x14\xaeG\xe1z\xd4?'
p427
tp428
Rp429
ag6
(g10
S'\x9a\x99\x99\x99\x99\x99\xd9?'
p430
tp431
Rp432
ag6
(g10
S'\x9a\x99\x99\x99\x99\x99\xd9?'
p433
tp434
Rp435
ag6
(g10
S'\xecQ\xb8\x1e\x85\xeb\xd1?'
p436
tp437
Rp438
aa(lp439
(lp440
S'entropy'
p441
aF0.6316091882320855
aI6
aI11
aI1
aa(lp442
g441
aF0.2870140227313568
aI11
aI3
aI11
aa(lp443
S'gini'
p444
aF0.28460454155682235
aI20
aI10
aI1
aa(lp445
g444
aF0.31308264929527674
aI2
aI4
aI1
aa(lp446
g444
aF0.767003519378164
aI15
aI16
aI1
aa(lp447
g444
aF0.6606172445640071
aI6
aI10
aI1
aa(lp448
g441
aF0.6115876244589165
aI15
aI6
aI1
aa(lp449
g444
aF0.7838609601279142
aI25
aI21
aI4
aa(lp450
g441
aF0.7865801013230572
aI14
aI19
aI12
aa(lp451
g444
aF0.3908153352536524
aI13
aI17
aI18
aa(lp452
g441
aF0.8308766967436515
aI7
aI1
aI1
aa(lp453
g441
aF0.639784022428401
aI21
aI6
aI4
aa(lp454
g444
aF0.457097606743915
aI21
aI21
aI2
aa(lp455
g444
aF0.983756035310162
aI30
aI10
aI1
aa(lp456
g444
aF0.6267054036640518
aI7
aI8
aI1
aa(lp457
g444
aF0.42988748716057135
aI7
aI1
aI4
aa(lp458
g444
aF0.7563463835563647
aI7
aI19
aI9
aa(lp459
g441
aF0.3633449331455527
aI12
aI3
aI3
aa(lp460
g444
aF0.2531448946125555
aI10
aI1
aI3
aa(lp461
g441
aF0.42747138651558814
aI10
aI13
aI1
aa(lp462
g444
aF0.2799647531407675
aI17
aI20
aI1
aa(lp463
g444
aF0.9685172460572842
aI16
aI12
aI1
aa(lp464
g441
aF0.741778543399612
aI20
aI13
aI2
aa(lp465
g444
aF0.28495786745309803
aI25
aI11
aI3
aa(lp466
g444
aF0.8613859293588244
aI3
aI5
aI4
aa(lp467
g441
aF0.37321128585991015
aI16
aI14
aI2
aa(lp468
g444
aF0.9735777015019503
aI18
aI5
aI15
aa(lp469
g441
aF0.7393777491360355
aI14
aI9
aI19
aa(lp470
g441
aF0.13122689871717572
aI5
aI11
aI3
aa(lp471
g441
aF0.744030307257119
aI8
aI19
aI2
aa(lp472
g441
aF0.8702263751014426
aI23
aI7
aI1
aa(lp473
g444
aF0.9222124463004708
aI28
aI3
aI1
aa(lp474
g444
aF0.40542583991972914
aI30
aI7
aI4
aa(lp475
g441
aF0.8783370691622514
aI2
aI7
aI21
aa(lp476
g444
aF0.4387549649988478
aI6
aI4
aI2
aa(lp477
g441
aF0.775814405348008
aI6
aI7
aI2
aa(lp478
g441
aF0.5596115812153916
aI14
aI3
aI1
aa(lp479
g444
aF0.42753148738188573
aI30
aI1
aI17
aa(lp480
g441
aF0.25750276152633905
aI7
aI20
aI14
aa(lp481
g444
aF0.4330193119392777
aI10
aI20
aI2
aa(lp482
g441
aF0.21791191804923643
aI7
aI13
aI4
aa(lp483
g441
aF0.5989940970122262
aI24
aI2
aI2
aa(lp484
g444
aF0.20545357426041352
aI5
aI21
aI8
aa(lp485
g444
aF0.998970578895488
aI4
aI7
aI11
aa(lp486
g444
aF0.3233824581623195
aI16
aI21
aI1
aa(lp487
g441
aF0.538227580231045
aI15
aI20
aI21
aa(lp488
g441
aF0.8016169051848642
aI3
aI17
aI5
aa(lp489
g441
aF0.4625240998848802
aI29
aI7
aI2
aa(lp490
g441
aF0.9837038143595663
aI23
aI6
aI18
aa(lp491
g441
aF0.2741834409146735
aI16
aI8
aI2
aa(lp492
g444
aF0.5959532828862293
aI27
aI16
aI2
aa(lp493
g444
aF0.3804089306482835
aI12
aI9
aI1
aa(lp494
g444
aF0.361092020222875
aI4
aI17
aI1
aa(lp495
g444
aF0.8717453890798711
aI29
aI11
aI1
aa(lp496
g444
aF0.49415377216411516
aI24
aI6
aI2
aa(lp497
g441
aF0.7705516633232808
aI18
aI10
aI1
aa(lp498
g441
aF0.9995048400647003
aI14
aI14
aI10
aa(lp499
g441
aF0.46284335267596544
aI17
aI18
aI1
aa(lp500
g444
aF0.3577750984509077
aI30
aI8
aI2
aa(lp501
g441
aF0.65844864581896
aI29
aI5
aI12
aaaF16.122316122055054
asS'RF'
p502
(lp503
(lp504
g6
(g10
S'\xb8\x1e\x85\xebQ\xb8\xde?'
p505
tp506
Rp507
ag6
(g10
S'\x00\x00\x00\x00\x00\x00\xe0?'
p508
tp509
Rp510
ag6
(g10
S'=\n\xd7\xa3p=\xda?'
p511
tp512
Rp513
ag6
(g10
S')\\\x8f\xc2\xf5(\xdc?'
p514
tp515
Rp516
ag6
(g10
S'\xe1z\x14\xaeG\xe1\xda?'
p517
tp518
Rp519
ag6
(g10
S'q=\n\xd7\xa3p\xdd?'
p520
tp521
Rp522
ag6
(g10
S'\xe1z\x14\xaeG\xe1\xda?'
p523
tp524
Rp525
ag6
(g10
S'\x9a\x99\x99\x99\x99\x99\xd9?'
p526
tp527
Rp528
ag6
(g10
S'\xcd\xcc\xcc\xcc\xcc\xcc\xdc?'
p529
tp530
Rp531
ag6
(g10
S'q=\n\xd7\xa3p\xdd?'
p532
tp533
Rp534
ag6
(g10
S'\x85\xebQ\xb8\x1e\x85\xdb?'
p535
tp536
Rp537
ag6
(g10
S'\xcd\xcc\xcc\xcc\xcc\xcc\xdc?'
p538
tp539
Rp540
ag6
(g10
S'\x9a\x99\x99\x99\x99\x99\xd9?'
p541
tp542
Rp543
ag6
(g10
S'\xcd\xcc\xcc\xcc\xcc\xcc\xdc?'
p544
tp545
Rp546
ag6
(g10
S'\xcd\xcc\xcc\xcc\xcc\xcc\xdc?'
p547
tp548
Rp549
ag6
(g10
S')\\\x8f\xc2\xf5(\xdc?'
p550
tp551
Rp552
ag6
(g10
S'\x9a\x99\x99\x99\x99\x99\xd9?'
p553
tp554
Rp555
ag6
(g10
S'\\\x8f\xc2\xf5(\\\xdf?'
p556
tp557
Rp558
ag6
(g10
S'=\n\xd7\xa3p=\xda?'
p559
tp560
Rp561
ag6
(g10
S')\\\x8f\xc2\xf5(\xdc?'
p562
tp563
Rp564
ag6
(g10
S'\xe1z\x14\xaeG\xe1\xda?'
p565
tp566
Rp567
ag6
(g10
S'\xcd\xcc\xcc\xcc\xcc\xcc\xdc?'
p568
tp569
Rp570
ag6
(g10
S'\xcd\xcc\xcc\xcc\xcc\xcc\xdc?'
p571
tp572
Rp573
ag6
(g10
S'\xcd\xcc\xcc\xcc\xcc\xcc\xdc?'
p574
tp575
Rp576
ag6
(g10
S')\\\x8f\xc2\xf5(\xdc?'
p577
tp578
Rp579
ag6
(g10
S'\x85\xebQ\xb8\x1e\x85\xdb?'
p580
tp581
Rp582
ag6
(g10
S')\\\x8f\xc2\xf5(\xdc?'
p583
tp584
Rp585
ag6
(g10
S'q=\n\xd7\xa3p\xdd?'
p586
tp587
Rp588
ag6
(g10
S'\xcd\xcc\xcc\xcc\xcc\xcc\xdc?'
p589
tp590
Rp591
ag6
(g10
S'=\n\xd7\xa3p=\xda?'
p592
tp593
Rp594
ag6
(g10
S'\xcd\xcc\xcc\xcc\xcc\xcc\xdc?'
p595
tp596
Rp597
ag6
(g10
S')\\\x8f\xc2\xf5(\xdc?'
p598
tp599
Rp600
ag6
(g10
S')\\\x8f\xc2\xf5(\xdc?'
p601
tp602
Rp603
ag6
(g10
S'\x85\xebQ\xb8\x1e\x85\xdb?'
p604
tp605
Rp606
ag6
(g10
S'\xe1z\x14\xaeG\xe1\xda?'
p607
tp608
Rp609
ag6
(g10
S'\xb8\x1e\x85\xebQ\xb8\xde?'
p610
tp611
Rp612
ag6
(g10
S'\x85\xebQ\xb8\x1e\x85\xdb?'
p613
tp614
Rp615
ag6
(g10
S'\x9a\x99\x99\x99\x99\x99\xd9?'
p616
tp617
Rp618
ag6
(g10
S')\\\x8f\xc2\xf5(\xdc?'
p619
tp620
Rp621
ag6
(g10
S')\\\x8f\xc2\xf5(\xdc?'
p622
tp623
Rp624
ag6
(g10
S'q=\n\xd7\xa3p\xdd?'
p625
tp626
Rp627
ag6
(g10
S'\xcd\xcc\xcc\xcc\xcc\xcc\xdc?'
p628
tp629
Rp630
ag6
(g10
S'\xe1z\x14\xaeG\xe1\xda?'
p631
tp632
Rp633
ag6
(g10
S')\\\x8f\xc2\xf5(\xdc?'
p634
tp635
Rp636
ag6
(g10
S'\x85\xebQ\xb8\x1e\x85\xdb?'
p637
tp638
Rp639
ag6
(g10
S'\xcd\xcc\xcc\xcc\xcc\xcc\xdc?'
p640
tp641
Rp642
ag6
(g10
S'\xe1z\x14\xaeG\xe1\xda?'
p643
tp644
Rp645
ag6
(g10
S'\xaeG\xe1z\x14\xae\xd7?'
p646
tp647
Rp648
ag6
(g10
S'q=\n\xd7\xa3p\xdd?'
p649
tp650
Rp651
ag6
(g10
S'\x85\xebQ\xb8\x1e\x85\xdb?'
p652
tp653
Rp654
ag6
(g10
S'\xcd\xcc\xcc\xcc\xcc\xcc\xdc?'
p655
tp656
Rp657
ag6
(g10
S'\xcd\xcc\xcc\xcc\xcc\xcc\xdc?'
p658
tp659
Rp660
ag6
(g10
S'\xe1z\x14\xaeG\xe1\xda?'
p661
tp662
Rp663
ag6
(g10
S'\xcd\xcc\xcc\xcc\xcc\xcc\xdc?'
p664
tp665
Rp666
ag6
(g10
S'=\n\xd7\xa3p=\xda?'
p667
tp668
Rp669
ag6
(g10
S'\xf6(\\\x8f\xc2\xf5\xd8?'
p670
tp671
Rp672
ag6
(g10
S')\\\x8f\xc2\xf5(\xdc?'
p673
tp674
Rp675
ag6
(g10
S'\x14\xaeG\xe1z\x14\xde?'
p676
tp677
Rp678
ag6
(g10
S'\xcd\xcc\xcc\xcc\xcc\xcc\xdc?'
p679
tp680
Rp681
ag6
(g10
S'\xe1z\x14\xaeG\xe1\xda?'
p682
tp683
Rp684
aa(lp685
(lp686
g441
aF0.37843702637644794
aI21
aI18
aI19
aa(lp687
g441
aF0.10618569141858425
aI20
aI18
aI62
aa(lp688
g444
aF0.32430054683057313
aI3
aI2
aI33
aa(lp689
g441
aF0.7502790373848939
aI11
aI21
aI17
aa(lp690
g444
aF0.62603433572231
aI14
aI9
aI16
aa(lp691
g441
aF0.4064360462391753
aI24
aI19
aI45
aa(lp692
g441
aF0.6311334681002322
aI12
aI7
aI22
aa(lp693
g444
aF0.2670336088713873
aI10
aI1
aI94
aa(lp694
g444
aF0.7083002255892912
aI27
aI21
aI51
aa(lp695
g444
aF0.3991641764126116
aI25
aI15
aI90
aa(lp696
g444
aF0.8081898829158062
aI24
aI7
aI19
aa(lp697
g444
aF0.7423974243961414
aI16
aI20
aI59
aa(lp698
g444
aF0.9780688746872119
aI6
aI1
aI57
aa(lp699
g441
aF0.534114507676549
aI30
aI12
aI15
aa(lp700
g444
aF0.6362040284601047
aI15
aI14
aI45
aa(lp701
g441
aF0.6349069153960345
aI9
aI10
aI60
aa(lp702
g444
aF0.7475781911634547
aI6
aI1
aI63
aa(lp703
g444
aF0.21729186331195882
aI13
aI17
aI24
aa(lp704
g444
aF0.5594877107288856
aI6
aI4
aI50
aa(lp705
g444
aF0.4687651625538316
aI20
aI19
aI32
aa(lp706
g444
aF0.9542235239894735
aI27
aI6
aI47
aa(lp707
g441
aF0.23876990756456173
aI30
aI2
aI68
aa(lp708
g441
aF0.27616775157813117
aI29
aI11
aI16
aa(lp709
g441
aF0.9444109932894371
aI23
aI8
aI24
aa(lp710
g441
aF0.6252014612791086
aI16
aI7
aI72
aa(lp711
g441
aF0.41261835408725744
aI16
aI4
aI68
aa(lp712
g444
aF0.825363183712948
aI29
aI8
aI63
aa(lp713
g441
aF0.5953123793227182
aI29
aI10
aI13
aa(lp714
g441
aF0.21042674943815842
aI7
aI7
aI16
aa(lp715
g444
aF0.8128247928819192
aI9
aI1
aI11
aa(lp716
g444
aF0.7699244647459069
aI25
aI9
aI86
aa(lp717
g444
aF0.3208587313650091
aI16
aI2
aI85
aa(lp718
g444
aF0.2771631756348799
aI8
aI18
aI99
aa(lp719
g444
aF0.922690537775103
aI30
aI11
aI31
aa(lp720
g444
aF0.6823220317509211
aI20
aI8
aI15
aa(lp721
g444
aF0.1264864902245812
aI3
aI9
aI23
aa(lp722
g444
aF0.7742570944414315
aI16
aI17
aI16
aa(lp723
g441
aF0.9841062272943798
aI6
aI21
aI11
aa(lp724
g441
aF0.8101004710436938
aI13
aI15
aI33
aa(lp725
g441
aF0.893374700144322
aI11
aI18
aI38
aa(lp726
g441
aF0.3951093592242063
aI10
aI20
aI30
aa(lp727
g441
aF0.953241417710611
aI13
aI8
aI99
aa(lp728
g441
aF0.7908538474995983
aI25
aI7
aI95
aa(lp729
g441
aF0.8852868754712424
aI16
aI15
aI40
aa(lp730
g444
aF0.7097891462865992
aI29
aI1
aI31
aa(lp731
g441
aF0.9336521647953824
aI27
aI21
aI93
aa(lp732
g444
aF0.8636593988258238
aI17
aI8
aI20
aa(lp733
g444
aF0.8162860359732758
aI6
aI1
aI52
aa(lp734
g444
aF0.19103457246714575
aI4
aI1
aI31
aa(lp735
g444
aF0.41385222111741526
aI15
aI3
aI21
aa(lp736
g441
aF0.5809799945535521
aI11
aI15
aI22
aa(lp737
g441
aF0.4708590714821346
aI11
aI5
aI82
aa(lp738
g444
aF0.8259921584077511
aI10
aI7
aI98
aa(lp739
g441
aF0.6400753469901067
aI3
aI11
aI95
aa(lp740
g441
aF0.6017438899968389
aI23
aI6
aI78
aa(lp741
g444
aF0.8903802731774612
aI14
aI3
aI36
aa(lp742
g444
aF0.8422314050936501
aI25
aI20
aI21
aa(lp743
g444
aF0.6226272600044928
aI27
aI13
aI13
aa(lp744
g441
aF0.8724795749970935
aI26
aI17
aI59
aa(lp745
g441
aF0.900969585315815
aI28
aI5
aI13
aaaF2706.8462870121
asS'SVM'
p746
(lp747
(lp748
g6
(g10
S'\x00\x00\x00\x00\x00\x00\x00\x00'
p749
tp750
Rp751
ag6
(g10
S'\x00\x00\x00\x00\x00\x00\x00\x00'
p752
tp753
Rp754
ag6
(g10
S'\xb8\x1e\x85\xebQ\xb8\xae?'
p755
tp756
Rp757
ag6
(g10
S'{\x14\xaeG\xe1z\xb4?'
p758
tp759
Rp760
ag6
(g10
S'{\x14\xaeG\xe1z\xa4?'
p761
tp762
Rp763
ag6
(g10
S'\x9a\x99\x99\x99\x99\x99\xa9?'
p764
tp765
Rp766
ag6
(g10
S'\x00\x00\x00\x00\x00\x00\x00\x00'
p767
tp768
Rp769
ag6
(g10
S'\x00\x00\x00\x00\x00\x00\x00\x00'
p770
tp771
Rp772
ag6
(g10
S'\xecQ\xb8\x1e\x85\xeb\xb1?'
p773
tp774
Rp775
ag6
(g10
S'\xb8\x1e\x85\xebQ\xb8\xae?'
p776
tp777
Rp778
ag6
(g10
S'{\x14\xaeG\xe1z\xa4?'
p779
tp780
Rp781
ag6
(g10
S'\x00\x00\x00\x00\x00\x00\x00\x00'
p782
tp783
Rp784
ag6
(g10
S'\x00\x00\x00\x00\x00\x00\x00\x00'
p785
tp786
Rp787
ag6
(g10
S'\xecQ\xb8\x1e\x85\xeb\xb1?'
p788
tp789
Rp790
ag6
(g10
S'\x9a\x99\x99\x99\x99\x99\xa9?'
p791
tp792
Rp793
ag6
(g10
S'{\x14\xaeG\xe1z\xa4?'
p794
tp795
Rp796
ag6
(g10
S'\x00\x00\x00\x00\x00\x00\x00\x00'
p797
tp798
Rp799
ag6
(g10
S'\x00\x00\x00\x00\x00\x00\x00\x00'
p800
tp801
Rp802
ag6
(g10
S'\xb8\x1e\x85\xebQ\xb8\xae?'
p803
tp804
Rp805
ag6
(g10
S'\x00\x00\x00\x00\x00\x00\x00\x00'
p806
tp807
Rp808
ag6
(g10
S'\x00\x00\x00\x00\x00\x00\x00\x00'
p809
tp810
Rp811
ag6
(g10
S'\xb8\x1e\x85\xebQ\xb8\xae?'
p812
tp813
Rp814
ag6
(g10
S'\x00\x00\x00\x00\x00\x00\x00\x00'
p815
tp816
Rp817
ag6
(g10
S'\x00\x00\x00\x00\x00\x00\x00\x00'
p818
tp819
Rp820
ag6
(g10
S'\x00\x00\x00\x00\x00\x00\x00\x00'
p821
tp822
Rp823
ag6
(g10
S'\x9a\x99\x99\x99\x99\x99\xa9?'
p824
tp825
Rp826
ag6
(g10
S'\xb8\x1e\x85\xebQ\xb8\xae?'
p827
tp828
Rp829
ag6
(g10
S'\x00\x00\x00\x00\x00\x00\x00\x00'
p830
tp831
Rp832
ag6
(g10
S'\x00\x00\x00\x00\x00\x00\x00\x00'
p833
tp834
Rp835
ag6
(g10
S'\x00\x00\x00\x00\x00\x00\x00\x00'
p836
tp837
Rp838
ag6
(g10
S'\xb8\x1e\x85\xebQ\xb8\xae?'
p839
tp840
Rp841
ag6
(g10
S'\x00\x00\x00\x00\x00\x00\x00\x00'
p842
tp843
Rp844
ag6
(g10
S'{\x14\xaeG\xe1z\xa4?'
p845
tp846
Rp847
ag6
(g10
S'{\x14\xaeG\xe1z\xa4?'
p848
tp849
Rp850
ag6
(g10
S'{\x14\xaeG\xe1z\xa4?'
p851
tp852
Rp853
ag6
(g10
S'\x00\x00\x00\x00\x00\x00\x00\x00'
p854
tp855
Rp856
ag6
(g10
S'\x00\x00\x00\x00\x00\x00\x00\x00'
p857
tp858
Rp859
ag6
(g10
S'\x00\x00\x00\x00\x00\x00\x00\x00'
p860
tp861
Rp862
ag6
(g10
S'{\x14\xaeG\xe1z\xa4?'
p863
tp864
Rp865
ag6
(g10
S'\x00\x00\x00\x00\x00\x00\x00\x00'
p866
tp867
Rp868
ag6
(g10
S'\xecQ\xb8\x1e\x85\xeb\xb1?'
p869
tp870
Rp871
ag6
(g10
S'\x00\x00\x00\x00\x00\x00\x00\x00'
p872
tp873
Rp874
ag6
(g10
S'\x00\x00\x00\x00\x00\x00\x00\x00'
p875
tp876
Rp877
ag6
(g10
S'{\x14\xaeG\xe1z\xa4?'
p878
tp879
Rp880
ag6
(g10
S'\x00\x00\x00\x00\x00\x00\x00\x00'
p881
tp882
Rp883
ag6
(g10
S'\x00\x00\x00\x00\x00\x00\x00\x00'
p884
tp885
Rp886
ag6
(g10
S'\x9a\x99\x99\x99\x99\x99\xa9?'
p887
tp888
Rp889
ag6
(g10
S'\xb8\x1e\x85\xebQ\xb8\xae?'
p890
tp891
Rp892
ag6
(g10
S'\x00\x00\x00\x00\x00\x00\x00\x00'
p893
tp894
Rp895
ag6
(g10
S'\xb8\x1e\x85\xebQ\xb8\xae?'
p896
tp897
Rp898
ag6
(g10
S'\xecQ\xb8\x1e\x85\xeb\xb1?'
p899
tp900
Rp901
ag6
(g10
S'\x00\x00\x00\x00\x00\x00\x00\x00'
p902
tp903
Rp904
ag6
(g10
S'\xb8\x1e\x85\xebQ\xb8\xae?'
p905
tp906
Rp907
ag6
(g10
S'\x00\x00\x00\x00\x00\x00\x00\x00'
p908
tp909
Rp910
ag6
(g10
S'\x00\x00\x00\x00\x00\x00\x00\x00'
p911
tp912
Rp913
ag6
(g10
S'{\x14\xaeG\xe1z\xb4?'
p914
tp915
Rp916
ag6
(g10
S'\xecQ\xb8\x1e\x85\xeb\xb1?'
p917
tp918
Rp919
ag6
(g10
S'\x00\x00\x00\x00\x00\x00\x00\x00'
p920
tp921
Rp922
ag6
(g10
S'\x00\x00\x00\x00\x00\x00\x00\x00'
p923
tp924
Rp925
ag6
(g10
S'\xecQ\xb8\x1e\x85\xeb\xb1?'
p926
tp927
Rp928
aa(lp929
(lp930
I72
aS'sigmoid'
p931
aF0.5709426377904226
aF0.42317390216886175
aa(lp932
I46
ag931
aF0.6879541775433523
aF0.5822369448682986
aa(lp933
I47
ag931
aF0.30172395203121694
aF0.1462928648968012
aa(lp934
I35
ag931
aF0.5912000171918864
aF0.20070879384874393
aa(lp935
I86
ag931
aF0.8342906568880352
aF0.23913828033839107
aa(lp936
I46
ag931
aF0.18214391755210257
aF0.13063271636374707
aa(lp937
I39
aS'rbf'
p938
aF0.9374471950552217
aF0.2901757392381842
aa(lp939
I93
ag931
aF0.26120273203582167
aF0.4555863707911231
aa(lp940
I55
ag931
aF0.8073284381609374
aF0.16398233981660476
aa(lp941
I39
ag931
aF0.45365911459441277
aF0.13139842880878566
aa(lp942
I98
ag931
aF0.4123021900143643
aF0.10385116254503558
aa(lp943
I60
ag938
aF0.7070696155370989
aF0.9734767006761759
aa(lp944
I87
ag931
aF0.8809156934209603
aF0.39745128471578384
aa(lp945
I54
ag931
aF0.25407157741611885
aF0.2304730876833851
aa(lp946
I62
ag931
aF0.48727831843283953
aF0.11035776620316783
aa(lp947
I99
ag931
aF0.22469080088035906
aF0.11235238667634423
aa(lp948
I44
ag931
aF0.6389274215219443
aF0.2880150751626004
aa(lp949
I93
ag938
aF0.2352871181636116
aF0.7357208759931178
aa(lp950
I19
ag931
aF0.620822677813866
aF0.10326856978404438
aa(lp951
I82
ag931
aF0.301018919069465
aF0.39995612658530544
aa(lp952
I59
ag931
aF0.4703028715272195
aF0.32449228534241725
aa(lp953
I78
ag931
aF0.9627551905930609
aF0.14408319715001267
aa(lp954
I6
ag931
aF0.12600483741789134
aF0.2936775140735354
aa(lp955
I48
ag938
aF0.5940150758646849
aF0.46765816071050437
aa(lp956
I28
ag931
aF0.9814756835602326
aF0.18289275342792782
aa(lp957
I69
ag931
aF0.23671695472449414
aF0.14456829235087054
aa(lp958
I37
ag931
aF0.3653712123219378
aF0.166394395025374
aa(lp959
I6
ag931
aF0.17298488641920384
aF0.2789030700860473
aa(lp960
I14
ag931
aF0.1380024418750533
aF0.38400181762481855
aa(lp961
I60
ag938
aF0.6124575821369272
aF0.9460308081326979
aa(lp962
I80
ag931
aF0.2340574332350468
aF0.18383332536433733
aa(lp963
I74
ag931
aF0.7944094361338918
aF0.29334835894197653
aa(lp964
I84
ag931
aF0.3810793913289431
aF0.31515567557429314
aa(lp965
I82
ag931
aF0.28501501610355306
aF0.12086584978926027
aa(lp966
I49
ag931
aF0.641785022127468
aF0.2331612189241445
aa(lp967
I94
ag931
aF0.5275813153517612
aF0.48584592132089877
aa(lp968
I77
ag931
aF0.5670236156724844
aF0.37321441402232514
aa(lp969
I100
ag931
aF0.20486477148207854
aF0.5229675332703715
aa(lp970
I91
ag931
aF0.4833445976349613
aF0.11045095023079757
aa(lp971
I56
ag938
aF0.20274943310197224
aF0.17170865107816993
aa(lp972
I64
ag931
aF0.379481461684988
aF0.20212491256978582
aa(lp973
I64
ag938
aF0.9717336507051748
aF0.5208187794033802
aa(lp974
I61
ag938
aF0.4159213609452379
aF0.2356073487246086
aa(lp975
I42
ag931
aF0.1662683535524487
aF0.11068545450421002
aa(lp976
I92
ag931
aF0.5226998659241389
aF0.4705897753354312
aa(lp977
I48
ag938
aF0.11626712823968932
aF0.9138535286183431
aa(lp978
I98
ag931
aF0.7572080720590181
aF0.1115644978095541
aa(lp979
I89
ag931
aF0.8284081953131075
aF0.17218981894769558
aa(lp980
I88
ag931
aF0.1362143866548432
aF0.5226051132654234
aa(lp981
I11
ag931
aF0.600653294998572
aF0.10214654649337652
aa(lp982
I88
ag931
aF0.9817370422651418
aF0.1913754954464464
aa(lp983
I2
ag938
aF0.1905807023290513
aF0.8296195039719204
aa(lp984
I49
ag931
aF0.34173660487695207
aF0.14370663752172447
aa(lp985
I27
ag931
aF0.2516267705099633
aF0.3704817623888269
aa(lp986
I98
ag938
aF0.6463832784682327
aF0.9995837626509573
aa(lp987
I61
ag931
aF0.418495387310172
aF0.25052279537276184
aa(lp988
I88
ag931
aF0.8581101698413723
aF0.17492163959713908
aa(lp989
I90
ag938
aF0.29167728150097183
aF0.920416895762036
aa(lp990
I60
ag931
aF0.24439678726024563
aF0.6823621559359107
aa(lp991
I34
ag931
aF0.11871444231617259
aF0.19681215482196102
aaaF80.14480996131897
assS'precision'
p992
(dp993
g3
(lp994
(lp995
g6
(g10
S'\xd7\xa3p=\n\xd7\xd3?'
p996
tp997
Rp998
ag6
(g10
S'\xd7\xa3p=\n\xd7\xd3?'
p999
tp1000
Rp1001
ag6
(g10
S'\xd7\xa3p=\n\xd7\xd3?'
p1002
tp1003
Rp1004
ag6
(g10
S'\x8f\xc2\xf5(\\\x8f\xd2?'
p1005
tp1006
Rp1007
ag6
(g10
S'\xc3\xf5(\\\x8f\xc2\xc5?'
p1008
tp1009
Rp1010
ag6
(g10
S'\xecQ\xb8\x1e\x85\xeb\xd1?'
p1011
tp1012
Rp1013
ag6
(g10
S'\xc3\xf5(\\\x8f\xc2\xd5?'
p1014
tp1015
Rp1016
ag6
(g10
S'\x00\x00\x00\x00\x00\x00\xd0?'
p1017
tp1018
Rp1019
ag6
(g10
S'\x8f\xc2\xf5(\\\x8f\xd2?'
p1020
tp1021
Rp1022
ag6
(g10
S'\xc3\xf5(\\\x8f\xc2\xd5?'
p1023
tp1024
Rp1025
ag6
(g10
S'\xc3\xf5(\\\x8f\xc2\xd5?'
p1026
tp1027
Rp1028
ag6
(g10
S'\xecQ\xb8\x1e\x85\xeb\xd1?'
p1029
tp1030
Rp1031
ag6
(g10
S'\xa4p=\n\xd7\xa3\xd0?'
p1032
tp1033
Rp1034
ag6
(g10
S'\x8f\xc2\xf5(\\\x8f\xd2?'
p1035
tp1036
Rp1037
ag6
(g10
S'\x00\x00\x00\x00\x00\x00\xd0?'
p1038
tp1039
Rp1040
ag6
(g10
S'\x8f\xc2\xf5(\\\x8f\xd2?'
p1041
tp1042
Rp1043
ag6
(g10
S'\x8f\xc2\xf5(\\\x8f\xd2?'
p1044
tp1045
Rp1046
ag6
(g10
S'\xc3\xf5(\\\x8f\xc2\xd5?'
p1047
tp1048
Rp1049
ag6
(g10
S')\\\x8f\xc2\xf5(\xcc?'
p1050
tp1051
Rp1052
ag6
(g10
S'\xc3\xf5(\\\x8f\xc2\xd5?'
p1053
tp1054
Rp1055
ag6
(g10
S'\x8f\xc2\xf5(\\\x8f\xd2?'
p1056
tp1057
Rp1058
ag6
(g10
S'\xd7\xa3p=\n\xd7\xd3?'
p1059
tp1060
Rp1061
ag6
(g10
S'\x8f\xc2\xf5(\\\x8f\xd2?'
p1062
tp1063
Rp1064
ag6
(g10
S'\xecQ\xb8\x1e\x85\xeb\xd1?'
p1065
tp1066
Rp1067
ag6
(g10
S'\xd7\xa3p=\n\xd7\xd3?'
p1068
tp1069
Rp1070
ag6
(g10
S'\x8f\xc2\xf5(\\\x8f\xd2?'
p1071
tp1072
Rp1073
ag6
(g10
S'\xd7\xa3p=\n\xd7\xd3?'
p1074
tp1075
Rp1076
ag6
(g10
S'\xd7\xa3p=\n\xd7\xd3?'
p1077
tp1078
Rp1079
ag6
(g10
S'\x8f\xc2\xf5(\\\x8f\xd2?'
p1080
tp1081
Rp1082
ag6
(g10
S'\xc3\xf5(\\\x8f\xc2\xd5?'
p1083
tp1084
Rp1085
ag6
(g10
S'\xd7\xa3p=\n\xd7\xd3?'
p1086
tp1087
Rp1088
ag6
(g10
S'\x8f\xc2\xf5(\\\x8f\xd2?'
p1089
tp1090
Rp1091
ag6
(g10
S'\x8f\xc2\xf5(\\\x8f\xd2?'
p1092
tp1093
Rp1094
ag6
(g10
S'\xd7\xa3p=\n\xd7\xd3?'
p1095
tp1096
Rp1097
ag6
(g10
S')\\\x8f\xc2\xf5(\xcc?'
p1098
tp1099
Rp1100
ag6
(g10
S'\x8f\xc2\xf5(\\\x8f\xd2?'
p1101
tp1102
Rp1103
ag6
(g10
S'\xd7\xa3p=\n\xd7\xd3?'
p1104
tp1105
Rp1106
ag6
(g10
S'\x8f\xc2\xf5(\\\x8f\xd2?'
p1107
tp1108
Rp1109
ag6
(g10
S'\x8f\xc2\xf5(\\\x8f\xd2?'
p1110
tp1111
Rp1112
ag6
(g10
S'\x00\x00\x00\x00\x00\x00\xd0?'
p1113
tp1114
Rp1115
ag6
(g10
S'\xecQ\xb8\x1e\x85\xeb\xd1?'
p1116
tp1117
Rp1118
ag6
(g10
S'\x8f\xc2\xf5(\\\x8f\xd2?'
p1119
tp1120
Rp1121
ag6
(g10
S'\xc3\xf5(\\\x8f\xc2\xd5?'
p1122
tp1123
Rp1124
ag6
(g10
S'\xd7\xa3p=\n\xd7\xd3?'
p1125
tp1126
Rp1127
ag6
(g10
S')\\\x8f\xc2\xf5(\xcc?'
p1128
tp1129
Rp1130
ag6
(g10
S'\xc3\xf5(\\\x8f\xc2\xd5?'
p1131
tp1132
Rp1133
ag6
(g10
S'\x8f\xc2\xf5(\\\x8f\xd2?'
p1134
tp1135
Rp1136
ag6
(g10
S'\x8f\xc2\xf5(\\\x8f\xd2?'
p1137
tp1138
Rp1139
ag6
(g10
S'\x8f\xc2\xf5(\\\x8f\xd2?'
p1140
tp1141
Rp1142
ag6
(g10
S'\xecQ\xb8\x1e\x85\xeb\xd1?'
p1143
tp1144
Rp1145
ag6
(g10
S'\xd7\xa3p=\n\xd7\xd3?'
p1146
tp1147
Rp1148
ag6
(g10
S'\xd7\xa3p=\n\xd7\xd3?'
p1149
tp1150
Rp1151
ag6
(g10
S'\x8f\xc2\xf5(\\\x8f\xd2?'
p1152
tp1153
Rp1154
ag6
(g10
S'\x8f\xc2\xf5(\\\x8f\xd2?'
p1155
tp1156
Rp1157
ag6
(g10
S'\xd7\xa3p=\n\xd7\xd3?'
p1158
tp1159
Rp1160
ag6
(g10
S'\x8f\xc2\xf5(\\\x8f\xd2?'
p1161
tp1162
Rp1163
ag6
(g10
S'\xd7\xa3p=\n\xd7\xd3?'
p1164
tp1165
Rp1166
ag6
(g10
S'\x8f\xc2\xf5(\\\x8f\xd2?'
p1167
tp1168
Rp1169
ag6
(g10
S'\xd7\xa3p=\n\xd7\xd3?'
p1170
tp1171
Rp1172
ag6
(g10
S'\xc3\xf5(\\\x8f\xc2\xd5?'
p1173
tp1174
Rp1175
aa(lp1176
(lp1177
I10
ag195
aa(lp1178
I10
ag195
aa(lp1179
I10
ag195
aa(lp1180
I9
ag195
aa(lp1181
I2
ag195
aa(lp1182
I10
ag205
aa(lp1183
I8
ag195
aa(lp1184
I9
ag205
aa(lp1185
I6
ag195
aa(lp1186
I8
ag195
aa(lp1187
I8
ag195
aa(lp1188
I10
ag205
aa(lp1189
I5
ag195
aa(lp1190
I6
ag195
aa(lp1191
I9
ag205
aa(lp1192
I9
ag195
aa(lp1193
I9
ag195
aa(lp1194
I8
ag195
aa(lp1195
I4
ag195
aa(lp1196
I8
ag195
aa(lp1197
I6
ag195
aa(lp1198
I10
ag195
aa(lp1199
I6
ag195
aa(lp1200
I10
ag205
aa(lp1201
I10
ag195
aa(lp1202
I6
ag195
aa(lp1203
I10
ag195
aa(lp1204
I10
ag195
aa(lp1205
I6
ag195
aa(lp1206
I8
ag195
aa(lp1207
I10
ag195
aa(lp1208
I7
ag195
aa(lp1209
I9
ag195
aa(lp1210
I10
ag195
aa(lp1211
I4
ag195
aa(lp1212
I9
ag195
aa(lp1213
I10
ag195
aa(lp1214
I9
ag195
aa(lp1215
I7
ag195
aa(lp1216
I9
ag205
aa(lp1217
I10
ag205
aa(lp1218
I6
ag195
aa(lp1219
I8
ag195
aa(lp1220
I10
ag195
aa(lp1221
I4
ag195
aa(lp1222
I8
ag195
aa(lp1223
I6
ag195
aa(lp1224
I6
ag195
aa(lp1225
I9
ag195
aa(lp1226
I10
ag205
aa(lp1227
I10
ag195
aa(lp1228
I10
ag195
aa(lp1229
I6
ag195
aa(lp1230
I6
ag195
aa(lp1231
I10
ag195
aa(lp1232
I9
ag195
aa(lp1233
I10
ag195
aa(lp1234
I7
ag195
aa(lp1235
I10
ag195
aa(lp1236
I8
ag195
aaaF19.464488983154297
asg256
(lp1237
(lp1238
g6
(g10
S'{\x14\xaeG\xe1z\xd4?'
p1239
tp1240
Rp1241
ag6
(g10
S'=\n\xd7\xa3p=\xda?'
p1242
tp1243
Rp1244
ag6
(g10
S'\x00\x00\x00\x00\x00\x00\xd0?'
p1245
tp1246
Rp1247
ag6
(g10
S'\x8f\xc2\xf5(\\\x8f\xd2?'
p1248
tp1249
Rp1250
ag6
(g10
S'\x9a\x99\x99\x99\x99\x99\xc9?'
p1251
tp1252
Rp1253
ag6
(g10
S')\\\x8f\xc2\xf5(\xdc?'
p1254
tp1255
Rp1256
ag6
(g10
S'{\x14\xaeG\xe1z\xd4?'
p1257
tp1258
Rp1259
ag6
(g10
S'ffffff\xd6?'
p1260
tp1261
Rp1262
ag6
(g10
S'\x8f\xc2\xf5(\\\x8f\xd2?'
p1263
tp1264
Rp1265
ag6
(g10
S'H\xe1z\x14\xaeG\xd1?'
p1266
tp1267
Rp1268
ag6
(g10
S'{\x14\xaeG\xe1z\xd4?'
p1269
tp1270
Rp1271
ag6
(g10
S'H\xe1z\x14\xaeG\xd1?'
p1272
tp1273
Rp1274
ag6
(g10
S')\\\x8f\xc2\xf5(\xdc?'
p1275
tp1276
Rp1277
ag6
(g10
S'\x8f\xc2\xf5(\\\x8f\xd2?'
p1278
tp1279
Rp1280
ag6
(g10
S'\x8f\xc2\xf5(\\\x8f\xd2?'
p1281
tp1282
Rp1283
ag6
(g10
S'\xd7\xa3p=\n\xd7\xd3?'
p1284
tp1285
Rp1286
ag6
(g10
S')\\\x8f\xc2\xf5(\xcc?'
p1287
tp1288
Rp1289
ag6
(g10
S'R\xb8\x1e\x85\xebQ\xc8?'
p1290
tp1291
Rp1292
ag6
(g10
S'q=\n\xd7\xa3p\xcd?'
p1293
tp1294
Rp1295
ag6
(g10
S'\xb8\x1e\x85\xebQ\xb8\xce?'
p1296
tp1297
Rp1298
ag6
(g10
S'\xa4p=\n\xd7\xa3\xd0?'
p1299
tp1300
Rp1301
ag6
(g10
S'\x9a\x99\x99\x99\x99\x99\xd9?'
p1302
tp1303
Rp1304
ag6
(g10
S'\xecQ\xb8\x1e\x85\xeb\xd1?'
p1305
tp1306
Rp1307
ag6
(g10
S'\x8f\xc2\xf5(\\\x8f\xd2?'
p1308
tp1309
Rp1310
ag6
(g10
S'\xecQ\xb8\x1e\x85\xeb\xd1?'
p1311
tp1312
Rp1313
ag6
(g10
S'\xb8\x1e\x85\xebQ\xb8\xce?'
p1314
tp1315
Rp1316
ag6
(g10
S'\xe1z\x14\xaeG\xe1\xca?'
p1317
tp1318
Rp1319
ag6
(g10
S'\xa4p=\n\xd7\xa3\xd0?'
p1320
tp1321
Rp1322
ag6
(g10
S'\xd7\xa3p=\n\xd7\xd3?'
p1323
tp1324
Rp1325
ag6
(g10
S'\x00\x00\x00\x00\x00\x00\xd0?'
p1326
tp1327
Rp1328
ag6
(g10
S'\xd7\xa3p=\n\xd7\xd3?'
p1329
tp1330
Rp1331
ag6
(g10
S'\xd7\xa3p=\n\xd7\xd3?'
p1332
tp1333
Rp1334
ag6
(g10
S'\x8f\xc2\xf5(\\\x8f\xd2?'
p1335
tp1336
Rp1337
ag6
(g10
S'{\x14\xaeG\xe1z\xd4?'
p1338
tp1339
Rp1340
ag6
(g10
S'\xd7\xa3p=\n\xd7\xd3?'
p1341
tp1342
Rp1343
ag6
(g10
S'\xecQ\xb8\x1e\x85\xeb\xd1?'
p1344
tp1345
Rp1346
ag6
(g10
S'\x00\x00\x00\x00\x00\x00\xd0?'
p1347
tp1348
Rp1349
ag6
(g10
S'q=\n\xd7\xa3p\xcd?'
p1350
tp1351
Rp1352
ag6
(g10
S'H\xe1z\x14\xaeG\xd1?'
p1353
tp1354
Rp1355
ag6
(g10
S'\xc3\xf5(\\\x8f\xc2\xd5?'
p1356
tp1357
Rp1358
ag6
(g10
S'\x8f\xc2\xf5(\\\x8f\xd2?'
p1359
tp1360
Rp1361
ag6
(g10
S'\xaeG\xe1z\x14\xae\xd7?'
p1362
tp1363
Rp1364
ag6
(g10
S'\xd7\xa3p=\n\xd7\xd3?'
p1365
tp1366
Rp1367
ag6
(g10
S'\x8f\xc2\xf5(\\\x8f\xd2?'
p1368
tp1369
Rp1370
ag6
(g10
S'{\x14\xaeG\xe1z\xd4?'
p1371
tp1372
Rp1373
ag6
(g10
S'\xa4p=\n\xd7\xa3\xd0?'
p1374
tp1375
Rp1376
ag6
(g10
S'\x8f\xc2\xf5(\\\x8f\xd2?'
p1377
tp1378
Rp1379
ag6
(g10
S'H\xe1z\x14\xaeG\xd1?'
p1380
tp1381
Rp1382
ag6
(g10
S'H\xe1z\x14\xaeG\xd1?'
p1383
tp1384
Rp1385
ag6
(g10
S'H\xe1z\x14\xaeG\xd1?'
p1386
tp1387
Rp1388
ag6
(g10
S'\xecQ\xb8\x1e\x85\xeb\xd1?'
p1389
tp1390
Rp1391
ag6
(g10
S'\x85\xebQ\xb8\x1e\x85\xdb?'
p1392
tp1393
Rp1394
ag6
(g10
S'\x9a\x99\x99\x99\x99\x99\xc9?'
p1395
tp1396
Rp1397
ag6
(g10
S'\x8f\xc2\xf5(\\\x8f\xd2?'
p1398
tp1399
Rp1400
ag6
(g10
S'ffffff\xd6?'
p1401
tp1402
Rp1403
ag6
(g10
S'\x8f\xc2\xf5(\\\x8f\xd2?'
p1404
tp1405
Rp1406
ag6
(g10
S'\xa4p=\n\xd7\xa3\xd0?'
p1407
tp1408
Rp1409
ag6
(g10
S'\x8f\xc2\xf5(\\\x8f\xd2?'
p1410
tp1411
Rp1412
ag6
(g10
S'\xc3\xf5(\\\x8f\xc2\xd5?'
p1413
tp1414
Rp1415
ag6
(g10
S'H\xe1z\x14\xaeG\xd1?'
p1416
tp1417
Rp1418
aa(lp1419
(lp1420
g444
aF0.28150950540936154
aI12
aI16
aI8
aa(lp1421
g444
aF0.23713474835044962
aI28
aI15
aI3
aa(lp1422
g441
aF0.6674531999794
aI7
aI16
aI9
aa(lp1423
g441
aF0.7261978141335524
aI25
aI3
aI2
aa(lp1424
g444
aF0.152129485482721
aI5
aI1
aI4
aa(lp1425
g444
aF0.14870234778807306
aI14
aI19
aI4
aa(lp1426
g441
aF0.9199797236008214
aI5
aI21
aI6
aa(lp1427
g444
aF0.513275815852876
aI7
aI15
aI3
aa(lp1428
g444
aF0.7574496714502805
aI24
aI12
aI2
aa(lp1429
g441
aF0.5020080961005698
aI16
aI20
aI3
aa(lp1430
g444
aF0.41520353582012703
aI25
aI9
aI4
aa(lp1431
g444
aF0.8948107898592219
aI23
aI6
aI13
aa(lp1432
g444
aF0.1230528982740255
aI21
aI16
aI13
aa(lp1433
g441
aF0.5680303106548286
aI6
aI11
aI3
aa(lp1434
g441
aF0.7541375017769408
aI13
aI7
aI2
aa(lp1435
g444
aF0.4548349509061935
aI10
aI20
aI10
aa(lp1436
g444
aF0.5806395918438223
aI12
aI15
aI6
aa(lp1437
g444
aF0.23652702740828938
aI11
aI8
aI21
aa(lp1438
g441
aF0.9711259257654951
aI28
aI4
aI9
aa(lp1439
g441
aF0.7164174928995276
aI18
aI21
aI10
aa(lp1440
g444
aF0.17514282722536248
aI24
aI4
aI7
aa(lp1441
g441
aF0.32702257260614426
aI28
aI10
aI3
aa(lp1442
g441
aF0.39494106310299315
aI26
aI19
aI8
aa(lp1443
g444
aF0.586897236955538
aI5
aI3
aI4
aa(lp1444
g444
aF0.9901693231643214
aI14
aI7
aI5
aa(lp1445
g444
aF0.5664732411988397
aI29
aI8
aI15
aa(lp1446
g444
aF0.7618870838012427
aI24
aI4
aI15
aa(lp1447
g444
aF0.7772928347135625
aI5
aI12
aI7
aa(lp1448
g444
aF0.5830724786429193
aI23
aI12
aI21
aa(lp1449
g444
aF0.4760737595583018
aI11
aI8
aI4
aa(lp1450
g441
aF0.4956284179942376
aI26
aI21
aI17
aa(lp1451
g441
aF0.4753361052396605
aI6
aI18
aI12
aa(lp1452
g441
aF0.9539559590312139
aI24
aI16
aI2
aa(lp1453
g441
aF0.1337234691912054
aI27
aI16
aI13
aa(lp1454
g444
aF0.21697114601471046
aI16
aI12
aI8
aa(lp1455
g441
aF0.9790691923626145
aI28
aI11
aI4
aa(lp1456
g444
aF0.4143671566887217
aI27
aI9
aI20
aa(lp1457
g444
aF0.5547906842233761
aI2
aI10
aI5
aa(lp1458
g441
aF0.37034973436431906
aI17
aI5
aI3
aa(lp1459
g444
aF0.13357474388636614
aI21
aI21
aI21
aa(lp1460
g444
aF0.3405349970642695
aI6
aI11
aI4
aa(lp1461
g441
aF0.3094284110015406
aI21
aI19
aI5
aa(lp1462
g441
aF0.4676338658122564
aI24
aI19
aI10
aa(lp1463
g441
aF0.9587182667912452
aI10
aI15
aI2
aa(lp1464
g444
aF0.25685966799898446
aI14
aI15
aI15
aa(lp1465
g444
aF0.4885138828634942
aI19
aI17
aI4
aa(lp1466
g441
aF0.6733241395876843
aI22
aI4
aI2
aa(lp1467
g441
aF0.3740239734072397
aI11
aI21
aI4
aa(lp1468
g444
aF0.9340751741893168
aI15
aI21
aI13
aa(lp1469
g444
aF0.4402390380901263
aI30
aI7
aI5
aa(lp1470
g441
aF0.7777168766244453
aI3
aI16
aI13
aa(lp1471
g444
aF0.12701056670249403
aI24
aI1
aI4
aa(lp1472
g444
aF0.6455959449068627
aI30
aI13
aI6
aa(lp1473
g444
aF0.15411898818849676
aI25
aI20
aI20
aa(lp1474
g444
aF0.46123147799120967
aI18
aI19
aI9
aa(lp1475
g441
aF0.5619040104145273
aI20
aI17
aI8
aa(lp1476
g444
aF0.36366409653011
aI27
aI3
aI9
aa(lp1477
g441
aF0.5092403540407474
aI14
aI14
aI19
aa(lp1478
g444
aF0.49864061924182745
aI23
aI19
aI8
aa(lp1479
g444
aF0.7674907882817898
aI13
aI10
aI17
aaaF13.465919971466064
asg502
(lp1480
(lp1481
g6
(g10
S'\x1f\x85\xebQ\xb8\x1e\xd5?'
p1482
tp1483
Rp1484
ag6
(g10
S'\n\xd7\xa3p=\n\xd7?'
p1485
tp1486
Rp1487
ag6
(g10
S'\x1f\x85\xebQ\xb8\x1e\xd5?'
p1488
tp1489
Rp1490
ag6
(g10
S'{\x14\xaeG\xe1z\xd4?'
p1491
tp1492
Rp1493
ag6
(g10
S'\x9a\x99\x99\x99\x99\x99\xd9?'
p1494
tp1495
Rp1496
ag6
(g10
S'\x9a\x99\x99\x99\x99\x99\xd9?'
p1497
tp1498
Rp1499
ag6
(g10
S'=\n\xd7\xa3p=\xda?'
p1500
tp1501
Rp1502
ag6
(g10
S'=\n\xd7\xa3p=\xda?'
p1503
tp1504
Rp1505
ag6
(g10
S'\xa4p=\n\xd7\xa3\xd0?'
p1506
tp1507
Rp1508
ag6
(g10
S'333333\xd3?'
p1509
tp1510
Rp1511
ag6
(g10
S'\xaeG\xe1z\x14\xae\xd7?'
p1512
tp1513
Rp1514
ag6
(g10
S'\xaeG\xe1z\x14\xae\xd7?'
p1515
tp1516
Rp1517
ag6
(g10
S'\xaeG\xe1z\x14\xae\xd7?'
p1518
tp1519
Rp1520
ag6
(g10
S'ffffff\xd6?'
p1521
tp1522
Rp1523
ag6
(g10
S'{\x14\xaeG\xe1z\xd4?'
p1524
tp1525
Rp1526
ag6
(g10
S'\x1f\x85\xebQ\xb8\x1e\xd5?'
p1527
tp1528
Rp1529
ag6
(g10
S'R\xb8\x1e\x85\xebQ\xd8?'
p1530
tp1531
Rp1532
ag6
(g10
S'\xe1z\x14\xaeG\xe1\xda?'
p1533
tp1534
Rp1535
ag6
(g10
S'\n\xd7\xa3p=\n\xd7?'
p1536
tp1537
Rp1538
ag6
(g10
S'\n\xd7\xa3p=\n\xd7?'
p1539
tp1540
Rp1541
ag6
(g10
S'\xe1z\x14\xaeG\xe1\xda?'
p1542
tp1543
Rp1544
ag6
(g10
S'\xc3\xf5(\\\x8f\xc2\xd5?'
p1545
tp1546
Rp1547
ag6
(g10
S'R\xb8\x1e\x85\xebQ\xd8?'
p1548
tp1549
Rp1550
ag6
(g10
S'\x9a\x99\x99\x99\x99\x99\xd9?'
p1551
tp1552
Rp1553
ag6
(g10
S'\x9a\x99\x99\x99\x99\x99\xd9?'
p1554
tp1555
Rp1556
ag6
(g10
S'\x1f\x85\xebQ\xb8\x1e\xd5?'
p1557
tp1558
Rp1559
ag6
(g10
S'\x9a\x99\x99\x99\x99\x99\xd9?'
p1560
tp1561
Rp1562
ag6
(g10
S'ffffff\xd6?'
p1563
tp1564
Rp1565
ag6
(g10
S'ffffff\xd6?'
p1566
tp1567
Rp1568
ag6
(g10
S'\xf6(\\\x8f\xc2\xf5\xd8?'
p1569
tp1570
Rp1571
ag6
(g10
S'\xaeG\xe1z\x14\xae\xd7?'
p1572
tp1573
Rp1574
ag6
(g10
S'\xaeG\xe1z\x14\xae\xd7?'
p1575
tp1576
Rp1577
ag6
(g10
S'\xc3\xf5(\\\x8f\xc2\xd5?'
p1578
tp1579
Rp1580
ag6
(g10
S'ffffff\xd6?'
p1581
tp1582
Rp1583
ag6
(g10
S'ffffff\xd6?'
p1584
tp1585
Rp1586
ag6
(g10
S'\x1f\x85\xebQ\xb8\x1e\xd5?'
p1587
tp1588
Rp1589
ag6
(g10
S'\xc3\xf5(\\\x8f\xc2\xd5?'
p1590
tp1591
Rp1592
ag6
(g10
S'\n\xd7\xa3p=\n\xd7?'
p1593
tp1594
Rp1595
ag6
(g10
S'\n\xd7\xa3p=\n\xd7?'
p1596
tp1597
Rp1598
ag6
(g10
S')\\\x8f\xc2\xf5(\xdc?'
p1599
tp1600
Rp1601
ag6
(g10
S'R\xb8\x1e\x85\xebQ\xd8?'
p1602
tp1603
Rp1604
ag6
(g10
S'\xaeG\xe1z\x14\xae\xd7?'
p1605
tp1606
Rp1607
ag6
(g10
S'{\x14\xaeG\xe1z\xd4?'
p1608
tp1609
Rp1610
ag6
(g10
S'\xd7\xa3p=\n\xd7\xd3?'
p1611
tp1612
Rp1613
ag6
(g10
S'R\xb8\x1e\x85\xebQ\xd8?'
p1614
tp1615
Rp1616
ag6
(g10
S'\xc3\xf5(\\\x8f\xc2\xd5?'
p1617
tp1618
Rp1619
ag6
(g10
S'ffffff\xd6?'
p1620
tp1621
Rp1622
ag6
(g10
S'ffffff\xd6?'
p1623
tp1624
Rp1625
ag6
(g10
S'ffffff\xd6?'
p1626
tp1627
Rp1628
ag6
(g10
S'ffffff\xd6?'
p1629
tp1630
Rp1631
ag6
(g10
S'\xaeG\xe1z\x14\xae\xd7?'
p1632
tp1633
Rp1634
ag6
(g10
S'\x1f\x85\xebQ\xb8\x1e\xd5?'
p1635
tp1636
Rp1637
ag6
(g10
S'\x1f\x85\xebQ\xb8\x1e\xd5?'
p1638
tp1639
Rp1640
ag6
(g10
S'\xaeG\xe1z\x14\xae\xd7?'
p1641
tp1642
Rp1643
ag6
(g10
S'\xc3\xf5(\\\x8f\xc2\xd5?'
p1644
tp1645
Rp1646
ag6
(g10
S'\xaeG\xe1z\x14\xae\xd7?'
p1647
tp1648
Rp1649
ag6
(g10
S'ffffff\xd6?'
p1650
tp1651
Rp1652
ag6
(g10
S'\x9a\x99\x99\x99\x99\x99\xd9?'
p1653
tp1654
Rp1655
ag6
(g10
S'\x85\xebQ\xb8\x1e\x85\xdb?'
p1656
tp1657
Rp1658
ag6
(g10
S'R\xb8\x1e\x85\xebQ\xd8?'
p1659
tp1660
Rp1661
aa(lp1662
(lp1663
g444
aF0.6678174841652588
aI15
aI2
aI97
aa(lp1664
g444
aF0.16697731808344662
aI14
aI8
aI31
aa(lp1665
g444
aF0.8204382246830784
aI4
aI5
aI93
aa(lp1666
g441
aF0.6709594596848463
aI5
aI1
aI67
aa(lp1667
g441
aF0.18904165355723224
aI11
aI14
aI71
aa(lp1668
g444
aF0.12587674368312735
aI18
aI19
aI37
aa(lp1669
g441
aF0.10768159006284385
aI12
aI11
aI51
aa(lp1670
g441
aF0.15416899072942497
aI9
aI12
aI22
aa(lp1671
g441
aF0.41593144047844066
aI5
aI2
aI11
aa(lp1672
g444
aF0.17932575554234648
aI16
aI3
aI17
aa(lp1673
g444
aF0.19301961445124138
aI3
aI16
aI44
aa(lp1674
g441
aF0.29299520402761925
aI7
aI8
aI39
aa(lp1675
g444
aF0.24694100401854982
aI23
aI20
aI45
aa(lp1676
g444
aF0.19988790716662963
aI10
aI3
aI51
aa(lp1677
g441
aF0.5915734807357877
aI24
aI1
aI83
aa(lp1678
g444
aF0.8314692843233585
aI12
aI3
aI22
aa(lp1679
g441
aF0.22321146054718072
aI27
aI14
aI84
aa(lp1680
g441
aF0.10769380382262081
aI10
aI12
aI49
aa(lp1681
g444
aF0.2936117942958447
aI26
aI16
aI10
aa(lp1682
g444
aF0.23168554812078965
aI7
aI8
aI10
aa(lp1683
g441
aF0.14025733534330018
aI9
aI19
aI43
aa(lp1684
g444
aF0.9553200118718076
aI28
aI2
aI85
aa(lp1685
g441
aF0.1588997766498822
aI27
aI12
aI92
aa(lp1686
g441
aF0.15322919467894097
aI3
aI17
aI17
aa(lp1687
g444
aF0.22747624615644602
aI10
aI17
aI89
aa(lp1688
g441
aF0.6656793080093462
aI13
aI4
aI84
aa(lp1689
g441
aF0.10375995910833201
aI15
aI15
aI98
aa(lp1690
g441
aF0.26434904398396253
aI24
aI8
aI30
aa(lp1691
g441
aF0.5595735769195005
aI19
aI5
aI25
aa(lp1692
g441
aF0.11754950877184982
aI30
aI6
aI96
aa(lp1693
g441
aF0.20984868489109154
aI4
aI9
aI82
aa(lp1694
g444
aF0.12671645530786269
aI22
aI5
aI40
aa(lp1695
g441
aF0.8104415697140562
aI20
aI17
aI12
aa(lp1696
g444
aF0.9421343386797147
aI19
aI11
aI75
aa(lp1697
g441
aF0.8440320431971767
aI24
aI6
aI88
aa(lp1698
g441
aF0.49484030474823126
aI6
aI3
aI74
aa(lp1699
g441
aF0.627812404143378
aI3
aI5
aI28
aa(lp1700
g441
aF0.7860587018922671
aI26
aI15
aI70
aa(lp1701
g441
aF0.674375306982167
aI4
aI12
aI11
aa(lp1702
g444
aF0.1372806716179114
aI20
aI21
aI11
aa(lp1703
g444
aF0.3932559848622892
aI23
aI21
aI59
aa(lp1704
g441
aF0.6291057774339172
aI4
aI14
aI96
aa(lp1705
g441
aF0.9864843086855755
aI4
aI4
aI91
aa(lp1706
g444
aF0.5745434062868614
aI4
aI4
aI30
aa(lp1707
g441
aF0.2584081007642153
aI17
aI14
aI14
aa(lp1708
g441
aF0.41925308108854253
aI12
aI5
aI24
aa(lp1709
g441
aF0.9983827127609691
aI6
aI9
aI32
aa(lp1710
g441
aF0.37115927150699346
aI21
aI5
aI68
aa(lp1711
g441
aF0.10478745345961825
aI5
aI3
aI70
aa(lp1712
g441
aF0.9612791248668329
aI20
aI10
aI97
aa(lp1713
g441
aF0.2262894529749049
aI8
aI6
aI35
aa(lp1714
g444
aF0.24101615991230987
aI6
aI3
aI42
aa(lp1715
g444
aF0.4524309595704349
aI17
aI18
aI13
aa(lp1716
g441
aF0.2160240030029505
aI18
aI17
aI30
aa(lp1717
g444
aF0.26425229838855147
aI8
aI1
aI51
aa(lp1718
g441
aF0.17098340744416013
aI16
aI18
aI37
aa(lp1719
g441
aF0.9229583017772499
aI3
aI20
aI39
aa(lp1720
g441
aF0.34768443953519657
aI13
aI19
aI65
aa(lp1721
g444
aF0.14697208939675657
aI12
aI19
aI70
aa(lp1722
g441
aF0.6412515207475774
aI29
aI7
aI25
aaaF2647.3376150131226
asg746
(lp1723
(lp1724
g6
(g10
S'\x00\x00\x00\x00\x00\x00\x00\x00'
p1725
tp1726
Rp1727
ag6
(g10
S'\x00\x00\x00\x00\x00\x00\x00\x00'
p1728
tp1729
Rp1730
ag6
(g10
S'\x00\x00\x00\x00\x00\x00\x00\x00'
p1731
tp1732
Rp1733
ag6
(g10
S'\x00\x00\x00\x00\x00\x00\x00\x00'
p1734
tp1735
Rp1736
ag6
(g10
S'\x00\x00\x00\x00\x00\x00\x00\x00'
p1737
tp1738
Rp1739
ag6
(g10
S'\x00\x00\x00\x00\x00\x00\x00\x00'
p1740
tp1741
Rp1742
ag6
(g10
S'\x00\x00\x00\x00\x00\x00\x00\x00'
p1743
tp1744
Rp1745
ag6
(g10
S'\x00\x00\x00\x00\x00\x00\x00\x00'
p1746
tp1747
Rp1748
ag6
(g10
S'\x00\x00\x00\x00\x00\x00\x00\x00'
p1749
tp1750
Rp1751
ag6
(g10
S'\x00\x00\x00\x00\x00\x00\x00\x00'
p1752
tp1753
Rp1754
ag6
(g10
S'\x00\x00\x00\x00\x00\x00\x00\x00'
p1755
tp1756
Rp1757
ag6
(g10
S'\x00\x00\x00\x00\x00\x00\x00\x00'
p1758
tp1759
Rp1760
ag6
(g10
S'\xecQ\xb8\x1e\x85\xeb\xb1?'
p1761
tp1762
Rp1763
ag6
(g10
S'\x00\x00\x00\x00\x00\x00\x00\x00'
p1764
tp1765
Rp1766
ag6
(g10
S'\x9a\x99\x99\x99\x99\x99\xa9?'
p1767
tp1768
Rp1769
ag6
(g10
S'\x00\x00\x00\x00\x00\x00\x00\x00'
p1770
tp1771
Rp1772
ag6
(g10
S'\x00\x00\x00\x00\x00\x00\x00\x00'
p1773
tp1774
Rp1775
ag6
(g10
S'\x00\x00\x00\x00\x00\x00\x00\x00'
p1776
tp1777
Rp1778
ag6
(g10
S'\x00\x00\x00\x00\x00\x00\x00\x00'
p1779
tp1780
Rp1781
ag6
(g10
S'\x00\x00\x00\x00\x00\x00\x00\x00'
p1782
tp1783
Rp1784
ag6
(g10
S'\x9a\x99\x99\x99\x99\x99\xa9?'
p1785
tp1786
Rp1787
ag6
(g10
S'\xb8\x1e\x85\xebQ\xb8\x9e?'
p1788
tp1789
Rp1790
ag6
(g10
S'\xecQ\xb8\x1e\x85\xeb\xb1?'
p1791
tp1792
Rp1793
ag6
(g10
S'\xecQ\xb8\x1e\x85\xeb\xb1?'
p1794
tp1795
Rp1796
ag6
(g10
S'\x00\x00\x00\x00\x00\x00\x00\x00'
p1797
tp1798
Rp1799
ag6
(g10
S'\x00\x00\x00\x00\x00\x00\x00\x00'
p1800
tp1801
Rp1802
ag6
(g10
S'\x00\x00\x00\x00\x00\x00\x00\x00'
p1803
tp1804
Rp1805
ag6
(g10
S'\x00\x00\x00\x00\x00\x00\x00\x00'
p1806
tp1807
Rp1808
ag6
(g10
S'\x00\x00\x00\x00\x00\x00\x00\x00'
p1809
tp1810
Rp1811
ag6
(g10
S'\xecQ\xb8\x1e\x85\xeb\xb1?'
p1812
tp1813
Rp1814
ag6
(g10
S'\x00\x00\x00\x00\x00\x00\x00\x00'
p1815
tp1816
Rp1817
ag6
(g10
S'\x00\x00\x00\x00\x00\x00\x00\x00'
p1818
tp1819
Rp1820
ag6
(g10
S'\x00\x00\x00\x00\x00\x00\x00\x00'
p1821
tp1822
Rp1823
ag6
(g10
S'\x00\x00\x00\x00\x00\x00\x00\x00'
p1824
tp1825
Rp1826
ag6
(g10
S'\x00\x00\x00\x00\x00\x00\x00\x00'
p1827
tp1828
Rp1829
ag6
(g10
S'\x00\x00\x00\x00\x00\x00\x00\x00'
p1830
tp1831
Rp1832
ag6
(g10
S'\x00\x00\x00\x00\x00\x00\x00\x00'
p1833
tp1834
Rp1835
ag6
(g10
S'\xecQ\xb8\x1e\x85\xeb\xb1?'
p1836
tp1837
Rp1838
ag6
(g10
S'\x00\x00\x00\x00\x00\x00\x00\x00'
p1839
tp1840
Rp1841
ag6
(g10
S'\x00\x00\x00\x00\x00\x00\x00\x00'
p1842
tp1843
Rp1844
ag6
(g10
S'\x00\x00\x00\x00\x00\x00\x00\x00'
p1845
tp1846
Rp1847
ag6
(g10
S'\x00\x00\x00\x00\x00\x00\x00\x00'
p1848
tp1849
Rp1850
ag6
(g10
S'\x00\x00\x00\x00\x00\x00\x00\x00'
p1851
tp1852
Rp1853
ag6
(g10
S'\x00\x00\x00\x00\x00\x00\x00\x00'
p1854
tp1855
Rp1856
ag6
(g10
S'\x00\x00\x00\x00\x00\x00\x00\x00'
p1857
tp1858
Rp1859
ag6
(g10
S'\x00\x00\x00\x00\x00\x00\x00\x00'
p1860
tp1861
Rp1862
ag6
(g10
S'\xb8\x1e\x85\xebQ\xb8\xae?'
p1863
tp1864
Rp1865
ag6
(g10
S'\x00\x00\x00\x00\x00\x00\x00\x00'
p1866
tp1867
Rp1868
ag6
(g10
S'\xb8\x1e\x85\xebQ\xb8\x9e?'
p1869
tp1870
Rp1871
ag6
(g10
S'\x00\x00\x00\x00\x00\x00\x00\x00'
p1872
tp1873
Rp1874
ag6
(g10
S'\xecQ\xb8\x1e\x85\xeb\xb1?'
p1875
tp1876
Rp1877
ag6
(g10
S'\x00\x00\x00\x00\x00\x00\x00\x00'
p1878
tp1879
Rp1880
ag6
(g10
S'\x00\x00\x00\x00\x00\x00\x00\x00'
p1881
tp1882
Rp1883
ag6
(g10
S'{\x14\xaeG\xe1z\xa4?'
p1884
tp1885
Rp1886
ag6
(g10
S'\xb8\x1e\x85\xebQ\xb8\xae?'
p1887
tp1888
Rp1889
ag6
(g10
S'\x00\x00\x00\x00\x00\x00\x00\x00'
p1890
tp1891
Rp1892
ag6
(g10
S'\x00\x00\x00\x00\x00\x00\x00\x00'
p1893
tp1894
Rp1895
ag6
(g10
S'{\x14\xaeG\xe1z\xb4?'
p1896
tp1897
Rp1898
ag6
(g10
S'\xecQ\xb8\x1e\x85\xeb\xb1?'
p1899
tp1900
Rp1901
ag6
(g10
S'\x00\x00\x00\x00\x00\x00\x00\x00'
p1902
tp1903
Rp1904
aa(lp1905
(lp1906
I80
ag931
aF0.5180131692313583
aF0.9979545534144105
aa(lp1907
I60
ag931
aF0.7162765554005603
aF0.3486093680064042
aa(lp1908
I66
ag938
aF0.5407843099294192
aF0.8542276585829657
aa(lp1909
I39
ag931
aF0.5197897310979276
aF0.37935117762635606
aa(lp1910
I17
ag938
aF0.1269206388868957
aF0.3674534743257962
aa(lp1911
I90
ag931
aF0.8078672315920014
aF0.4617228679862355
aa(lp1912
I98
ag931
aF0.8465763313197717
aF0.44551838527410825
aa(lp1913
I66
ag931
aF0.18178627165159567
aF0.8892143075368371
aa(lp1914
I52
ag931
aF0.46870998751286186
aF0.3655946104803717
aa(lp1915
I80
ag931
aF0.36814946812923854
aF0.4906908558196026
aa(lp1916
I45
ag938
aF0.2198133556295131
aF0.8963898994958522
aa(lp1917
I23
ag931
aF0.21304979170813726
aF0.38323995603767547
aa(lp1918
I17
ag931
aF0.2676392193886134
aF0.2259132759293759
aa(lp1919
I46
ag931
aF0.973756686791232
aF0.2906952303244279
aa(lp1920
I68
ag931
aF0.7183751981980815
aF0.12710072922191873
aa(lp1921
I51
ag931
aF0.874002380418354
aF0.9716518464125367
aa(lp1922
I23
ag931
aF0.1700602349151307
aF0.44188662710439963
aa(lp1923
I86
ag931
aF0.9154022442575385
aF0.3750567878433665
aa(lp1924
I44
ag931
aF0.46006363649600446
aF0.3481548671694142
aa(lp1925
I18
ag938
aF0.2258621791990736
aF0.22220857523318205
aa(lp1926
I93
ag931
aF0.7144537056141795
aF0.13737813927556516
aa(lp1927
I96
ag931
aF0.31707365923566266
aF0.11007041626360152
aa(lp1928
I88
ag931
aF0.29001831744273027
aF0.33307415404489527
aa(lp1929
I44
ag931
aF0.6763035740701979
aF0.17258429192716096
aa(lp1930
I46
ag938
aF0.8370918937004311
aF0.1574158765196471
aa(lp1931
I28
ag938
aF0.752551384797201
aF0.33570742663578323
aa(lp1932
I7
ag931
aF0.4125574717146385
aF0.23532491544992543
aa(lp1933
I86
ag931
aF0.4842970616162111
aF0.4351725090348154
aa(lp1934
I91
ag938
aF0.3348079786839588
aF0.14039146458403418
aa(lp1935
I27
ag931
aF0.536983544675161
aF0.15910670552376205
aa(lp1936
I44
ag931
aF0.7251987009385543
aF0.40372982840640137
aa(lp1937
I55
ag938
aF0.983329855486715
aF0.40330324085007696
aa(lp1938
I81
ag931
aF0.6694741423117483
aF0.34852159503167357
aa(lp1939
I29
ag931
aF0.3056401591093686
aF0.38376463158526064
aa(lp1940
I60
ag931
aF0.5500640405907359
aF0.3025339865081874
aa(lp1941
I36
ag938
aF0.6545560140106416
aF0.7341323751298534
aa(lp1942
I9
ag931
aF0.8537244292561492
aF0.17663604299418656
aa(lp1943
I22
ag931
aF0.1598490199768106
aF0.18315898615593212
aa(lp1944
I11
ag931
aF0.10322438789488336
aF0.28071301781053626
aa(lp1945
I35
ag938
aF0.5307982407532762
aF0.48771606716570104
aa(lp1946
I17
ag931
aF0.6374028263357608
aF0.26806603365694615
aa(lp1947
I64
ag931
aF0.4927347579506858
aF0.324119996279418
aa(lp1948
I41
ag931
aF0.5072284912316225
aF0.3405236461729853
aa(lp1949
I42
ag931
aF0.853429767833259
aF0.3498659568757124
aa(lp1950
I3
ag931
aF0.3787715058025991
aF0.7679846816120841
aa(lp1951
I42
ag931
aF0.5587099856870288
aF0.3948925973870655
aa(lp1952
I16
ag931
aF0.26591631404522853
aF0.1296156823648422
aa(lp1953
I12
ag931
aF0.8254863683980713
aF0.19635483456157937
aa(lp1954
I88
ag931
aF0.34931261794957863
aF0.11581223276063085
aa(lp1955
I97
ag931
aF0.6668587759039986
aF0.3804688446056178
aa(lp1956
I47
ag931
aF0.15100800434682543
aF0.30740152290884054
aa(lp1957
I40
ag931
aF0.3053107958676914
aF0.40329611731870973
aa(lp1958
I17
ag931
aF0.4997640571932115
aF0.22956356935881067
aa(lp1959
I91
ag931
aF0.41948746367731815
aF0.1242757642843198
aa(lp1960
I40
ag931
aF0.1704363283485016
aF0.17833196698287773
aa(lp1961
I22
ag931
aF0.47911668061268287
aF0.3115592560494206
aa(lp1962
I71
ag931
aF0.31665104726135773
aF0.3759443244496613
aa(lp1963
I85
ag931
aF0.178564526286104
aF0.23487705383189506
aa(lp1964
I47
ag931
aF0.7459599842374786
aF0.2329955735178588
aa(lp1965
I4
ag931
aF0.7244478545177419
aF0.13556491433477588
aaaF80.2887749671936
ass.