(dp0
S'f1'
p1
(dp2
S'KNN'
p3
(lp4
(lp5
cnumpy.core.multiarray
scalar
p6
(cnumpy
dtype
p7
(S'f8'
p8
I0
I1
tp9
Rp10
(I3
S'<'
p11
NNNI-1
I-1
I0
tp12
bS'\n\xd7\xa3p=\n\xd7?'
p13
tp14
Rp15
ag6
(g10
S'\n\xd7\xa3p=\n\xd7?'
p16
tp17
Rp18
ag6
(g10
S'ffffff\xd6?'
p19
tp20
Rp21
ag6
(g10
S'\n\xd7\xa3p=\n\xd7?'
p22
tp23
Rp24
ag6
(g10
S'\x1f\x85\xebQ\xb8\x1e\xd5?'
p25
tp26
Rp27
ag6
(g10
S'\n\xd7\xa3p=\n\xd7?'
p28
tp29
Rp30
ag6
(g10
S'\n\xd7\xa3p=\n\xd7?'
p31
tp32
Rp33
ag6
(g10
S'\xecQ\xb8\x1e\x85\xeb\xd1?'
p34
tp35
Rp36
ag6
(g10
S'ffffff\xd6?'
p37
tp38
Rp39
ag6
(g10
S'\n\xd7\xa3p=\n\xd7?'
p40
tp41
Rp42
ag6
(g10
S'\n\xd7\xa3p=\n\xd7?'
p43
tp44
Rp45
ag6
(g10
S'\n\xd7\xa3p=\n\xd7?'
p46
tp47
Rp48
ag6
(g10
S'\x1f\x85\xebQ\xb8\x1e\xd5?'
p49
tp50
Rp51
ag6
(g10
S'\x1f\x85\xebQ\xb8\x1e\xd5?'
p52
tp53
Rp54
ag6
(g10
S'\x8f\xc2\xf5(\\\x8f\xd2?'
p55
tp56
Rp57
ag6
(g10
S'ffffff\xd6?'
p58
tp59
Rp60
ag6
(g10
S'\n\xd7\xa3p=\n\xd7?'
p61
tp62
Rp63
ag6
(g10
S'\xc3\xf5(\\\x8f\xc2\xd5?'
p64
tp65
Rp66
ag6
(g10
S'\n\xd7\xa3p=\n\xd7?'
p67
tp68
Rp69
ag6
(g10
S'\x1f\x85\xebQ\xb8\x1e\xd5?'
p70
tp71
Rp72
ag6
(g10
S'\n\xd7\xa3p=\n\xd7?'
p73
tp74
Rp75
ag6
(g10
S'333333\xd3?'
p76
tp77
Rp78
ag6
(g10
S'\n\xd7\xa3p=\n\xd7?'
p79
tp80
Rp81
ag6
(g10
S'\x1f\x85\xebQ\xb8\x1e\xd5?'
p82
tp83
Rp84
ag6
(g10
S'\xc3\xf5(\\\x8f\xc2\xd5?'
p85
tp86
Rp87
ag6
(g10
S'\n\xd7\xa3p=\n\xd7?'
p88
tp89
Rp90
ag6
(g10
S'\x8f\xc2\xf5(\\\x8f\xd2?'
p91
tp92
Rp93
ag6
(g10
S'\n\xd7\xa3p=\n\xd7?'
p94
tp95
Rp96
ag6
(g10
S'\xc3\xf5(\\\x8f\xc2\xd5?'
p97
tp98
Rp99
ag6
(g10
S'\x1f\x85\xebQ\xb8\x1e\xd5?'
p100
tp101
Rp102
ag6
(g10
S'\xc3\xf5(\\\x8f\xc2\xd5?'
p103
tp104
Rp105
ag6
(g10
S'\x8f\xc2\xf5(\\\x8f\xd2?'
p106
tp107
Rp108
ag6
(g10
S'333333\xd3?'
p109
tp110
Rp111
ag6
(g10
S'\n\xd7\xa3p=\n\xd7?'
p112
tp113
Rp114
ag6
(g10
S'\n\xd7\xa3p=\n\xd7?'
p115
tp116
Rp117
ag6
(g10
S'ffffff\xd6?'
p118
tp119
Rp120
ag6
(g10
S'\n\xd7\xa3p=\n\xd7?'
p121
tp122
Rp123
ag6
(g10
S'\n\xd7\xa3p=\n\xd7?'
p124
tp125
Rp126
ag6
(g10
S'\xc3\xf5(\\\x8f\xc2\xd5?'
p127
tp128
Rp129
ag6
(g10
S'\n\xd7\xa3p=\n\xd7?'
p130
tp131
Rp132
ag6
(g10
S'ffffff\xd6?'
p133
tp134
Rp135
ag6
(g10
S'\x1f\x85\xebQ\xb8\x1e\xd5?'
p136
tp137
Rp138
ag6
(g10
S'333333\xd3?'
p139
tp140
Rp141
ag6
(g10
S'ffffff\xd6?'
p142
tp143
Rp144
ag6
(g10
S'333333\xd3?'
p145
tp146
Rp147
ag6
(g10
S'\n\xd7\xa3p=\n\xd7?'
p148
tp149
Rp150
ag6
(g10
S'\x1f\x85\xebQ\xb8\x1e\xd5?'
p151
tp152
Rp153
ag6
(g10
S'333333\xd3?'
p154
tp155
Rp156
ag6
(g10
S'\n\xd7\xa3p=\n\xd7?'
p157
tp158
Rp159
ag6
(g10
S'\xc3\xf5(\\\x8f\xc2\xd5?'
p160
tp161
Rp162
ag6
(g10
S'\n\xd7\xa3p=\n\xd7?'
p163
tp164
Rp165
ag6
(g10
S'\n\xd7\xa3p=\n\xd7?'
p166
tp167
Rp168
ag6
(g10
S'\n\xd7\xa3p=\n\xd7?'
p169
tp170
Rp171
ag6
(g10
S'333333\xd3?'
p172
tp173
Rp174
ag6
(g10
S'\n\xd7\xa3p=\n\xd7?'
p175
tp176
Rp177
ag6
(g10
S'ffffff\xd6?'
p178
tp179
Rp180
ag6
(g10
S'\n\xd7\xa3p=\n\xd7?'
p181
tp182
Rp183
ag6
(g10
S'\n\xd7\xa3p=\n\xd7?'
p184
tp185
Rp186
ag6
(g10
S'\xecQ\xb8\x1e\x85\xeb\xd1?'
p187
tp188
Rp189
ag6
(g10
S'\x1f\x85\xebQ\xb8\x1e\xd5?'
p190
tp191
Rp192
aa(lp193
(lp194
I2
aS'distance'
p195
aa(lp196
I2
ag195
aa(lp197
I6
ag195
aa(lp198
I2
ag195
aa(lp199
I3
ag195
aa(lp200
I2
ag195
aa(lp201
I2
ag195
aa(lp202
I9
aS'uniform'
p203
aa(lp204
I8
ag195
aa(lp205
I2
ag195
aa(lp206
I2
ag195
aa(lp207
I2
ag195
aa(lp208
I3
ag195
aa(lp209
I3
ag195
aa(lp210
I5
ag203
aa(lp211
I6
ag195
aa(lp212
I2
ag195
aa(lp213
I10
ag195
aa(lp214
I2
ag195
aa(lp215
I3
ag195
aa(lp216
I2
ag195
aa(lp217
I3
ag203
aa(lp218
I2
ag195
aa(lp219
I5
ag195
aa(lp220
I4
ag195
aa(lp221
I2
ag195
aa(lp222
I5
ag203
aa(lp223
I2
ag195
aa(lp224
I4
ag195
aa(lp225
I3
ag195
aa(lp226
I4
ag195
aa(lp227
I5
ag203
aa(lp228
I3
ag203
aa(lp229
I2
ag195
aa(lp230
I2
ag195
aa(lp231
I6
ag195
aa(lp232
I2
ag195
aa(lp233
I2
ag195
aa(lp234
I4
ag195
aa(lp235
I2
ag195
aa(lp236
I6
ag195
aa(lp237
I3
ag195
aa(lp238
I3
ag203
aa(lp239
I6
ag195
aa(lp240
I3
ag203
aa(lp241
I2
ag195
aa(lp242
I5
ag195
aa(lp243
I3
ag203
aa(lp244
I2
ag195
aa(lp245
I4
ag195
aa(lp246
I2
ag195
aa(lp247
I2
ag195
aa(lp248
I2
ag195
aa(lp249
I3
ag203
aa(lp250
I2
ag195
aa(lp251
I6
ag195
aa(lp252
I2
ag195
aa(lp253
I2
ag195
aa(lp254
I9
ag203
aa(lp255
I3
ag195
aaaF8.03080677986145
asS'DTC'
p256
(lp257
(lp258
g6
(g10
S'ffffff\xd6?'
p259
tp260
Rp261
ag6
(g10
S'\xc3\xf5(\\\x8f\xc2\xd5?'
p262
tp263
Rp264
ag6
(g10
S'\xaeG\xe1z\x14\xae\xd7?'
p265
tp266
Rp267
ag6
(g10
S'\xaeG\xe1z\x14\xae\xd7?'
p268
tp269
Rp270
ag6
(g10
S'\xd7\xa3p=\n\xd7\xd3?'
p271
tp272
Rp273
ag6
(g10
S'{\x14\xaeG\xe1z\xd4?'
p274
tp275
Rp276
ag6
(g10
S'\xd7\xa3p=\n\xd7\xd3?'
p277
tp278
Rp279
ag6
(g10
S'\x8f\xc2\xf5(\\\x8f\xd2?'
p280
tp281
Rp282
ag6
(g10
S'\x1f\x85\xebQ\xb8\x1e\xd5?'
p283
tp284
Rp285
ag6
(g10
S'333333\xd3?'
p286
tp287
Rp288
ag6
(g10
S'\xc3\xf5(\\\x8f\xc2\xd5?'
p289
tp290
Rp291
ag6
(g10
S'333333\xd3?'
p292
tp293
Rp294
ag6
(g10
S'\xc3\xf5(\\\x8f\xc2\xd5?'
p295
tp296
Rp297
ag6
(g10
S'333333\xd3?'
p298
tp299
Rp300
ag6
(g10
S'\xaeG\xe1z\x14\xae\xd7?'
p301
tp302
Rp303
ag6
(g10
S'\x1f\x85\xebQ\xb8\x1e\xd5?'
p304
tp305
Rp306
ag6
(g10
S'\xaeG\xe1z\x14\xae\xd7?'
p307
tp308
Rp309
ag6
(g10
S'{\x14\xaeG\xe1z\xd4?'
p310
tp311
Rp312
ag6
(g10
S'333333\xd3?'
p313
tp314
Rp315
ag6
(g10
S'\x8f\xc2\xf5(\\\x8f\xd2?'
p316
tp317
Rp318
ag6
(g10
S'\n\xd7\xa3p=\n\xd7?'
p319
tp320
Rp321
ag6
(g10
S'\xc3\xf5(\\\x8f\xc2\xd5?'
p322
tp323
Rp324
ag6
(g10
S'\xecQ\xb8\x1e\x85\xeb\xd1?'
p325
tp326
Rp327
ag6
(g10
S'ffffff\xd6?'
p328
tp329
Rp330
ag6
(g10
S'H\xe1z\x14\xaeG\xd1?'
p331
tp332
Rp333
ag6
(g10
S'ffffff\xd6?'
p334
tp335
Rp336
ag6
(g10
S'{\x14\xaeG\xe1z\xd4?'
p337
tp338
Rp339
ag6
(g10
S'\xc3\xf5(\\\x8f\xc2\xd5?'
p340
tp341
Rp342
ag6
(g10
S'\x8f\xc2\xf5(\\\x8f\xd2?'
p343
tp344
Rp345
ag6
(g10
S'{\x14\xaeG\xe1z\xd4?'
p346
tp347
Rp348
ag6
(g10
S'\x1f\x85\xebQ\xb8\x1e\xd5?'
p349
tp350
Rp351
ag6
(g10
S'\x1f\x85\xebQ\xb8\x1e\xd5?'
p352
tp353
Rp354
ag6
(g10
S'\xecQ\xb8\x1e\x85\xeb\xd1?'
p355
tp356
Rp357
ag6
(g10
S'\x8f\xc2\xf5(\\\x8f\xd2?'
p358
tp359
Rp360
ag6
(g10
S'333333\xd3?'
p361
tp362
Rp363
ag6
(g10
S'\xc3\xf5(\\\x8f\xc2\xd5?'
p364
tp365
Rp366
ag6
(g10
S'{\x14\xaeG\xe1z\xd4?'
p367
tp368
Rp369
ag6
(g10
S'\xc3\xf5(\\\x8f\xc2\xd5?'
p370
tp371
Rp372
ag6
(g10
S'ffffff\xd6?'
p373
tp374
Rp375
ag6
(g10
S'\xc3\xf5(\\\x8f\xc2\xd5?'
p376
tp377
Rp378
ag6
(g10
S'{\x14\xaeG\xe1z\xd4?'
p379
tp380
Rp381
ag6
(g10
S'\xd7\xa3p=\n\xd7\xd3?'
p382
tp383
Rp384
ag6
(g10
S'ffffff\xd6?'
p385
tp386
Rp387
ag6
(g10
S'\xaeG\xe1z\x14\xae\xd7?'
p388
tp389
Rp390
ag6
(g10
S'{\x14\xaeG\xe1z\xd4?'
p391
tp392
Rp393
ag6
(g10
S'{\x14\xaeG\xe1z\xd4?'
p394
tp395
Rp396
ag6
(g10
S'\x1f\x85\xebQ\xb8\x1e\xd5?'
p397
tp398
Rp399
ag6
(g10
S'\x9a\x99\x99\x99\x99\x99\xd9?'
p400
tp401
Rp402
ag6
(g10
S'ffffff\xd6?'
p403
tp404
Rp405
ag6
(g10
S'\x1f\x85\xebQ\xb8\x1e\xd5?'
p406
tp407
Rp408
ag6
(g10
S'\x1f\x85\xebQ\xb8\x1e\xd5?'
p409
tp410
Rp411
ag6
(g10
S'\xc3\xf5(\\\x8f\xc2\xd5?'
p412
tp413
Rp414
ag6
(g10
S'\xb8\x1e\x85\xebQ\xb8\xce?'
p415
tp416
Rp417
ag6
(g10
S'\n\xd7\xa3p=\n\xd7?'
p418
tp419
Rp420
ag6
(g10
S'\n\xd7\xa3p=\n\xd7?'
p421
tp422
Rp423
ag6
(g10
S'\xc3\xf5(\\\x8f\xc2\xd5?'
p424
tp425
Rp426
ag6
(g10
S'\n\xd7\xa3p=\n\xd7?'
p427
tp428
Rp429
ag6
(g10
S'\x1f\x85\xebQ\xb8\x1e\xd5?'
p430
tp431
Rp432
ag6
(g10
S'\xc3\xf5(\\\x8f\xc2\xd5?'
p433
tp434
Rp435
ag6
(g10
S'\n\xd7\xa3p=\n\xd7?'
p436
tp437
Rp438
aa(lp439
(lp440
S'entropy'
p441
aF0.7836182523792646
aI24
aI18
aI15
aa(lp442
g441
aF0.6953370943882763
aI7
aI9
aI20
aa(lp443
g441
aF0.9263478692729747
aI11
aI9
aI21
aa(lp444
g441
aF0.8947380608556382
aI18
aI4
aI17
aa(lp445
S'gini'
p446
aF0.3087524968740323
aI5
aI19
aI16
aa(lp447
g446
aF0.4989900632785853
aI11
aI6
aI18
aa(lp448
g441
aF0.9245901422807843
aI30
aI1
aI19
aa(lp449
g446
aF0.17966999723973104
aI20
aI2
aI19
aa(lp450
g446
aF0.7786443019558303
aI11
aI3
aI16
aa(lp451
g441
aF0.3110633555346983
aI23
aI4
aI13
aa(lp452
g446
aF0.14355114036890934
aI21
aI5
aI19
aa(lp453
g441
aF0.6923506445587467
aI30
aI14
aI16
aa(lp454
g441
aF0.86381263006541
aI17
aI14
aI19
aa(lp455
g441
aF0.48135166820659336
aI11
aI20
aI19
aa(lp456
g441
aF0.2506570693320497
aI4
aI13
aI20
aa(lp457
g446
aF0.6684182184187234
aI19
aI13
aI20
aa(lp458
g441
aF0.11290236619483895
aI25
aI5
aI21
aa(lp459
g446
aF0.41349496263522667
aI13
aI17
aI9
aa(lp460
g446
aF0.7523044640228758
aI24
aI3
aI12
aa(lp461
g446
aF0.256643785558946
aI11
aI20
aI11
aa(lp462
g446
aF0.1281113461674515
aI9
aI13
aI15
aa(lp463
g446
aF0.6971981917722097
aI4
aI4
aI21
aa(lp464
g441
aF0.21298619740600155
aI29
aI7
aI14
aa(lp465
g446
aF0.7865141161989833
aI22
aI12
aI20
aa(lp466
g446
aF0.40751189051599424
aI24
aI11
aI10
aa(lp467
g441
aF0.482626450918627
aI22
aI4
aI16
aa(lp468
g446
aF0.6888150113759555
aI30
aI18
aI20
aa(lp469
g446
aF0.859868575607233
aI3
aI12
aI15
aa(lp470
g446
aF0.2094767274915328
aI6
aI18
aI21
aa(lp471
g441
aF0.8496682496312516
aI9
aI13
aI16
aa(lp472
g441
aF0.8858516309559803
aI19
aI8
aI20
aa(lp473
g441
aF0.978856642426888
aI26
aI9
aI16
aa(lp474
g441
aF0.8735075278631929
aI13
aI1
aI14
aa(lp475
g441
aF0.6692939424459071
aI17
aI16
aI18
aa(lp476
g446
aF0.6688869309395509
aI23
aI2
aI21
aa(lp477
g446
aF0.7190191742356643
aI13
aI4
aI16
aa(lp478
g446
aF0.6971607691560098
aI29
aI11
aI18
aa(lp479
g446
aF0.7745629722838921
aI3
aI4
aI14
aa(lp480
g446
aF0.9051703362227094
aI2
aI8
aI15
aa(lp481
g446
aF0.8597346029766922
aI16
aI4
aI13
aa(lp482
g446
aF0.2352344275837028
aI22
aI9
aI13
aa(lp483
g441
aF0.9783300958247505
aI2
aI16
aI12
aa(lp484
g446
aF0.903667138493762
aI14
aI13
aI21
aa(lp485
g446
aF0.1863189320092577
aI17
aI15
aI11
aa(lp486
g446
aF0.7200534326867493
aI4
aI9
aI13
aa(lp487
g446
aF0.8306799613908848
aI21
aI15
aI20
aa(lp488
g446
aF0.8752998855680868
aI18
aI14
aI15
aa(lp489
g441
aF0.6250956846624441
aI17
aI7
aI19
aa(lp490
g446
aF0.5819532759499173
aI26
aI3
aI21
aa(lp491
g441
aF0.8698897296551646
aI28
aI9
aI15
aa(lp492
g441
aF0.3077634876358798
aI24
aI7
aI15
aa(lp493
g446
aF0.42274687287106627
aI4
aI4
aI15
aa(lp494
g446
aF0.7128229213285097
aI9
aI4
aI9
aa(lp495
g446
aF0.9677516918284339
aI12
aI2
aI19
aa(lp496
g441
aF0.8025530685819835
aI9
aI1
aI15
aa(lp497
g446
aF0.582555130571283
aI22
aI2
aI18
aa(lp498
g441
aF0.37472440708035226
aI15
aI2
aI18
aa(lp499
g446
aF0.724404890793366
aI7
aI3
aI14
aa(lp500
g446
aF0.9556470840672433
aI8
aI8
aI12
aa(lp501
g446
aF0.28970305807476887
aI16
aI3
aI20
aaaF6.2610509395599365
asS'RF'
p502
(lp503
(lp504
g6
(g10
S'\xaeG\xe1z\x14\xae\xd7?'
p505
tp506
Rp507
ag6
(g10
S'\xf6(\\\x8f\xc2\xf5\xd8?'
p508
tp509
Rp510
ag6
(g10
S'\x1f\x85\xebQ\xb8\x1e\xd5?'
p511
tp512
Rp513
ag6
(g10
S'\xaeG\xe1z\x14\xae\xd7?'
p514
tp515
Rp516
ag6
(g10
S'\x1f\x85\xebQ\xb8\x1e\xd5?'
p517
tp518
Rp519
ag6
(g10
S'ffffff\xd6?'
p520
tp521
Rp522
ag6
(g10
S'\xaeG\xe1z\x14\xae\xd7?'
p523
tp524
Rp525
ag6
(g10
S'{\x14\xaeG\xe1z\xd4?'
p526
tp527
Rp528
ag6
(g10
S'\xc3\xf5(\\\x8f\xc2\xd5?'
p529
tp530
Rp531
ag6
(g10
S'ffffff\xd6?'
p532
tp533
Rp534
ag6
(g10
S'\x9a\x99\x99\x99\x99\x99\xd9?'
p535
tp536
Rp537
ag6
(g10
S'ffffff\xd6?'
p538
tp539
Rp540
ag6
(g10
S'ffffff\xd6?'
p541
tp542
Rp543
ag6
(g10
S'\n\xd7\xa3p=\n\xd7?'
p544
tp545
Rp546
ag6
(g10
S'\n\xd7\xa3p=\n\xd7?'
p547
tp548
Rp549
ag6
(g10
S'ffffff\xd6?'
p550
tp551
Rp552
ag6
(g10
S'R\xb8\x1e\x85\xebQ\xd8?'
p553
tp554
Rp555
ag6
(g10
S'ffffff\xd6?'
p556
tp557
Rp558
ag6
(g10
S'\n\xd7\xa3p=\n\xd7?'
p559
tp560
Rp561
ag6
(g10
S'R\xb8\x1e\x85\xebQ\xd8?'
p562
tp563
Rp564
ag6
(g10
S'\xaeG\xe1z\x14\xae\xd7?'
p565
tp566
Rp567
ag6
(g10
S'\xc3\xf5(\\\x8f\xc2\xd5?'
p568
tp569
Rp570
ag6
(g10
S'\xc3\xf5(\\\x8f\xc2\xd5?'
p571
tp572
Rp573
ag6
(g10
S'ffffff\xd6?'
p574
tp575
Rp576
ag6
(g10
S'\xc3\xf5(\\\x8f\xc2\xd5?'
p577
tp578
Rp579
ag6
(g10
S'\xaeG\xe1z\x14\xae\xd7?'
p580
tp581
Rp582
ag6
(g10
S'\n\xd7\xa3p=\n\xd7?'
p583
tp584
Rp585
ag6
(g10
S'\n\xd7\xa3p=\n\xd7?'
p586
tp587
Rp588
ag6
(g10
S'\xf6(\\\x8f\xc2\xf5\xd8?'
p589
tp590
Rp591
ag6
(g10
S'{\x14\xaeG\xe1z\xd4?'
p592
tp593
Rp594
ag6
(g10
S'ffffff\xd6?'
p595
tp596
Rp597
ag6
(g10
S'\n\xd7\xa3p=\n\xd7?'
p598
tp599
Rp600
ag6
(g10
S'\n\xd7\xa3p=\n\xd7?'
p601
tp602
Rp603
ag6
(g10
S'{\x14\xaeG\xe1z\xd4?'
p604
tp605
Rp606
ag6
(g10
S'\xaeG\xe1z\x14\xae\xd7?'
p607
tp608
Rp609
ag6
(g10
S'\xc3\xf5(\\\x8f\xc2\xd5?'
p610
tp611
Rp612
ag6
(g10
S'\xf6(\\\x8f\xc2\xf5\xd8?'
p613
tp614
Rp615
ag6
(g10
S'\x9a\x99\x99\x99\x99\x99\xd9?'
p616
tp617
Rp618
ag6
(g10
S'\xaeG\xe1z\x14\xae\xd7?'
p619
tp620
Rp621
ag6
(g10
S'\x1f\x85\xebQ\xb8\x1e\xd5?'
p622
tp623
Rp624
ag6
(g10
S'ffffff\xd6?'
p625
tp626
Rp627
ag6
(g10
S'\n\xd7\xa3p=\n\xd7?'
p628
tp629
Rp630
ag6
(g10
S'{\x14\xaeG\xe1z\xd4?'
p631
tp632
Rp633
ag6
(g10
S'R\xb8\x1e\x85\xebQ\xd8?'
p634
tp635
Rp636
ag6
(g10
S'\xc3\xf5(\\\x8f\xc2\xd5?'
p637
tp638
Rp639
ag6
(g10
S'\xaeG\xe1z\x14\xae\xd7?'
p640
tp641
Rp642
ag6
(g10
S'R\xb8\x1e\x85\xebQ\xd8?'
p643
tp644
Rp645
ag6
(g10
S'\xc3\xf5(\\\x8f\xc2\xd5?'
p646
tp647
Rp648
ag6
(g10
S'{\x14\xaeG\xe1z\xd4?'
p649
tp650
Rp651
ag6
(g10
S'R\xb8\x1e\x85\xebQ\xd8?'
p652
tp653
Rp654
ag6
(g10
S'\xaeG\xe1z\x14\xae\xd7?'
p655
tp656
Rp657
ag6
(g10
S'ffffff\xd6?'
p658
tp659
Rp660
ag6
(g10
S'\n\xd7\xa3p=\n\xd7?'
p661
tp662
Rp663
ag6
(g10
S'{\x14\xaeG\xe1z\xd4?'
p664
tp665
Rp666
ag6
(g10
S'R\xb8\x1e\x85\xebQ\xd8?'
p667
tp668
Rp669
ag6
(g10
S'ffffff\xd6?'
p670
tp671
Rp672
ag6
(g10
S'\x9a\x99\x99\x99\x99\x99\xd9?'
p673
tp674
Rp675
ag6
(g10
S'\x1f\x85\xebQ\xb8\x1e\xd5?'
p676
tp677
Rp678
ag6
(g10
S'\x1f\x85\xebQ\xb8\x1e\xd5?'
p679
tp680
Rp681
ag6
(g10
S'\xaeG\xe1z\x14\xae\xd7?'
p682
tp683
Rp684
aa(lp685
(lp686
g446
aF0.7217419739925287
aI4
aI2
aI16
aa(lp687
g446
aF0.8828537164445506
aI3
aI1
aI65
aa(lp688
g446
aF0.893851318721138
aI19
aI4
aI98
aa(lp689
g441
aF0.7865447982609428
aI14
aI1
aI45
aa(lp690
g441
aF0.5886467700607085
aI19
aI4
aI10
aa(lp691
g446
aF0.5891749689144917
aI14
aI2
aI98
aa(lp692
g446
aF0.37424053649380384
aI3
aI5
aI95
aa(lp693
g446
aF0.5625987921708359
aI23
aI3
aI95
aa(lp694
g446
aF0.8504296158024278
aI6
aI5
aI41
aa(lp695
g441
aF0.7688572067099071
aI5
aI5
aI99
aa(lp696
g441
aF0.1907964801057211
aI6
aI1
aI71
aa(lp697
g446
aF0.8410617456913995
aI10
aI7
aI18
aa(lp698
g446
aF0.7618120320482245
aI27
aI1
aI11
aa(lp699
g446
aF0.44999711187123115
aI8
aI1
aI14
aa(lp700
g441
aF0.7128399894026145
aI12
aI2
aI86
aa(lp701
g446
aF0.8544474775521735
aI13
aI7
aI80
aa(lp702
g441
aF0.9456823164609862
aI2
aI3
aI20
aa(lp703
g441
aF0.7425113436422363
aI16
aI3
aI31
aa(lp704
g446
aF0.910888021281802
aI8
aI1
aI49
aa(lp705
g446
aF0.6163159362965744
aI7
aI1
aI85
aa(lp706
g446
aF0.8395537601251762
aI3
aI1
aI53
aa(lp707
g446
aF0.9908384526290777
aI6
aI5
aI36
aa(lp708
g446
aF0.6811854417919975
aI18
aI2
aI34
aa(lp709
g441
aF0.6921776477169493
aI19
aI2
aI53
aa(lp710
g446
aF0.7828439270293274
aI20
aI3
aI94
aa(lp711
g446
aF0.5693703057481052
aI3
aI1
aI100
aa(lp712
g446
aF0.6084123563221459
aI9
aI4
aI70
aa(lp713
g441
aF0.9248141288613786
aI12
aI2
aI11
aa(lp714
g441
aF0.9909452121581335
aI7
aI1
aI96
aa(lp715
g446
aF0.5880976164452405
aI27
aI3
aI55
aa(lp716
g441
aF0.7129981445185846
aI9
aI4
aI81
aa(lp717
g446
aF0.42942131942861705
aI15
aI3
aI60
aa(lp718
g446
aF0.9109773484038591
aI14
aI2
aI37
aa(lp719
g446
aF0.6122370603809374
aI28
aI2
aI14
aa(lp720
g441
aF0.8150629220393258
aI4
aI2
aI48
aa(lp721
g446
aF0.49589384949569126
aI23
aI6
aI17
aa(lp722
g441
aF0.9152732440328847
aI9
aI2
aI93
aa(lp723
g446
aF0.8815341863145173
aI3
aI2
aI26
aa(lp724
g446
aF0.9458507457333492
aI4
aI4
aI67
aa(lp725
g446
aF0.763895123259243
aI29
aI4
aI52
aa(lp726
g446
aF0.5407756982117039
aI4
aI3
aI28
aa(lp727
g446
aF0.5012918419113468
aI7
aI2
aI91
aa(lp728
g446
aF0.9765930187405796
aI16
aI5
aI46
aa(lp729
g446
aF0.6382176911353958
aI7
aI2
aI97
aa(lp730
g441
aF0.7068972051960145
aI30
aI3
aI82
aa(lp731
g441
aF0.6166672816927146
aI12
aI1
aI49
aa(lp732
g446
aF0.8665575346759268
aI15
aI1
aI10
aa(lp733
g446
aF0.9046953624326204
aI28
aI1
aI45
aa(lp734
g441
aF0.8539751450652528
aI23
aI18
aI10
aa(lp735
g441
aF0.8445248946395177
aI7
aI1
aI13
aa(lp736
g446
aF0.9119591635108641
aI12
aI2
aI60
aa(lp737
g446
aF0.4403921188416756
aI9
aI4
aI31
aa(lp738
g446
aF0.8627988139189215
aI6
aI1
aI61
aa(lp739
g441
aF0.8669826986173297
aI23
aI3
aI38
aa(lp740
g446
aF0.8840810404790465
aI8
aI1
aI80
aa(lp741
g441
aF0.49604138187845526
aI10
aI5
aI26
aa(lp742
g441
aF0.7442799653600416
aI2
aI3
aI12
aa(lp743
g441
aF0.7662262092466975
aI21
aI2
aI48
aa(lp744
g446
aF0.6457635876080484
aI12
aI3
aI42
aa(lp745
g441
aF0.7553668716542784
aI12
aI3
aI39
aaaF1301.0048460960388
asS'SVM'
p746
(lp747
(lp748
g6
(g10
S'\x8f\xc2\xf5(\\\x8f\xd2?'
p749
tp750
Rp751
ag6
(g10
S'\xecQ\xb8\x1e\x85\xeb\xd1?'
p752
tp753
Rp754
ag6
(g10
S'\x8f\xc2\xf5(\\\x8f\xd2?'
p755
tp756
Rp757
ag6
(g10
S'\x8f\xc2\xf5(\\\x8f\xd2?'
p758
tp759
Rp760
ag6
(g10
S'H\xe1z\x14\xaeG\xd1?'
p761
tp762
Rp763
ag6
(g10
S'\x8f\xc2\xf5(\\\x8f\xd2?'
p764
tp765
Rp766
ag6
(g10
S'\x8f\xc2\xf5(\\\x8f\xd2?'
p767
tp768
Rp769
ag6
(g10
S'H\xe1z\x14\xaeG\xd1?'
p770
tp771
Rp772
ag6
(g10
S'\x8f\xc2\xf5(\\\x8f\xd2?'
p773
tp774
Rp775
ag6
(g10
S'\x8f\xc2\xf5(\\\x8f\xd2?'
p776
tp777
Rp778
ag6
(g10
S'\x8f\xc2\xf5(\\\x8f\xd2?'
p779
tp780
Rp781
ag6
(g10
S'\x8f\xc2\xf5(\\\x8f\xd2?'
p782
tp783
Rp784
ag6
(g10
S'\x8f\xc2\xf5(\\\x8f\xd2?'
p785
tp786
Rp787
ag6
(g10
S'\x8f\xc2\xf5(\\\x8f\xd2?'
p788
tp789
Rp790
ag6
(g10
S'\x8f\xc2\xf5(\\\x8f\xd2?'
p791
tp792
Rp793
ag6
(g10
S'\x8f\xc2\xf5(\\\x8f\xd2?'
p794
tp795
Rp796
ag6
(g10
S'\xecQ\xb8\x1e\x85\xeb\xd1?'
p797
tp798
Rp799
ag6
(g10
S'\x8f\xc2\xf5(\\\x8f\xd2?'
p800
tp801
Rp802
ag6
(g10
S'\x8f\xc2\xf5(\\\x8f\xd2?'
p803
tp804
Rp805
ag6
(g10
S'\x8f\xc2\xf5(\\\x8f\xd2?'
p806
tp807
Rp808
ag6
(g10
S'\x8f\xc2\xf5(\\\x8f\xd2?'
p809
tp810
Rp811
ag6
(g10
S'\x8f\xc2\xf5(\\\x8f\xd2?'
p812
tp813
Rp814
ag6
(g10
S'\x8f\xc2\xf5(\\\x8f\xd2?'
p815
tp816
Rp817
ag6
(g10
S'\x8f\xc2\xf5(\\\x8f\xd2?'
p818
tp819
Rp820
ag6
(g10
S'\x8f\xc2\xf5(\\\x8f\xd2?'
p821
tp822
Rp823
ag6
(g10
S'\x8f\xc2\xf5(\\\x8f\xd2?'
p824
tp825
Rp826
ag6
(g10
S'\x8f\xc2\xf5(\\\x8f\xd2?'
p827
tp828
Rp829
ag6
(g10
S'\x8f\xc2\xf5(\\\x8f\xd2?'
p830
tp831
Rp832
ag6
(g10
S'\x8f\xc2\xf5(\\\x8f\xd2?'
p833
tp834
Rp835
ag6
(g10
S'\x8f\xc2\xf5(\\\x8f\xd2?'
p836
tp837
Rp838
ag6
(g10
S'\x8f\xc2\xf5(\\\x8f\xd2?'
p839
tp840
Rp841
ag6
(g10
S'\x8f\xc2\xf5(\\\x8f\xd2?'
p842
tp843
Rp844
ag6
(g10
S'\x8f\xc2\xf5(\\\x8f\xd2?'
p845
tp846
Rp847
ag6
(g10
S'\x8f\xc2\xf5(\\\x8f\xd2?'
p848
tp849
Rp850
ag6
(g10
S'\x8f\xc2\xf5(\\\x8f\xd2?'
p851
tp852
Rp853
ag6
(g10
S'\x8f\xc2\xf5(\\\x8f\xd2?'
p854
tp855
Rp856
ag6
(g10
S'\x8f\xc2\xf5(\\\x8f\xd2?'
p857
tp858
Rp859
ag6
(g10
S'\x8f\xc2\xf5(\\\x8f\xd2?'
p860
tp861
Rp862
ag6
(g10
S'\xecQ\xb8\x1e\x85\xeb\xd1?'
p863
tp864
Rp865
ag6
(g10
S'\x8f\xc2\xf5(\\\x8f\xd2?'
p866
tp867
Rp868
ag6
(g10
S'\x8f\xc2\xf5(\\\x8f\xd2?'
p869
tp870
Rp871
ag6
(g10
S'\x8f\xc2\xf5(\\\x8f\xd2?'
p872
tp873
Rp874
ag6
(g10
S'\x8f\xc2\xf5(\\\x8f\xd2?'
p875
tp876
Rp877
ag6
(g10
S'\x8f\xc2\xf5(\\\x8f\xd2?'
p878
tp879
Rp880
ag6
(g10
S'\x8f\xc2\xf5(\\\x8f\xd2?'
p881
tp882
Rp883
ag6
(g10
S'\x8f\xc2\xf5(\\\x8f\xd2?'
p884
tp885
Rp886
ag6
(g10
S'\x8f\xc2\xf5(\\\x8f\xd2?'
p887
tp888
Rp889
ag6
(g10
S'\x8f\xc2\xf5(\\\x8f\xd2?'
p890
tp891
Rp892
ag6
(g10
S'\x8f\xc2\xf5(\\\x8f\xd2?'
p893
tp894
Rp895
ag6
(g10
S'\x8f\xc2\xf5(\\\x8f\xd2?'
p896
tp897
Rp898
ag6
(g10
S'\x8f\xc2\xf5(\\\x8f\xd2?'
p899
tp900
Rp901
ag6
(g10
S'\x8f\xc2\xf5(\\\x8f\xd2?'
p902
tp903
Rp904
ag6
(g10
S'\x8f\xc2\xf5(\\\x8f\xd2?'
p905
tp906
Rp907
ag6
(g10
S'\x8f\xc2\xf5(\\\x8f\xd2?'
p908
tp909
Rp910
ag6
(g10
S'\x8f\xc2\xf5(\\\x8f\xd2?'
p911
tp912
Rp913
ag6
(g10
S'\x8f\xc2\xf5(\\\x8f\xd2?'
p914
tp915
Rp916
ag6
(g10
S'\x8f\xc2\xf5(\\\x8f\xd2?'
p917
tp918
Rp919
ag6
(g10
S'\x8f\xc2\xf5(\\\x8f\xd2?'
p920
tp921
Rp922
ag6
(g10
S'\x8f\xc2\xf5(\\\x8f\xd2?'
p923
tp924
Rp925
ag6
(g10
S'\x8f\xc2\xf5(\\\x8f\xd2?'
p926
tp927
Rp928
aa(lp929
(lp930
I92
aS'sigmoid'
p931
aF0.5861155139780583
aF0.3275510697617291
aa(lp932
I56
ag931
aF0.19604342955399298
aF0.15786296756094295
aa(lp933
I63
ag931
aF0.593709123295343
aF0.5855489527224312
aa(lp934
I22
ag931
aF0.26416098346750755
aF0.46056325799442455
aa(lp935
I88
ag931
aF0.30172395203121694
aF0.1462928648968012
aa(lp936
I46
ag931
aF0.6201573851399579
aF0.26618538408704817
aa(lp937
I92
ag931
aF0.6858790888448456
aF0.35324386784608897
aa(lp938
I79
ag931
aF0.9110509281172271
aF0.14076058078204
aa(lp939
I24
ag931
aF0.42175101649047664
aF0.5751178298266383
aa(lp940
I65
ag931
aF0.5746149681276006
aF0.5484597613533123
aa(lp941
I12
ag931
aF0.37304938139743116
aF0.30116290691372627
aa(lp942
I30
ag931
aF0.3729672158568167
aF0.32083146749615626
aa(lp943
I54
ag931
aF0.7640843296981659
aF0.24344353945752265
aa(lp944
I75
ag931
aF0.36097332399396986
aF0.16664702999587735
aa(lp945
I65
ag931
aF0.25054185267534096
aF0.5667644214211304
aa(lp946
I96
ag931
aF0.5746592267406401
aF0.4450955257028065
aa(lp947
I44
ag931
aF0.10166466924680129
aF0.13983129343116202
aa(lp948
I82
ag931
aF0.1270264233448403
aF0.2825783784984712
aa(lp949
I80
ag931
aF0.9097192728499559
aF0.536418444709276
aa(lp950
I59
ag931
aF0.9753892672148889
aF0.32820958545197687
aa(lp951
I75
ag931
aF0.7464252245917662
aF0.1468347837688168
aa(lp952
I91
ag931
aF0.9634311874829611
aF0.19331864174379204
aa(lp953
I23
ag931
aF0.4383788754147546
aF0.2774393497676441
aa(lp954
I65
ag931
aF0.23315234204098614
aF0.3345551787752037
aa(lp955
I64
ag931
aF0.8354125125248434
aF0.3250215309665027
aa(lp956
I49
ag931
aF0.99077738405578
aF0.24435422900593198
aa(lp957
I62
ag931
aF0.5122800136608645
aF0.4220518554185013
aa(lp958
I60
ag931
aF0.6555826963965113
aF0.21595347445105068
aa(lp959
I85
ag931
aF0.23160497058361323
aF0.22139010811712045
aa(lp960
I62
ag931
aF0.3981159107661133
aF0.28949301903107116
aa(lp961
I32
ag931
aF0.5809517448981144
aF0.35044877035369937
aa(lp962
I58
ag931
aF0.8761878685127716
aF0.34074971744355753
aa(lp963
I57
ag931
aF0.3143359246686145
aF0.4846370801390719
aa(lp964
I61
ag931
aF0.31316419357170117
aF0.23418894548893027
aa(lp965
I61
ag931
aF0.9904853347602376
aF0.3013337298712604
aa(lp966
I92
ag931
aF0.28334765020950237
aF0.6987010676896119
aa(lp967
I29
ag931
aF0.9406167737627648
aF0.27929336689356143
aa(lp968
I71
ag931
aF0.4253975951475979
aF0.21444657077101692
aa(lp969
I47
ag931
aF0.23837575292353647
aF0.8453034798305509
aa(lp970
I75
ag931
aF0.37172121370545785
aF0.44716415074029436
aa(lp971
I56
ag931
aF0.40374037863795553
aF0.2116421010485739
aa(lp972
I23
ag931
aF0.6813812412950737
aF0.198123515510549
aa(lp973
I72
ag931
aF0.2805172887990887
aF0.3924200726879412
aa(lp974
I95
ag931
aF0.2573201603094377
aF0.5493665216429292
aa(lp975
I45
ag931
aF0.5487237840446916
aF0.54714377933833
aa(lp976
I82
ag931
aF0.3896422506002746
aF0.43819281445912206
aa(lp977
I86
ag931
aF0.3191792416074382
aF0.32853644937929527
aa(lp978
I43
ag931
aF0.41475197226987737
aF0.4018270676561583
aa(lp979
I82
ag931
aF0.20172578490189175
aF0.6835618872505794
aa(lp980
I51
ag931
aF0.6142188507646843
aF0.2774040489564849
aa(lp981
I50
ag931
aF0.3446500326142419
aF0.32154528692763973
aa(lp982
I45
ag931
aF0.888865754340426
aF0.20965126618364754
aa(lp983
I80
ag931
aF0.4398446087363156
aF0.3267685387564265
aa(lp984
I72
ag931
aF0.6945684441395418
aF0.5706062711630278
aa(lp985
I46
ag931
aF0.5762427595062519
aF0.25534466088660024
aa(lp986
I46
ag931
aF0.16180170480614026
aF0.632359437344831
aa(lp987
I72
ag931
aF0.7308358004779725
aF0.30950845342395783
aa(lp988
I59
ag931
aF0.44861653860460227
aF0.40761304431442114
aa(lp989
I49
ag931
aF0.2798143465159656
aF0.7134448907808547
aa(lp990
I92
ag931
aF0.7677973886791725
aF0.15461970822460389
aaaF29.31608819961548
assS'precision'
p991
(dp992
g3
(lp993
(lp994
g6
(g10
S'\xecQ\xb8\x1e\x85\xeb\xd1?'
p995
tp996
Rp997
ag6
(g10
S')\\\x8f\xc2\xf5(\xcc?'
p998
tp999
Rp1000
ag6
(g10
S'\xd7\xa3p=\n\xd7\xd3?'
p1001
tp1002
Rp1003
ag6
(g10
S'\xecQ\xb8\x1e\x85\xeb\xd1?'
p1004
tp1005
Rp1006
ag6
(g10
S')\\\x8f\xc2\xf5(\xcc?'
p1007
tp1008
Rp1009
ag6
(g10
S'\x00\x00\x00\x00\x00\x00\xd0?'
p1010
tp1011
Rp1012
ag6
(g10
S')\\\x8f\xc2\xf5(\xcc?'
p1013
tp1014
Rp1015
ag6
(g10
S'333333\xd3?'
p1016
tp1017
Rp1018
ag6
(g10
S'\xd7\xa3p=\n\xd7\xd3?'
p1019
tp1020
Rp1021
ag6
(g10
S'H\xe1z\x14\xaeG\xd1?'
p1022
tp1023
Rp1024
ag6
(g10
S'H\xe1z\x14\xaeG\xd1?'
p1025
tp1026
Rp1027
ag6
(g10
S'\xecQ\xb8\x1e\x85\xeb\xd1?'
p1028
tp1029
Rp1030
ag6
(g10
S'\xecQ\xb8\x1e\x85\xeb\xd1?'
p1031
tp1032
Rp1033
ag6
(g10
S'\xd7\xa3p=\n\xd7\xd3?'
p1034
tp1035
Rp1036
ag6
(g10
S'\xd7\xa3p=\n\xd7\xd3?'
p1037
tp1038
Rp1039
ag6
(g10
S'\xd7\xa3p=\n\xd7\xd3?'
p1040
tp1041
Rp1042
ag6
(g10
S'H\xe1z\x14\xaeG\xd1?'
p1043
tp1044
Rp1045
ag6
(g10
S'\xecQ\xb8\x1e\x85\xeb\xd1?'
p1046
tp1047
Rp1048
ag6
(g10
S'\xecQ\xb8\x1e\x85\xeb\xd1?'
p1049
tp1050
Rp1051
ag6
(g10
S'\xecQ\xb8\x1e\x85\xeb\xd1?'
p1052
tp1053
Rp1054
ag6
(g10
S'\xd7\xa3p=\n\xd7\xd3?'
p1055
tp1056
Rp1057
ag6
(g10
S'\xd7\xa3p=\n\xd7\xd3?'
p1058
tp1059
Rp1060
ag6
(g10
S'\xd7\xa3p=\n\xd7\xd3?'
p1061
tp1062
Rp1063
ag6
(g10
S'H\xe1z\x14\xaeG\xd1?'
p1064
tp1065
Rp1066
ag6
(g10
S'H\xe1z\x14\xaeG\xd1?'
p1067
tp1068
Rp1069
ag6
(g10
S'H\xe1z\x14\xaeG\xd1?'
p1070
tp1071
Rp1072
ag6
(g10
S'\xecQ\xb8\x1e\x85\xeb\xd1?'
p1073
tp1074
Rp1075
ag6
(g10
S'\xa4p=\n\xd7\xa3\xd0?'
p1076
tp1077
Rp1078
ag6
(g10
S'\xd7\xa3p=\n\xd7\xd3?'
p1079
tp1080
Rp1081
ag6
(g10
S'H\xe1z\x14\xaeG\xd1?'
p1082
tp1083
Rp1084
ag6
(g10
S')\\\x8f\xc2\xf5(\xcc?'
p1085
tp1086
Rp1087
ag6
(g10
S'\xd7\xa3p=\n\xd7\xd3?'
p1088
tp1089
Rp1090
ag6
(g10
S'\xecQ\xb8\x1e\x85\xeb\xd1?'
p1091
tp1092
Rp1093
ag6
(g10
S'\xb8\x1e\x85\xebQ\xb8\xce?'
p1094
tp1095
Rp1096
ag6
(g10
S'\xb8\x1e\x85\xebQ\xb8\xce?'
p1097
tp1098
Rp1099
ag6
(g10
S')\\\x8f\xc2\xf5(\xcc?'
p1100
tp1101
Rp1102
ag6
(g10
S'\xd7\xa3p=\n\xd7\xd3?'
p1103
tp1104
Rp1105
ag6
(g10
S'333333\xd3?'
p1106
tp1107
Rp1108
ag6
(g10
S'\xecQ\xb8\x1e\x85\xeb\xd1?'
p1109
tp1110
Rp1111
ag6
(g10
S'\xa4p=\n\xd7\xa3\xd0?'
p1112
tp1113
Rp1114
ag6
(g10
S')\\\x8f\xc2\xf5(\xcc?'
p1115
tp1116
Rp1117
ag6
(g10
S'333333\xd3?'
p1118
tp1119
Rp1120
ag6
(g10
S'\xb8\x1e\x85\xebQ\xb8\xce?'
p1121
tp1122
Rp1123
ag6
(g10
S'\xd7\xa3p=\n\xd7\xd3?'
p1124
tp1125
Rp1126
ag6
(g10
S'H\xe1z\x14\xaeG\xd1?'
p1127
tp1128
Rp1129
ag6
(g10
S'\x8f\xc2\xf5(\\\x8f\xd2?'
p1130
tp1131
Rp1132
ag6
(g10
S'\xecQ\xb8\x1e\x85\xeb\xd1?'
p1133
tp1134
Rp1135
ag6
(g10
S')\\\x8f\xc2\xf5(\xcc?'
p1136
tp1137
Rp1138
ag6
(g10
S')\\\x8f\xc2\xf5(\xcc?'
p1139
tp1140
Rp1141
ag6
(g10
S'\xecQ\xb8\x1e\x85\xeb\xd1?'
p1142
tp1143
Rp1144
ag6
(g10
S'H\xe1z\x14\xaeG\xd1?'
p1145
tp1146
Rp1147
ag6
(g10
S')\\\x8f\xc2\xf5(\xcc?'
p1148
tp1149
Rp1150
ag6
(g10
S')\\\x8f\xc2\xf5(\xcc?'
p1151
tp1152
Rp1153
ag6
(g10
S')\\\x8f\xc2\xf5(\xcc?'
p1154
tp1155
Rp1156
ag6
(g10
S'H\xe1z\x14\xaeG\xd1?'
p1157
tp1158
Rp1159
ag6
(g10
S')\\\x8f\xc2\xf5(\xcc?'
p1160
tp1161
Rp1162
ag6
(g10
S'\xa4p=\n\xd7\xa3\xd0?'
p1163
tp1164
Rp1165
ag6
(g10
S')\\\x8f\xc2\xf5(\xcc?'
p1166
tp1167
Rp1168
ag6
(g10
S'\xb8\x1e\x85\xebQ\xb8\xce?'
p1169
tp1170
Rp1171
ag6
(g10
S')\\\x8f\xc2\xf5(\xcc?'
p1172
tp1173
Rp1174
aa(lp1175
(lp1176
I10
ag203
aa(lp1177
I4
ag203
aa(lp1178
I2
ag203
aa(lp1179
I10
ag203
aa(lp1180
I4
ag203
aa(lp1181
I5
ag203
aa(lp1182
I4
ag203
aa(lp1183
I7
ag195
aa(lp1184
I2
ag203
aa(lp1185
I6
ag203
aa(lp1186
I6
ag203
aa(lp1187
I10
ag203
aa(lp1188
I10
ag203
aa(lp1189
I2
ag203
aa(lp1190
I10
ag195
aa(lp1191
I10
ag195
aa(lp1192
I6
ag203
aa(lp1193
I10
ag203
aa(lp1194
I10
ag203
aa(lp1195
I10
ag203
aa(lp1196
I2
ag203
aa(lp1197
I2
ag203
aa(lp1198
I2
ag203
aa(lp1199
I6
ag203
aa(lp1200
I6
ag203
aa(lp1201
I5
ag195
aa(lp1202
I10
ag203
aa(lp1203
I9
ag203
aa(lp1204
I2
ag203
aa(lp1205
I6
ag203
aa(lp1206
I4
ag203
aa(lp1207
I2
ag203
aa(lp1208
I10
ag203
aa(lp1209
I8
ag203
aa(lp1210
I8
ag203
aa(lp1211
I4
ag203
aa(lp1212
I2
ag203
aa(lp1213
I6
ag195
aa(lp1214
I10
ag203
aa(lp1215
I7
ag203
aa(lp1216
I4
ag203
aa(lp1217
I7
ag195
aa(lp1218
I8
ag203
aa(lp1219
I2
ag203
aa(lp1220
I5
ag195
aa(lp1221
I2
ag195
aa(lp1222
I10
ag203
aa(lp1223
I4
ag203
aa(lp1224
I4
ag203
aa(lp1225
I10
ag203
aa(lp1226
I6
ag203
aa(lp1227
I4
ag203
aa(lp1228
I4
ag203
aa(lp1229
I4
ag203
aa(lp1230
I6
ag203
aa(lp1231
I4
ag203
aa(lp1232
I9
ag203
aa(lp1233
I4
ag203
aa(lp1234
I8
ag203
aa(lp1235
I4
ag203
aaaF8.01632308959961
asg256
(lp1236
(lp1237
g6
(g10
S'\xa4p=\n\xd7\xa3\xd0?'
p1238
tp1239
Rp1240
ag6
(g10
S'\x00\x00\x00\x00\x00\x00\xd0?'
p1241
tp1242
Rp1243
ag6
(g10
S'\x85\xebQ\xb8\x1e\x85\xdb?'
p1244
tp1245
Rp1246
ag6
(g10
S'\xa4p=\n\xd7\xa3\xd0?'
p1247
tp1248
Rp1249
ag6
(g10
S'\x9a\x99\x99\x99\x99\x99\xc9?'
p1250
tp1251
Rp1252
ag6
(g10
S'\xf6(\\\x8f\xc2\xf5\xe0?'
p1253
tp1254
Rp1255
ag6
(g10
S'\xe1z\x14\xaeG\xe1\xe2?'
p1256
tp1257
Rp1258
ag6
(g10
S'\xc3\xf5(\\\x8f\xc2\xc5?'
p1259
tp1260
Rp1261
ag6
(g10
S'=\n\xd7\xa3p=\xda?'
p1262
tp1263
Rp1264
ag6
(g10
S')\\\x8f\xc2\xf5(\xdc?'
p1265
tp1266
Rp1267
ag6
(g10
S'\x9a\x99\x99\x99\x99\x99\xd9?'
p1268
tp1269
Rp1270
ag6
(g10
S'333333\xd3?'
p1271
tp1272
Rp1273
ag6
(g10
S'\xb8\x1e\x85\xebQ\xb8\xde?'
p1274
tp1275
Rp1276
ag6
(g10
S'\xa4p=\n\xd7\xa3\xd0?'
p1277
tp1278
Rp1279
ag6
(g10
S'{\x14\xaeG\xe1z\xd4?'
p1280
tp1281
Rp1282
ag6
(g10
S')\\\x8f\xc2\xf5(\xcc?'
p1283
tp1284
Rp1285
ag6
(g10
S'\x00\x00\x00\x00\x00\x00\xd0?'
p1286
tp1287
Rp1288
ag6
(g10
S'\xc3\xf5(\\\x8f\xc2\xc5?'
p1289
tp1290
Rp1291
ag6
(g10
S'\x00\x00\x00\x00\x00\x00\x00\x00'
p1292
tp1293
Rp1294
ag6
(g10
S'q=\n\xd7\xa3p\xdd?'
p1295
tp1296
Rp1297
ag6
(g10
S'\xa4p=\n\xd7\xa3\xd0?'
p1298
tp1299
Rp1300
ag6
(g10
S'\x9a\x99\x99\x99\x99\x99\xc9?'
p1301
tp1302
Rp1303
ag6
(g10
S'\x00\x00\x00\x00\x00\x00\xd0?'
p1304
tp1305
Rp1306
ag6
(g10
S'333333\xd3?'
p1307
tp1308
Rp1309
ag6
(g10
S'\x00\x00\x00\x00\x00\x00\xd0?'
p1310
tp1311
Rp1312
ag6
(g10
S'\xe1z\x14\xaeG\xe1\xda?'
p1313
tp1314
Rp1315
ag6
(g10
S'H\xe1z\x14\xaeG\xd1?'
p1316
tp1317
Rp1318
ag6
(g10
S'H\xe1z\x14\xaeG\xd1?'
p1319
tp1320
Rp1321
ag6
(g10
S'{\x14\xaeG\xe1z\xb4?'
p1322
tp1323
Rp1324
ag6
(g10
S'\x85\xebQ\xb8\x1e\x85\xdb?'
p1325
tp1326
Rp1327
ag6
(g10
S'\xe1z\x14\xaeG\xe1\xda?'
p1328
tp1329
Rp1330
ag6
(g10
S'\x14\xaeG\xe1z\x14\xde?'
p1331
tp1332
Rp1333
ag6
(g10
S'\x14\xaeG\xe1z\x14\xde?'
p1334
tp1335
Rp1336
ag6
(g10
S'R\xb8\x1e\x85\xebQ\xe0?'
p1337
tp1338
Rp1339
ag6
(g10
S'\xb8\x1e\x85\xebQ\xb8\xce?'
p1340
tp1341
Rp1342
ag6
(g10
S'\xecQ\xb8\x1e\x85\xeb\xd1?'
p1343
tp1344
Rp1345
ag6
(g10
S'\x8f\xc2\xf5(\\\x8f\xd2?'
p1346
tp1347
Rp1348
ag6
(g10
S'H\xe1z\x14\xaeG\xd1?'
p1349
tp1350
Rp1351
ag6
(g10
S'\n\xd7\xa3p=\n\xb7?'
p1352
tp1353
Rp1354
ag6
(g10
S'\xb8\x1e\x85\xebQ\xb8\xce?'
p1355
tp1356
Rp1357
ag6
(g10
S'\xa4p=\n\xd7\xa3\xe0?'
p1358
tp1359
Rp1360
ag6
(g10
S'\xecQ\xb8\x1e\x85\xeb\xd1?'
p1361
tp1362
Rp1363
ag6
(g10
S'q=\n\xd7\xa3p\xcd?'
p1364
tp1365
Rp1366
ag6
(g10
S'\x8f\xc2\xf5(\\\x8f\xd2?'
p1367
tp1368
Rp1369
ag6
(g10
S'\xe1z\x14\xaeG\xe1\xda?'
p1370
tp1371
Rp1372
ag6
(g10
S'\x85\xebQ\xb8\x1e\x85\xdb?'
p1373
tp1374
Rp1375
ag6
(g10
S'\x00\x00\x00\x00\x00\x00\xd0?'
p1376
tp1377
Rp1378
ag6
(g10
S'H\xe1z\x14\xaeG\xd1?'
p1379
tp1380
Rp1381
ag6
(g10
S'\xc3\xf5(\\\x8f\xc2\xd5?'
p1382
tp1383
Rp1384
ag6
(g10
S'\x8f\xc2\xf5(\\\x8f\xd2?'
p1385
tp1386
Rp1387
ag6
(g10
S'{\x14\xaeG\xe1z\xb4?'
p1388
tp1389
Rp1390
ag6
(g10
S'\xf6(\\\x8f\xc2\xf5\xe0?'
p1391
tp1392
Rp1393
ag6
(g10
S'\xb8\x1e\x85\xebQ\xb8\xce?'
p1394
tp1395
Rp1396
ag6
(g10
S'\xcd\xcc\xcc\xcc\xcc\xcc\xdc?'
p1397
tp1398
Rp1399
ag6
(g10
S'{\x14\xaeG\xe1z\xb4?'
p1400
tp1401
Rp1402
ag6
(g10
S'\xe1z\x14\xaeG\xe1\xda?'
p1403
tp1404
Rp1405
ag6
(g10
S'\x85\xebQ\xb8\x1e\x85\xdb?'
p1406
tp1407
Rp1408
ag6
(g10
S'\x9a\x99\x99\x99\x99\x99\xd9?'
p1409
tp1410
Rp1411
ag6
(g10
S'\xb8\x1e\x85\xebQ\xb8\xde?'
p1412
tp1413
Rp1414
ag6
(g10
S'\x00\x00\x00\x00\x00\x00\x00\x00'
p1415
tp1416
Rp1417
aa(lp1418
(lp1419
g446
aF0.7407854149720523
aI17
aI9
aI16
aa(lp1420
g441
aF0.8817741083380272
aI20
aI14
aI6
aa(lp1421
g441
aF0.525619800379293
aI26
aI5
aI4
aa(lp1422
g441
aF0.2152176639595984
aI5
aI2
aI12
aa(lp1423
g446
aF0.7587379101556097
aI16
aI1
aI4
aa(lp1424
g441
aF0.5199852461042277
aI4
aI5
aI3
aa(lp1425
g441
aF0.4490034070606016
aI14
aI8
aI4
aa(lp1426
g441
aF0.38610441033695075
aI30
aI1
aI3
aa(lp1427
g446
aF0.788521172384261
aI20
aI18
aI4
aa(lp1428
g446
aF0.6003569504052741
aI5
aI2
aI2
aa(lp1429
g446
aF0.7836369761739279
aI15
aI12
aI2
aa(lp1430
g446
aF0.14476063371665013
aI14
aI14
aI6
aa(lp1431
g446
aF0.5013954738478867
aI5
aI13
aI2
aa(lp1432
g446
aF0.7549092396737878
aI27
aI13
aI6
aa(lp1433
g441
aF0.106297483922068
aI25
aI2
aI5
aa(lp1434
g446
aF0.22487235357603647
aI16
aI17
aI3
aa(lp1435
g441
aF0.9715122784775961
aI15
aI1
aI14
aa(lp1436
g441
aF0.39538866254385074
aI11
aI7
aI3
aa(lp1437
g441
aF0.8832412286779476
aI17
aI9
aI2
aa(lp1438
g441
aF0.14715045102256075
aI16
aI5
aI4
aa(lp1439
g446
aF0.6116643187884236
aI13
aI17
aI21
aa(lp1440
g446
aF0.755441441007412
aI14
aI5
aI4
aa(lp1441
g446
aF0.8785320538327078
aI15
aI6
aI5
aa(lp1442
g441
aF0.10263199264362925
aI9
aI6
aI5
aa(lp1443
g441
aF0.8782867521774701
aI22
aI10
aI6
aa(lp1444
g446
aF0.3197874052083465
aI12
aI4
aI3
aa(lp1445
g446
aF0.7504298056224986
aI17
aI1
aI8
aa(lp1446
g441
aF0.8186750570908548
aI13
aI15
aI20
aa(lp1447
g441
aF0.24634426299532264
aI21
aI16
aI3
aa(lp1448
g441
aF0.9638278484727518
aI5
aI4
aI4
aa(lp1449
g441
aF0.319785823911422
aI29
aI11
aI1
aa(lp1450
g441
aF0.29848427678213385
aI23
aI6
aI4
aa(lp1451
g446
aF0.28051727732445453
aI27
aI2
aI3
aa(lp1452
g446
aF0.4008230986098593
aI25
aI9
aI3
aa(lp1453
g441
aF0.8838817921621439
aI22
aI8
aI7
aa(lp1454
g446
aF0.6675597830157165
aI25
aI15
aI10
aa(lp1455
g446
aF0.48506827280599907
aI21
aI13
aI14
aa(lp1456
g446
aF0.7766832901641955
aI4
aI8
aI11
aa(lp1457
g441
aF0.24111022342415456
aI11
aI12
aI3
aa(lp1458
g441
aF0.796725098471504
aI27
aI10
aI5
aa(lp1459
g446
aF0.38180856768385185
aI15
aI5
aI2
aa(lp1460
g441
aF0.32554826198043546
aI17
aI1
aI8
aa(lp1461
g441
aF0.45302377541181216
aI23
aI21
aI3
aa(lp1462
g446
aF0.6054618734188091
aI20
aI7
aI5
aa(lp1463
g441
aF0.3230783206153577
aI30
aI4
aI2
aa(lp1464
g446
aF0.5109819922636575
aI19
aI15
aI4
aa(lp1465
g446
aF0.3887526585320805
aI10
aI19
aI5
aa(lp1466
g446
aF0.851691216620202
aI28
aI21
aI12
aa(lp1467
g441
aF0.4484208555826241
aI20
aI4
aI5
aa(lp1468
g446
aF0.4361781204659251
aI13
aI1
aI7
aa(lp1469
g441
aF0.2442885598434911
aI11
aI14
aI2
aa(lp1470
g441
aF0.8247232088784837
aI10
aI6
aI2
aa(lp1471
g446
aF0.578208612442569
aI10
aI8
aI8
aa(lp1472
g441
aF0.8280007587370808
aI28
aI14
aI4
aa(lp1473
g441
aF0.24851845734429728
aI27
aI14
aI3
aa(lp1474
g441
aF0.33445937995666336
aI10
aI19
aI2
aa(lp1475
g446
aF0.7854763296397036
aI7
aI8
aI3
aa(lp1476
g446
aF0.7835223349509547
aI4
aI12
aI2
aa(lp1477
g446
aF0.8082634930954421
aI25
aI14
aI2
aa(lp1478
g441
aF0.7785752274287254
aI30
aI4
aI2
aaaF5.960598945617676
asg502
(lp1479
(lp1480
g6
(g10
S'ffffff\xd6?'
p1481
tp1482
Rp1483
ag6
(g10
S'ffffff\xd6?'
p1484
tp1485
Rp1486
ag6
(g10
S'\xc3\xf5(\\\x8f\xc2\xd5?'
p1487
tp1488
Rp1489
ag6
(g10
S'\x1f\x85\xebQ\xb8\x1e\xd5?'
p1490
tp1491
Rp1492
ag6
(g10
S'{\x14\xaeG\xe1z\xd4?'
p1493
tp1494
Rp1495
ag6
(g10
S'\xcd\xcc\xcc\xcc\xcc\xcc\xdc?'
p1496
tp1497
Rp1498
ag6
(g10
S'\xc3\xf5(\\\x8f\xc2\xd5?'
p1499
tp1500
Rp1501
ag6
(g10
S'{\x14\xaeG\xe1z\xd4?'
p1502
tp1503
Rp1504
ag6
(g10
S'ffffff\xd6?'
p1505
tp1506
Rp1507
ag6
(g10
S'\n\xd7\xa3p=\n\xd7?'
p1508
tp1509
Rp1510
ag6
(g10
S'{\x14\xaeG\xe1z\xd4?'
p1511
tp1512
Rp1513
ag6
(g10
S'\xc3\xf5(\\\x8f\xc2\xd5?'
p1514
tp1515
Rp1516
ag6
(g10
S'\n\xd7\xa3p=\n\xd7?'
p1517
tp1518
Rp1519
ag6
(g10
S'\\\x8f\xc2\xf5(\\\xdf?'
p1520
tp1521
Rp1522
ag6
(g10
S'\xc3\xf5(\\\x8f\xc2\xd5?'
p1523
tp1524
Rp1525
ag6
(g10
S'\xf6(\\\x8f\xc2\xf5\xd8?'
p1526
tp1527
Rp1528
ag6
(g10
S'\xe1z\x14\xaeG\xe1\xda?'
p1529
tp1530
Rp1531
ag6
(g10
S'\x1f\x85\xebQ\xb8\x1e\xd5?'
p1532
tp1533
Rp1534
ag6
(g10
S'\n\xd7\xa3p=\n\xd7?'
p1535
tp1536
Rp1537
ag6
(g10
S'\xaeG\xe1z\x14\xae\xd7?'
p1538
tp1539
Rp1540
ag6
(g10
S'\xaeG\xe1z\x14\xae\xd7?'
p1541
tp1542
Rp1543
ag6
(g10
S'\x1f\x85\xebQ\xb8\x1e\xd5?'
p1544
tp1545
Rp1546
ag6
(g10
S'ffffff\xd6?'
p1547
tp1548
Rp1549
ag6
(g10
S'\x9a\x99\x99\x99\x99\x99\xd9?'
p1550
tp1551
Rp1552
ag6
(g10
S'{\x14\xaeG\xe1z\xd4?'
p1553
tp1554
Rp1555
ag6
(g10
S'\\\x8f\xc2\xf5(\\\xdf?'
p1556
tp1557
Rp1558
ag6
(g10
S'{\x14\xaeG\xe1z\xd4?'
p1559
tp1560
Rp1561
ag6
(g10
S'\xd7\xa3p=\n\xd7\xd3?'
p1562
tp1563
Rp1564
ag6
(g10
S'\xc3\xf5(\\\x8f\xc2\xd5?'
p1565
tp1566
Rp1567
ag6
(g10
S'\xc3\xf5(\\\x8f\xc2\xd5?'
p1568
tp1569
Rp1570
ag6
(g10
S'\x1f\x85\xebQ\xb8\x1e\xd5?'
p1571
tp1572
Rp1573
ag6
(g10
S'\n\xd7\xa3p=\n\xd7?'
p1574
tp1575
Rp1576
ag6
(g10
S'\x1f\x85\xebQ\xb8\x1e\xd5?'
p1577
tp1578
Rp1579
ag6
(g10
S'\xc3\xf5(\\\x8f\xc2\xd5?'
p1580
tp1581
Rp1582
ag6
(g10
S'\xcd\xcc\xcc\xcc\xcc\xcc\xdc?'
p1583
tp1584
Rp1585
ag6
(g10
S'{\x14\xaeG\xe1z\xd4?'
p1586
tp1587
Rp1588
ag6
(g10
S'\n\xd7\xa3p=\n\xd7?'
p1589
tp1590
Rp1591
ag6
(g10
S'\x1f\x85\xebQ\xb8\x1e\xd5?'
p1592
tp1593
Rp1594
ag6
(g10
S'\xc3\xf5(\\\x8f\xc2\xd5?'
p1595
tp1596
Rp1597
ag6
(g10
S'\n\xd7\xa3p=\n\xd7?'
p1598
tp1599
Rp1600
ag6
(g10
S'{\x14\xaeG\xe1z\xd4?'
p1601
tp1602
Rp1603
ag6
(g10
S'333333\xd3?'
p1604
tp1605
Rp1606
ag6
(g10
S'\x9a\x99\x99\x99\x99\x99\xd9?'
p1607
tp1608
Rp1609
ag6
(g10
S'\xc3\xf5(\\\x8f\xc2\xd5?'
p1610
tp1611
Rp1612
ag6
(g10
S'\xd7\xa3p=\n\xd7\xd3?'
p1613
tp1614
Rp1615
ag6
(g10
S'\x1f\x85\xebQ\xb8\x1e\xd5?'
p1616
tp1617
Rp1618
ag6
(g10
S'\xc3\xf5(\\\x8f\xc2\xd5?'
p1619
tp1620
Rp1621
ag6
(g10
S'\x1f\x85\xebQ\xb8\x1e\xd5?'
p1622
tp1623
Rp1624
ag6
(g10
S'ffffff\xd6?'
p1625
tp1626
Rp1627
ag6
(g10
S'{\x14\xaeG\xe1z\xd4?'
p1628
tp1629
Rp1630
ag6
(g10
S'\xd7\xa3p=\n\xd7\xd3?'
p1631
tp1632
Rp1633
ag6
(g10
S'\x1f\x85\xebQ\xb8\x1e\xd5?'
p1634
tp1635
Rp1636
ag6
(g10
S'\x14\xaeG\xe1z\x14\xde?'
p1637
tp1638
Rp1639
ag6
(g10
S'\xe1z\x14\xaeG\xe1\xda?'
p1640
tp1641
Rp1642
ag6
(g10
S'{\x14\xaeG\xe1z\xd4?'
p1643
tp1644
Rp1645
ag6
(g10
S'\xf6(\\\x8f\xc2\xf5\xd8?'
p1646
tp1647
Rp1648
ag6
(g10
S'\xe1z\x14\xaeG\xe1\xda?'
p1649
tp1650
Rp1651
ag6
(g10
S'R\xb8\x1e\x85\xebQ\xd8?'
p1652
tp1653
Rp1654
ag6
(g10
S'333333\xd3?'
p1655
tp1656
Rp1657
ag6
(g10
S'\n\xd7\xa3p=\n\xd7?'
p1658
tp1659
Rp1660
aa(lp1661
(lp1662
g441
aF0.28731675883976027
aI25
aI9
aI42
aa(lp1663
g446
aF0.6477489262575278
aI24
aI19
aI52
aa(lp1664
g441
aF0.4479954694428485
aI24
aI5
aI34
aa(lp1665
g446
aF0.7939633312847036
aI30
aI6
aI35
aa(lp1666
g446
aF0.2035698481619992
aI27
aI9
aI58
aa(lp1667
g441
aF0.11030833388964742
aI27
aI16
aI27
aa(lp1668
g446
aF0.23291397382058013
aI12
aI13
aI50
aa(lp1669
g446
aF0.3776337215859451
aI16
aI2
aI80
aa(lp1670
g446
aF0.21259986648584384
aI11
aI10
aI28
aa(lp1671
g446
aF0.2165824329336502
aI11
aI14
aI40
aa(lp1672
g446
aF0.9368514395429101
aI6
aI12
aI93
aa(lp1673
g446
aF0.6328542039402404
aI4
aI20
aI95
aa(lp1674
g446
aF0.2450359619859881
aI7
aI19
aI26
aa(lp1675
g441
aF0.10696247425914801
aI14
aI18
aI71
aa(lp1676
g441
aF0.4019789164712494
aI20
aI12
aI96
aa(lp1677
g446
aF0.1738847225801073
aI15
aI19
aI60
aa(lp1678
g441
aF0.16228465121735602
aI21
aI21
aI97
aa(lp1679
g446
aF0.460258121783786
aI22
aI8
aI98
aa(lp1680
g446
aF0.1352919291259131
aI7
aI2
aI42
aa(lp1681
g441
aF0.20965954537037262
aI3
aI17
aI69
aa(lp1682
g446
aF0.16686013529747779
aI10
aI9
aI35
aa(lp1683
g441
aF0.6939986447857649
aI7
aI21
aI15
aa(lp1684
g446
aF0.7837053574857811
aI2
aI20
aI15
aa(lp1685
g446
aF0.23612067104215342
aI15
aI21
aI54
aa(lp1686
g446
aF0.40866029186953434
aI17
aI2
aI90
aa(lp1687
g446
aF0.13401154275988095
aI10
aI15
aI42
aa(lp1688
g441
aF0.6837196034864305
aI19
aI20
aI58
aa(lp1689
g441
aF0.3415728682420691
aI25
aI4
aI23
aa(lp1690
g446
aF0.17026988773758606
aI17
aI3
aI75
aa(lp1691
g441
aF0.17711198311481863
aI23
aI5
aI51
aa(lp1692
g446
aF0.15925369231211334
aI21
aI3
aI95
aa(lp1693
g446
aF0.6585293468735054
aI28
aI20
aI50
aa(lp1694
g441
aF0.7964408955291559
aI19
aI2
aI73
aa(lp1695
g441
aF0.5685329619389727
aI10
aI3
aI84
aa(lp1696
g441
aF0.10155864223339489
aI7
aI17
aI86
aa(lp1697
g441
aF0.8465281456716461
aI16
aI20
aI30
aa(lp1698
g441
aF0.25264188773931484
aI13
aI20
aI33
aa(lp1699
g446
aF0.4167819008661171
aI13
aI2
aI64
aa(lp1700
g441
aF0.23195409513236526
aI24
aI7
aI79
aa(lp1701
g446
aF0.18924923040914993
aI2
aI16
aI26
aa(lp1702
g441
aF0.7237200016922218
aI6
aI13
aI63
aa(lp1703
g446
aF0.8898505120027795
aI12
aI21
aI78
aa(lp1704
g441
aF0.2855352121989173
aI15
aI21
aI98
aa(lp1705
g441
aF0.8381526382602495
aI13
aI7
aI62
aa(lp1706
g446
aF0.5747829234381272
aI19
aI9
aI47
aa(lp1707
g441
aF0.35769830220065035
aI4
aI17
aI77
aa(lp1708
g441
aF0.17938258652106548
aI20
aI1
aI16
aa(lp1709
g446
aF0.7969000588739894
aI27
aI16
aI50
aa(lp1710
g441
aF0.3379545831724085
aI13
aI4
aI39
aa(lp1711
g446
aF0.8659016507039835
aI19
aI6
aI73
aa(lp1712
g446
aF0.5027983724114095
aI27
aI14
aI61
aa(lp1713
g441
aF0.6929137818983477
aI12
aI1
aI94
aa(lp1714
g446
aF0.10764876960680234
aI15
aI21
aI45
aa(lp1715
g446
aF0.19122506554388993
aI6
aI21
aI94
aa(lp1716
g446
aF0.3840578832871203
aI20
aI11
aI18
aa(lp1717
g441
aF0.19308947474389992
aI11
aI13
aI12
aa(lp1718
g441
aF0.11575300969152028
aI9
aI14
aI45
aa(lp1719
g446
aF0.19307404255986638
aI29
aI18
aI82
aa(lp1720
g441
aF0.3082280961738712
aI8
aI7
aI14
aa(lp1721
g446
aF0.11999771441879593
aI8
aI6
aI53
aaaF1310.09779214859
asg746
(lp1722
(lp1723
g6
(g10
S'{\x14\xaeG\xe1z\xd4?'
p1724
tp1725
Rp1726
ag6
(g10
S'333333\xd3?'
p1727
tp1728
Rp1729
ag6
(g10
S'\xe1z\x14\xaeG\xe1\xca?'
p1730
tp1731
Rp1732
ag6
(g10
S'\x1f\x85\xebQ\xb8\x1e\xd5?'
p1733
tp1734
Rp1735
ag6
(g10
S'{\x14\xaeG\xe1z\xd4?'
p1736
tp1737
Rp1738
ag6
(g10
S'333333\xd3?'
p1739
tp1740
Rp1741
ag6
(g10
S')\\\x8f\xc2\xf5(\xcc?'
p1742
tp1743
Rp1744
ag6
(g10
S'q=\n\xd7\xa3p\xcd?'
p1745
tp1746
Rp1747
ag6
(g10
S'q=\n\xd7\xa3p\xcd?'
p1748
tp1749
Rp1750
ag6
(g10
S'\xd7\xa3p=\n\xd7\xd3?'
p1751
tp1752
Rp1753
ag6
(g10
S'\xe1z\x14\xaeG\xe1\xca?'
p1754
tp1755
Rp1756
ag6
(g10
S'\xd7\xa3p=\n\xd7\xd3?'
p1757
tp1758
Rp1759
ag6
(g10
S'\xd7\xa3p=\n\xd7\xd3?'
p1760
tp1761
Rp1762
ag6
(g10
S'\xe1z\x14\xaeG\xe1\xca?'
p1763
tp1764
Rp1765
ag6
(g10
S'{\x14\xaeG\xe1z\xd4?'
p1766
tp1767
Rp1768
ag6
(g10
S'\xecQ\xb8\x1e\x85\xeb\xd1?'
p1769
tp1770
Rp1771
ag6
(g10
S'\xd7\xa3p=\n\xd7\xd3?'
p1772
tp1773
Rp1774
ag6
(g10
S'\xe1z\x14\xaeG\xe1\xca?'
p1775
tp1776
Rp1777
ag6
(g10
S'\x8f\xc2\xf5(\\\x8f\xd2?'
p1778
tp1779
Rp1780
ag6
(g10
S'\xe1z\x14\xaeG\xe1\xca?'
p1781
tp1782
Rp1783
ag6
(g10
S'\xc3\xf5(\\\x8f\xc2\xd5?'
p1784
tp1785
Rp1786
ag6
(g10
S'{\x14\xaeG\xe1z\xd4?'
p1787
tp1788
Rp1789
ag6
(g10
S'\x1f\x85\xebQ\xb8\x1e\xd5?'
p1790
tp1791
Rp1792
ag6
(g10
S'\xe1z\x14\xaeG\xe1\xca?'
p1793
tp1794
Rp1795
ag6
(g10
S'q=\n\xd7\xa3p\xcd?'
p1796
tp1797
Rp1798
ag6
(g10
S'\xecQ\xb8\x1e\x85\xeb\xd1?'
p1799
tp1800
Rp1801
ag6
(g10
S'\xe1z\x14\xaeG\xe1\xca?'
p1802
tp1803
Rp1804
ag6
(g10
S'\xe1z\x14\xaeG\xe1\xca?'
p1805
tp1806
Rp1807
ag6
(g10
S'\xe1z\x14\xaeG\xe1\xca?'
p1808
tp1809
Rp1810
ag6
(g10
S'\xe1z\x14\xaeG\xe1\xca?'
p1811
tp1812
Rp1813
ag6
(g10
S'\x1f\x85\xebQ\xb8\x1e\xd5?'
p1814
tp1815
Rp1816
ag6
(g10
S'\xd7\xa3p=\n\xd7\xd3?'
p1817
tp1818
Rp1819
ag6
(g10
S')\\\x8f\xc2\xf5(\xcc?'
p1820
tp1821
Rp1822
ag6
(g10
S'\xe1z\x14\xaeG\xe1\xca?'
p1823
tp1824
Rp1825
ag6
(g10
S'\xe1z\x14\xaeG\xe1\xca?'
p1826
tp1827
Rp1828
ag6
(g10
S'q=\n\xd7\xa3p\xcd?'
p1829
tp1830
Rp1831
ag6
(g10
S'\xe1z\x14\xaeG\xe1\xca?'
p1832
tp1833
Rp1834
ag6
(g10
S'\xe1z\x14\xaeG\xe1\xca?'
p1835
tp1836
Rp1837
ag6
(g10
S'q=\n\xd7\xa3p\xcd?'
p1838
tp1839
Rp1840
ag6
(g10
S'q=\n\xd7\xa3p\xcd?'
p1841
tp1842
Rp1843
ag6
(g10
S'\xe1z\x14\xaeG\xe1\xca?'
p1844
tp1845
Rp1846
ag6
(g10
S'\xe1z\x14\xaeG\xe1\xca?'
p1847
tp1848
Rp1849
ag6
(g10
S'\xe1z\x14\xaeG\xe1\xca?'
p1850
tp1851
Rp1852
ag6
(g10
S'\x1f\x85\xebQ\xb8\x1e\xd5?'
p1853
tp1854
Rp1855
ag6
(g10
S'\xd7\xa3p=\n\xd7\xd3?'
p1856
tp1857
Rp1858
ag6
(g10
S'{\x14\xaeG\xe1z\xd4?'
p1859
tp1860
Rp1861
ag6
(g10
S'\xe1z\x14\xaeG\xe1\xca?'
p1862
tp1863
Rp1864
ag6
(g10
S'\xe1z\x14\xaeG\xe1\xca?'
p1865
tp1866
Rp1867
ag6
(g10
S'q=\n\xd7\xa3p\xcd?'
p1868
tp1869
Rp1870
ag6
(g10
S'\xd7\xa3p=\n\xd7\xd3?'
p1871
tp1872
Rp1873
ag6
(g10
S'\xe1z\x14\xaeG\xe1\xca?'
p1874
tp1875
Rp1876
ag6
(g10
S'\xe1z\x14\xaeG\xe1\xca?'
p1877
tp1878
Rp1879
ag6
(g10
S'\xd7\xa3p=\n\xd7\xd3?'
p1880
tp1881
Rp1882
ag6
(g10
S'\xe1z\x14\xaeG\xe1\xca?'
p1883
tp1884
Rp1885
ag6
(g10
S'\xe1z\x14\xaeG\xe1\xca?'
p1886
tp1887
Rp1888
ag6
(g10
S'q=\n\xd7\xa3p\xcd?'
p1889
tp1890
Rp1891
ag6
(g10
S'{\x14\xaeG\xe1z\xd4?'
p1892
tp1893
Rp1894
ag6
(g10
S'\xe1z\x14\xaeG\xe1\xca?'
p1895
tp1896
Rp1897
ag6
(g10
S'\xe1z\x14\xaeG\xe1\xca?'
p1898
tp1899
Rp1900
ag6
(g10
S'\x8f\xc2\xf5(\\\x8f\xd2?'
p1901
tp1902
Rp1903
aa(lp1904
(lp1905
I98
aS'rbf'
p1906
aF0.9512472508514693
aF0.25144762839636303
aa(lp1907
I3
ag1906
aF0.573100369752137
aF0.7347623401186023
aa(lp1908
I100
ag1906
aF0.25412962366819514
aF0.8256947295982763
aa(lp1909
I31
ag1906
aF0.7615962242538198
aF0.27675039565810977
aa(lp1910
I16
ag1906
aF0.10149734551864911
aF0.19068809706571915
aa(lp1911
I8
ag1906
aF0.1295342567613679
aF0.7601095641012342
aa(lp1912
I7
ag1906
aF0.26036481769462216
aF0.9017988114461019
aa(lp1913
I96
ag931
aF0.14191978137949016
aF0.7637514128798175
aa(lp1914
I78
ag1906
aF0.18309160415397052
aF0.8025465741070403
aa(lp1915
I95
ag1906
aF0.8427340997690134
aF0.2198635623080306
aa(lp1916
I78
ag1906
aF0.25038411674701533
aF0.870079091805548
aa(lp1917
I54
ag1906
aF0.16574449978008798
aF0.6231630994976193
aa(lp1918
I60
ag1906
aF0.24042740069375748
aF0.6736096036156564
aa(lp1919
I24
ag1906
aF0.5293074033235603
aF0.9274397076340669
aa(lp1920
I42
ag1906
aF0.5486476273015847
aF0.18683962470169063
aa(lp1921
I86
ag1906
aF0.6778180439162482
aF0.7730164825971355
aa(lp1922
I47
ag1906
aF0.83345738241327
aF0.1522438703826401
aa(lp1923
I38
ag1906
aF0.412701393233744
aF0.901602040477999
aa(lp1924
I95
ag1906
aF0.14142331188849272
aF0.7672181410909066
aa(lp1925
I37
ag1906
aF0.3411352406408643
aF0.9028729653609853
aa(lp1926
I6
ag1906
aF0.9991054524321915
aF0.3904697476492064
aa(lp1927
I93
ag1906
aF0.9055326587433133
aF0.517044508032524
aa(lp1928
I4
ag1906
aF0.24107004585359754
aF0.19101458308639718
aa(lp1929
I60
ag1906
aF0.34692219690007375
aF0.9305629775933728
aa(lp1930
I1
ag1906
aF0.3388178103917552
aF0.6964393369831486
aa(lp1931
I76
ag1906
aF0.44275998009832673
aF0.7742228198272338
aa(lp1932
I24
ag1906
aF0.6263452228372456
aF0.952455717820383
aa(lp1933
I15
ag1906
aF0.17348548520346713
aF0.8206215395269664
aa(lp1934
I68
ag1906
aF0.17706780997251595
aF0.8539381025587421
aa(lp1935
I60
ag1906
aF0.5922145104644702
aF0.9349312710900685
aa(lp1936
I60
ag1906
aF0.7256618918086095
aF0.31473712405713017
aa(lp1937
I49
ag1906
aF0.10890412714047563
aF0.6474703487825102
aa(lp1938
I7
ag1906
aF0.23103070540850812
aF0.9512933095657168
aa(lp1939
I85
ag1906
aF0.7153265406727624
aF0.9943869628184414
aa(lp1940
I13
ag1906
aF0.6747883009487972
aF0.9069538446842946
aa(lp1941
I41
ag931
aF0.5750622473467589
aF0.7483520231594507
aa(lp1942
I24
ag1906
aF0.651601683222774
aF0.8882048350752402
aa(lp1943
I58
ag1906
aF0.5550240230164009
aF0.8485227672876725
aa(lp1944
I34
ag1906
aF0.8244420530303851
aF0.8058350641679678
aa(lp1945
I73
ag931
aF0.6348971476253198
aF0.2243271150481181
aa(lp1946
I22
ag1906
aF0.12881293418666015
aF0.8799316859298381
aa(lp1947
I92
ag1906
aF0.635911658080329
aF0.8949665057178902
aa(lp1948
I9
ag1906
aF0.7847837668997245
aF0.986894772011283
aa(lp1949
I40
ag1906
aF0.38642443016508354
aF0.3995989974729278
aa(lp1950
I100
ag1906
aF0.14956213219396644
aF0.5438428380316384
aa(lp1951
I9
ag1906
aF0.5096134162674559
aF0.10533779345168576
aa(lp1952
I56
ag1906
aF0.2459957834199756
aF0.8221034609280243
aa(lp1953
I47
ag1906
aF0.36305522873924645
aF0.9613999722361982
aa(lp1954
I13
ag931
aF0.3176461118573197
aF0.5725832554762738
aa(lp1955
I74
ag1906
aF0.13899732338939236
aF0.5714543092774037
aa(lp1956
I15
ag1906
aF0.3340425369275165
aF0.8411371504405114
aa(lp1957
I84
ag1906
aF0.9449617407168577
aF0.8834453811239464
aa(lp1958
I86
ag1906
aF0.8338135708349743
aF0.6887108881066611
aa(lp1959
I65
ag1906
aF0.9630055343695999
aF0.8366430740955351
aa(lp1960
I49
ag1906
aF0.14322342710628314
aF0.8247437847388539
aa(lp1961
I66
ag931
aF0.18206606941666237
aF0.23668803672411845
aa(lp1962
I58
ag1906
aF0.7551158819190036
aF0.3681818395863641
aa(lp1963
I67
ag1906
aF0.3498843433116392
aF0.8466112811276068
aa(lp1964
I37
ag1906
aF0.6870817461054007
aF0.9882318483931711
aa(lp1965
I18
ag1906
aF0.35931608057758446
aF0.748106329582376
aaaF33.92396903038025
ass.