(dp0
S'f1'
p1
(dp2
S'KNN'
p3
(lp4
(lp5
cnumpy.core.multiarray
scalar
p6
(cnumpy
dtype
p7
(S'f8'
p8
I0
I1
tp9
Rp10
(I3
S'<'
p11
NNNI-1
I-1
I0
tp12
bS'{\x14\xaeG\xe1z\x94?'
p13
tp14
Rp15
ag6
(g10
S'{\x14\xaeG\xe1z\xb4?'
p16
tp17
Rp18
ag6
(g10
S'\x00\x00\x00\x00\x00\x00\x00\x00'
p19
tp20
Rp21
ag6
(g10
S'{\x14\xaeG\xe1z\xb4?'
p22
tp23
Rp24
ag6
(g10
S'\x00\x00\x00\x00\x00\x00\x00\x00'
p25
tp26
Rp27
ag6
(g10
S'{\x14\xaeG\xe1z\x84?'
p28
tp29
Rp30
ag6
(g10
S'{\x14\xaeG\xe1z\xa4?'
p31
tp32
Rp33
ag6
(g10
S'{\x14\xaeG\xe1z\x94?'
p34
tp35
Rp36
ag6
(g10
S'\xb8\x1e\x85\xebQ\xb8\x9e?'
p37
tp38
Rp39
ag6
(g10
S'{\x14\xaeG\xe1z\xb4?'
p40
tp41
Rp42
ag6
(g10
S'\xb8\x1e\x85\xebQ\xb8\x9e?'
p43
tp44
Rp45
ag6
(g10
S'{\x14\xaeG\xe1z\xb4?'
p46
tp47
Rp48
ag6
(g10
S'{\x14\xaeG\xe1z\x94?'
p49
tp50
Rp51
ag6
(g10
S'{\x14\xaeG\xe1z\xb4?'
p52
tp53
Rp54
ag6
(g10
S'{\x14\xaeG\xe1z\x84?'
p55
tp56
Rp57
ag6
(g10
S'{\x14\xaeG\xe1z\xb4?'
p58
tp59
Rp60
ag6
(g10
S'{\x14\xaeG\xe1z\xb4?'
p61
tp62
Rp63
ag6
(g10
S'\x00\x00\x00\x00\x00\x00\x00\x00'
p64
tp65
Rp66
ag6
(g10
S'{\x14\xaeG\xe1z\xb4?'
p67
tp68
Rp69
ag6
(g10
S'\xb8\x1e\x85\xebQ\xb8\x9e?'
p70
tp71
Rp72
ag6
(g10
S'{\x14\xaeG\xe1z\xb4?'
p73
tp74
Rp75
ag6
(g10
S'{\x14\xaeG\xe1z\x94?'
p76
tp77
Rp78
ag6
(g10
S'{\x14\xaeG\xe1z\x84?'
p79
tp80
Rp81
ag6
(g10
S'{\x14\xaeG\xe1z\xa4?'
p82
tp83
Rp84
ag6
(g10
S'{\x14\xaeG\xe1z\xb4?'
p85
tp86
Rp87
ag6
(g10
S'\x00\x00\x00\x00\x00\x00\x00\x00'
p88
tp89
Rp90
ag6
(g10
S'\x00\x00\x00\x00\x00\x00\x00\x00'
p91
tp92
Rp93
ag6
(g10
S'{\x14\xaeG\xe1z\xa4?'
p94
tp95
Rp96
ag6
(g10
S'{\x14\xaeG\xe1z\xa4?'
p97
tp98
Rp99
ag6
(g10
S'{\x14\xaeG\xe1z\x84?'
p100
tp101
Rp102
ag6
(g10
S'{\x14\xaeG\xe1z\x94?'
p103
tp104
Rp105
ag6
(g10
S'{\x14\xaeG\xe1z\x84?'
p106
tp107
Rp108
ag6
(g10
S'{\x14\xaeG\xe1z\x94?'
p109
tp110
Rp111
ag6
(g10
S'{\x14\xaeG\xe1z\xb4?'
p112
tp113
Rp114
ag6
(g10
S'\xb8\x1e\x85\xebQ\xb8\x9e?'
p115
tp116
Rp117
ag6
(g10
S'{\x14\xaeG\xe1z\x84?'
p118
tp119
Rp120
ag6
(g10
S'\x00\x00\x00\x00\x00\x00\x00\x00'
p121
tp122
Rp123
ag6
(g10
S'{\x14\xaeG\xe1z\x94?'
p124
tp125
Rp126
ag6
(g10
S'\x00\x00\x00\x00\x00\x00\x00\x00'
p127
tp128
Rp129
ag6
(g10
S'{\x14\xaeG\xe1z\xb4?'
p130
tp131
Rp132
ag6
(g10
S'{\x14\xaeG\xe1z\x84?'
p133
tp134
Rp135
ag6
(g10
S'{\x14\xaeG\xe1z\xb4?'
p136
tp137
Rp138
ag6
(g10
S'{\x14\xaeG\xe1z\x84?'
p139
tp140
Rp141
ag6
(g10
S'{\x14\xaeG\xe1z\x94?'
p142
tp143
Rp144
ag6
(g10
S'{\x14\xaeG\xe1z\x94?'
p145
tp146
Rp147
ag6
(g10
S'{\x14\xaeG\xe1z\x94?'
p148
tp149
Rp150
ag6
(g10
S'{\x14\xaeG\xe1z\x94?'
p151
tp152
Rp153
ag6
(g10
S'{\x14\xaeG\xe1z\xa4?'
p154
tp155
Rp156
ag6
(g10
S'{\x14\xaeG\xe1z\xb4?'
p157
tp158
Rp159
ag6
(g10
S'{\x14\xaeG\xe1z\xb4?'
p160
tp161
Rp162
ag6
(g10
S'{\x14\xaeG\xe1z\xb4?'
p163
tp164
Rp165
ag6
(g10
S'{\x14\xaeG\xe1z\xb4?'
p166
tp167
Rp168
ag6
(g10
S'{\x14\xaeG\xe1z\xb4?'
p169
tp170
Rp171
ag6
(g10
S'{\x14\xaeG\xe1z\x84?'
p172
tp173
Rp174
ag6
(g10
S'{\x14\xaeG\xe1z\xb4?'
p175
tp176
Rp177
ag6
(g10
S'{\x14\xaeG\xe1z\x94?'
p178
tp179
Rp180
ag6
(g10
S'{\x14\xaeG\xe1z\x84?'
p181
tp182
Rp183
ag6
(g10
S'\xb8\x1e\x85\xebQ\xb8\x9e?'
p184
tp185
Rp186
ag6
(g10
S'{\x14\xaeG\xe1z\x94?'
p187
tp188
Rp189
ag6
(g10
S'\x00\x00\x00\x00\x00\x00\x00\x00'
p190
tp191
Rp192
aa(lp193
(lp194
I3
aS'uniform'
p195
aa(lp196
I2
aS'distance'
p197
aa(lp198
I6
ag195
aa(lp199
I2
ag197
aa(lp200
I9
ag195
aa(lp201
I4
ag195
aa(lp202
I3
ag197
aa(lp203
I3
ag195
aa(lp204
I5
ag197
aa(lp205
I2
ag197
aa(lp206
I4
ag197
aa(lp207
I2
ag197
aa(lp208
I8
ag197
aa(lp209
I2
ag197
aa(lp210
I9
ag197
aa(lp211
I2
ag197
aa(lp212
I2
ag197
aa(lp213
I9
ag195
aa(lp214
I2
ag197
aa(lp215
I4
ag197
aa(lp216
I2
ag197
aa(lp217
I6
ag197
aa(lp218
I10
ag197
aa(lp219
I3
ag197
aa(lp220
I2
ag197
aa(lp221
I9
ag195
aa(lp222
I8
ag195
aa(lp223
I3
ag197
aa(lp224
I3
ag197
aa(lp225
I4
ag195
aa(lp226
I8
ag197
aa(lp227
I9
ag197
aa(lp228
I5
ag195
aa(lp229
I2
ag197
aa(lp230
I4
ag197
aa(lp231
I10
ag197
aa(lp232
I10
ag195
aa(lp233
I5
ag195
aa(lp234
I6
ag195
aa(lp235
I2
ag197
aa(lp236
I9
ag197
aa(lp237
I2
ag197
aa(lp238
I2
ag195
aa(lp239
I5
ag195
aa(lp240
I8
ag197
aa(lp241
I8
ag197
aa(lp242
I5
ag195
aa(lp243
I3
ag197
aa(lp244
I2
ag197
aa(lp245
I2
ag197
aa(lp246
I2
ag197
aa(lp247
I2
ag197
aa(lp248
I2
ag197
aa(lp249
I9
ag197
aa(lp250
I2
ag197
aa(lp251
I8
ag197
aa(lp252
I2
ag195
aa(lp253
I4
ag197
aa(lp254
I5
ag195
aa(lp255
I9
ag195
aaaF4.900186061859131
asS'DTC'
p256
(lp257
(lp258
g6
(g10
S'{\x14\xaeG\xe1z\xa4?'
p259
tp260
Rp261
ag6
(g10
S'\x00\x00\x00\x00\x00\x00\x00\x00'
p262
tp263
Rp264
ag6
(g10
S'\x00\x00\x00\x00\x00\x00\x00\x00'
p265
tp266
Rp267
ag6
(g10
S'{\x14\xaeG\xe1z\x94?'
p268
tp269
Rp270
ag6
(g10
S'\x00\x00\x00\x00\x00\x00\x00\x00'
p271
tp272
Rp273
ag6
(g10
S'\x00\x00\x00\x00\x00\x00\x00\x00'
p274
tp275
Rp276
ag6
(g10
S'\x00\x00\x00\x00\x00\x00\x00\x00'
p277
tp278
Rp279
ag6
(g10
S'\xb8\x1e\x85\xebQ\xb8\xae?'
p280
tp281
Rp282
ag6
(g10
S'\xb8\x1e\x85\xebQ\xb8\x9e?'
p283
tp284
Rp285
ag6
(g10
S'\x00\x00\x00\x00\x00\x00\x00\x00'
p286
tp287
Rp288
ag6
(g10
S'\x00\x00\x00\x00\x00\x00\x00\x00'
p289
tp290
Rp291
ag6
(g10
S'\x00\x00\x00\x00\x00\x00\x00\x00'
p292
tp293
Rp294
ag6
(g10
S'\xc3\xf5(\\\x8f\xc2\xc5?'
p295
tp296
Rp297
ag6
(g10
S'\x00\x00\x00\x00\x00\x00\x00\x00'
p298
tp299
Rp300
ag6
(g10
S'\x00\x00\x00\x00\x00\x00\x00\x00'
p301
tp302
Rp303
ag6
(g10
S'\x00\x00\x00\x00\x00\x00\x00\x00'
p304
tp305
Rp306
ag6
(g10
S'\x00\x00\x00\x00\x00\x00\x00\x00'
p307
tp308
Rp309
ag6
(g10
S'\x00\x00\x00\x00\x00\x00\x00\x00'
p310
tp311
Rp312
ag6
(g10
S'\x00\x00\x00\x00\x00\x00\x00\x00'
p313
tp314
Rp315
ag6
(g10
S'\x00\x00\x00\x00\x00\x00\x00\x00'
p316
tp317
Rp318
ag6
(g10
S'\xecQ\xb8\x1e\x85\xeb\xb1?'
p319
tp320
Rp321
ag6
(g10
S'333333\xc3?'
p322
tp323
Rp324
ag6
(g10
S'\n\xd7\xa3p=\n\xb7?'
p325
tp326
Rp327
ag6
(g10
S'\x00\x00\x00\x00\x00\x00\x00\x00'
p328
tp329
Rp330
ag6
(g10
S'\n\xd7\xa3p=\n\xb7?'
p331
tp332
Rp333
ag6
(g10
S'\x00\x00\x00\x00\x00\x00\x00\x00'
p334
tp335
Rp336
ag6
(g10
S'\x00\x00\x00\x00\x00\x00\x00\x00'
p337
tp338
Rp339
ag6
(g10
S'\x00\x00\x00\x00\x00\x00\x00\x00'
p340
tp341
Rp342
ag6
(g10
S'{\x14\xaeG\xe1z\x94?'
p343
tp344
Rp345
ag6
(g10
S'{\x14\xaeG\xe1z\xa4?'
p346
tp347
Rp348
ag6
(g10
S'\x00\x00\x00\x00\x00\x00\x00\x00'
p349
tp350
Rp351
ag6
(g10
S'\x9a\x99\x99\x99\x99\x99\xa9?'
p352
tp353
Rp354
ag6
(g10
S'\xecQ\xb8\x1e\x85\xeb\xc1?'
p355
tp356
Rp357
ag6
(g10
S'\x00\x00\x00\x00\x00\x00\x00\x00'
p358
tp359
Rp360
ag6
(g10
S'\x00\x00\x00\x00\x00\x00\x00\x00'
p361
tp362
Rp363
ag6
(g10
S'\xa4p=\n\xd7\xa3\xc0?'
p364
tp365
Rp366
ag6
(g10
S'{\x14\xaeG\xe1z\x94?'
p367
tp368
Rp369
ag6
(g10
S'\xb8\x1e\x85\xebQ\xb8\xbe?'
p370
tp371
Rp372
ag6
(g10
S'\xb8\x1e\x85\xebQ\xb8\xae?'
p373
tp374
Rp375
ag6
(g10
S'\x00\x00\x00\x00\x00\x00\x00\x00'
p376
tp377
Rp378
ag6
(g10
S'\x00\x00\x00\x00\x00\x00\x00\x00'
p379
tp380
Rp381
ag6
(g10
S'\x00\x00\x00\x00\x00\x00\x00\x00'
p382
tp383
Rp384
ag6
(g10
S'\x00\x00\x00\x00\x00\x00\x00\x00'
p385
tp386
Rp387
ag6
(g10
S'\xb8\x1e\x85\xebQ\xb8\xae?'
p388
tp389
Rp390
ag6
(g10
S'\xecQ\xb8\x1e\x85\xeb\xb1?'
p391
tp392
Rp393
ag6
(g10
S'\xa4p=\n\xd7\xa3\xc0?'
p394
tp395
Rp396
ag6
(g10
S'\x00\x00\x00\x00\x00\x00\x00\x00'
p397
tp398
Rp399
ag6
(g10
S'\x00\x00\x00\x00\x00\x00\x00\x00'
p400
tp401
Rp402
ag6
(g10
S'\xa4p=\n\xd7\xa3\xc0?'
p403
tp404
Rp405
ag6
(g10
S'\x00\x00\x00\x00\x00\x00\x00\x00'
p406
tp407
Rp408
ag6
(g10
S'\n\xd7\xa3p=\n\xb7?'
p409
tp410
Rp411
ag6
(g10
S'\x00\x00\x00\x00\x00\x00\x00\x00'
p412
tp413
Rp414
ag6
(g10
S'\x00\x00\x00\x00\x00\x00\x00\x00'
p415
tp416
Rp417
ag6
(g10
S'\x00\x00\x00\x00\x00\x00\x00\x00'
p418
tp419
Rp420
ag6
(g10
S'\x00\x00\x00\x00\x00\x00\x00\x00'
p421
tp422
Rp423
ag6
(g10
S'\x00\x00\x00\x00\x00\x00\x00\x00'
p424
tp425
Rp426
ag6
(g10
S'\x9a\x99\x99\x99\x99\x99\xa9?'
p427
tp428
Rp429
ag6
(g10
S'\x00\x00\x00\x00\x00\x00\x00\x00'
p430
tp431
Rp432
ag6
(g10
S'\x00\x00\x00\x00\x00\x00\x00\x00'
p433
tp434
Rp435
ag6
(g10
S'{\x14\xaeG\xe1z\xa4?'
p436
tp437
Rp438
aa(lp439
(lp440
S'entropy'
p441
aF0.6038584105217824
aI18
aI4
aI13
aa(lp442
S'gini'
p443
aF0.4128619855882478
aI30
aI3
aI13
aa(lp444
g443
aF0.16840136483721913
aI17
aI14
aI21
aa(lp445
g443
aF0.7681523516751391
aI18
aI1
aI12
aa(lp446
g443
aF0.6894473289933425
aI28
aI1
aI6
aa(lp447
g441
aF0.9740145188287467
aI19
aI19
aI16
aa(lp448
g443
aF0.33428906657302493
aI23
aI13
aI3
aa(lp449
g441
aF0.3831854101195187
aI12
aI7
aI7
aa(lp450
g443
aF0.10703526468171068
aI2
aI5
aI9
aa(lp451
g441
aF0.47781752984270165
aI14
aI16
aI18
aa(lp452
g443
aF0.9627290026948108
aI29
aI11
aI13
aa(lp453
g443
aF0.4224216168666024
aI25
aI20
aI13
aa(lp454
g441
aF0.9266511811058195
aI5
aI1
aI14
aa(lp455
g443
aF0.488153217261159
aI12
aI18
aI14
aa(lp456
g441
aF0.8519116486220241
aI26
aI19
aI20
aa(lp457
g441
aF0.20240888302696158
aI13
aI9
aI4
aa(lp458
g443
aF0.9095307846593874
aI30
aI12
aI3
aa(lp459
g443
aF0.5382383647918163
aI21
aI17
aI21
aa(lp460
g441
aF0.7512951097058543
aI5
aI9
aI1
aa(lp461
g443
aF0.1908036233864714
aI14
aI18
aI19
aa(lp462
g441
aF0.5443839294345099
aI5
aI4
aI21
aa(lp463
g443
aF0.38618247104061976
aI2
aI1
aI20
aa(lp464
g443
aF0.27268823030282524
aI15
aI1
aI12
aa(lp465
g443
aF0.2676790938817286
aI29
aI13
aI7
aa(lp466
g441
aF0.729065050541779
aI3
aI1
aI21
aa(lp467
g441
aF0.6581541379349007
aI9
aI7
aI21
aa(lp468
g443
aF0.7772118778368543
aI12
aI19
aI13
aa(lp469
g441
aF0.21806836986951794
aI10
aI8
aI21
aa(lp470
g443
aF0.8617804424434471
aI17
aI1
aI4
aa(lp471
g441
aF0.7235293206991414
aI18
aI5
aI4
aa(lp472
g443
aF0.9843941335701645
aI3
aI17
aI3
aa(lp473
g441
aF0.5016019074928162
aI8
aI7
aI12
aa(lp474
g441
aF0.8735075278631929
aI13
aI1
aI14
aa(lp475
g441
aF0.3788943912313455
aI24
aI3
aI2
aa(lp476
g441
aF0.2721951569552947
aI17
aI13
aI12
aa(lp477
g441
aF0.6566211105956966
aI6
aI3
aI5
aa(lp478
g443
aF0.7375997318242995
aI30
aI1
aI14
aa(lp479
g441
aF0.5233580807179873
aI7
aI3
aI21
aa(lp480
g441
aF0.3838399790763676
aI12
aI4
aI9
aa(lp481
g441
aF0.444476964815796
aI10
aI1
aI4
aa(lp482
g441
aF0.6284173050705546
aI9
aI8
aI4
aa(lp483
g441
aF0.8351465771665788
aI23
aI20
aI4
aa(lp484
g441
aF0.9321840189159787
aI2
aI10
aI21
aa(lp485
g441
aF0.873923746170592
aI15
aI5
aI17
aa(lp486
g441
aF0.5569853462612929
aI21
aI2
aI10
aa(lp487
g441
aF0.718999483880846
aI8
aI4
aI21
aa(lp488
g443
aF0.45133702663069053
aI22
aI13
aI5
aa(lp489
g441
aF0.1100078754621409
aI15
aI14
aI20
aa(lp490
g441
aF0.9485967296821071
aI9
aI2
aI12
aa(lp491
g443
aF0.8123328704224361
aI12
aI2
aI20
aa(lp492
g441
aF0.7059480248704013
aI5
aI2
aI13
aa(lp493
g443
aF0.9220192138882757
aI12
aI5
aI14
aa(lp494
g443
aF0.7128229213285097
aI18
aI8
aI7
aa(lp495
g443
aF0.7430055601985399
aI14
aI7
aI17
aa(lp496
g443
aF0.13825998201256012
aI22
aI17
aI10
aa(lp497
g443
aF0.4702824790273128
aI3
aI9
aI7
aa(lp498
g443
aF0.30810081637822095
aI20
aI1
aI4
aa(lp499
g441
aF0.8854395564971299
aI27
aI20
aI9
aa(lp500
g443
aF0.7323807650646453
aI14
aI18
aI8
aa(lp501
g441
aF0.6498611913430825
aI2
aI3
aI9
aaaF2.6883938312530518
asS'RF'
p502
(lp503
(lp504
g6
(g10
S'\x00\x00\x00\x00\x00\x00\x00\x00'
p505
tp506
Rp507
ag6
(g10
S'\x00\x00\x00\x00\x00\x00\x00\x00'
p508
tp509
Rp510
ag6
(g10
S'\x00\x00\x00\x00\x00\x00\x00\x00'
p511
tp512
Rp513
ag6
(g10
S'\x00\x00\x00\x00\x00\x00\x00\x00'
p514
tp515
Rp516
ag6
(g10
S'\x00\x00\x00\x00\x00\x00\x00\x00'
p517
tp518
Rp519
ag6
(g10
S'\x00\x00\x00\x00\x00\x00\x00\x00'
p520
tp521
Rp522
ag6
(g10
S'\x00\x00\x00\x00\x00\x00\x00\x00'
p523
tp524
Rp525
ag6
(g10
S'\x00\x00\x00\x00\x00\x00\x00\x00'
p526
tp527
Rp528
ag6
(g10
S'\x00\x00\x00\x00\x00\x00\x00\x00'
p529
tp530
Rp531
ag6
(g10
S'\x00\x00\x00\x00\x00\x00\x00\x00'
p532
tp533
Rp534
ag6
(g10
S'{\x14\xaeG\xe1z\xa4?'
p535
tp536
Rp537
ag6
(g10
S'\x00\x00\x00\x00\x00\x00\x00\x00'
p538
tp539
Rp540
ag6
(g10
S'\xb8\x1e\x85\xebQ\xb8\x9e?'
p541
tp542
Rp543
ag6
(g10
S'\x00\x00\x00\x00\x00\x00\x00\x00'
p544
tp545
Rp546
ag6
(g10
S'\x00\x00\x00\x00\x00\x00\x00\x00'
p547
tp548
Rp549
ag6
(g10
S'\x00\x00\x00\x00\x00\x00\x00\x00'
p550
tp551
Rp552
ag6
(g10
S'\x00\x00\x00\x00\x00\x00\x00\x00'
p553
tp554
Rp555
ag6
(g10
S'\x00\x00\x00\x00\x00\x00\x00\x00'
p556
tp557
Rp558
ag6
(g10
S'\x00\x00\x00\x00\x00\x00\x00\x00'
p559
tp560
Rp561
ag6
(g10
S'\x00\x00\x00\x00\x00\x00\x00\x00'
p562
tp563
Rp564
ag6
(g10
S'\x00\x00\x00\x00\x00\x00\x00\x00'
p565
tp566
Rp567
ag6
(g10
S'\x00\x00\x00\x00\x00\x00\x00\x00'
p568
tp569
Rp570
ag6
(g10
S'\x00\x00\x00\x00\x00\x00\x00\x00'
p571
tp572
Rp573
ag6
(g10
S'\x00\x00\x00\x00\x00\x00\x00\x00'
p574
tp575
Rp576
ag6
(g10
S'\x00\x00\x00\x00\x00\x00\x00\x00'
p577
tp578
Rp579
ag6
(g10
S'\x00\x00\x00\x00\x00\x00\x00\x00'
p580
tp581
Rp582
ag6
(g10
S'\xb8\x1e\x85\xebQ\xb8\xae?'
p583
tp584
Rp585
ag6
(g10
S'\x00\x00\x00\x00\x00\x00\x00\x00'
p586
tp587
Rp588
ag6
(g10
S'\x00\x00\x00\x00\x00\x00\x00\x00'
p589
tp590
Rp591
ag6
(g10
S'\x00\x00\x00\x00\x00\x00\x00\x00'
p592
tp593
Rp594
ag6
(g10
S'\x00\x00\x00\x00\x00\x00\x00\x00'
p595
tp596
Rp597
ag6
(g10
S'\xb8\x1e\x85\xebQ\xb8\x9e?'
p598
tp599
Rp600
ag6
(g10
S'\x00\x00\x00\x00\x00\x00\x00\x00'
p601
tp602
Rp603
ag6
(g10
S'\x00\x00\x00\x00\x00\x00\x00\x00'
p604
tp605
Rp606
ag6
(g10
S'\x00\x00\x00\x00\x00\x00\x00\x00'
p607
tp608
Rp609
ag6
(g10
S'\x00\x00\x00\x00\x00\x00\x00\x00'
p610
tp611
Rp612
ag6
(g10
S'\x00\x00\x00\x00\x00\x00\x00\x00'
p613
tp614
Rp615
ag6
(g10
S'\x00\x00\x00\x00\x00\x00\x00\x00'
p616
tp617
Rp618
ag6
(g10
S'\xb8\x1e\x85\xebQ\xb8\x9e?'
p619
tp620
Rp621
ag6
(g10
S'\x00\x00\x00\x00\x00\x00\x00\x00'
p622
tp623
Rp624
ag6
(g10
S'\x00\x00\x00\x00\x00\x00\x00\x00'
p625
tp626
Rp627
ag6
(g10
S'\x00\x00\x00\x00\x00\x00\x00\x00'
p628
tp629
Rp630
ag6
(g10
S'\x00\x00\x00\x00\x00\x00\x00\x00'
p631
tp632
Rp633
ag6
(g10
S'\xb8\x1e\x85\xebQ\xb8\x9e?'
p634
tp635
Rp636
ag6
(g10
S'\x00\x00\x00\x00\x00\x00\x00\x00'
p637
tp638
Rp639
ag6
(g10
S'\x00\x00\x00\x00\x00\x00\x00\x00'
p640
tp641
Rp642
ag6
(g10
S'\x00\x00\x00\x00\x00\x00\x00\x00'
p643
tp644
Rp645
ag6
(g10
S'\x00\x00\x00\x00\x00\x00\x00\x00'
p646
tp647
Rp648
ag6
(g10
S'{\x14\xaeG\xe1z\xa4?'
p649
tp650
Rp651
ag6
(g10
S'\x00\x00\x00\x00\x00\x00\x00\x00'
p652
tp653
Rp654
ag6
(g10
S'\x00\x00\x00\x00\x00\x00\x00\x00'
p655
tp656
Rp657
ag6
(g10
S'\x00\x00\x00\x00\x00\x00\x00\x00'
p658
tp659
Rp660
ag6
(g10
S'\x00\x00\x00\x00\x00\x00\x00\x00'
p661
tp662
Rp663
ag6
(g10
S'{\x14\xaeG\xe1z\x84?'
p664
tp665
Rp666
ag6
(g10
S'\x00\x00\x00\x00\x00\x00\x00\x00'
p667
tp668
Rp669
ag6
(g10
S'\xecQ\xb8\x1e\x85\xeb\xb1?'
p670
tp671
Rp672
ag6
(g10
S'\x00\x00\x00\x00\x00\x00\x00\x00'
p673
tp674
Rp675
ag6
(g10
S'\x00\x00\x00\x00\x00\x00\x00\x00'
p676
tp677
Rp678
ag6
(g10
S'\x00\x00\x00\x00\x00\x00\x00\x00'
p679
tp680
Rp681
ag6
(g10
S'\x00\x00\x00\x00\x00\x00\x00\x00'
p682
tp683
Rp684
aa(lp685
(lp686
g441
aF0.645099050542801
aI5
aI18
aI47
aa(lp687
g443
aF0.4879021449813902
aI20
aI6
aI92
aa(lp688
g443
aF0.893851318721138
aI19
aI4
aI98
aa(lp689
g441
aF0.9256928108721
aI14
aI4
aI76
aa(lp690
g443
aF0.23003245551091683
aI7
aI18
aI28
aa(lp691
g443
aF0.17257627142363352
aI27
aI13
aI23
aa(lp692
g441
aF0.5834076322662373
aI27
aI15
aI89
aa(lp693
g443
aF0.6582191304990004
aI26
aI18
aI75
aa(lp694
g443
aF0.14566652844203815
aI27
aI14
aI27
aa(lp695
g443
aF0.3693475272854385
aI25
aI12
aI69
aa(lp696
g443
aF0.9518328572808125
aI20
aI2
aI63
aa(lp697
g441
aF0.589078508631682
aI20
aI4
aI57
aa(lp698
g441
aF0.7618120320482245
aI4
aI3
aI67
aa(lp699
g441
aF0.33783282306328943
aI20
aI15
aI80
aa(lp700
g443
aF0.9548553937168849
aI13
aI14
aI27
aa(lp701
g443
aF0.8808676284579069
aI19
aI10
aI61
aa(lp702
g441
aF0.3471730537924409
aI7
aI14
aI35
aa(lp703
g441
aF0.15396050311614834
aI3
aI12
aI45
aa(lp704
g443
aF0.307766537762433
aI15
aI11
aI21
aa(lp705
g441
aF0.8958762836399567
aI15
aI10
aI71
aa(lp706
g441
aF0.4922687926951498
aI11
aI20
aI82
aa(lp707
g441
aF0.46101466814942227
aI17
aI8
aI75
aa(lp708
g443
aF0.8280638805117729
aI4
aI11
aI33
aa(lp709
g441
aF0.5251960263617299
aI25
aI20
aI91
aa(lp710
g443
aF0.3194193697476841
aI20
aI12
aI62
aa(lp711
g441
aF0.3234475602104203
aI6
aI14
aI34
aa(lp712
g443
aF0.8601977988847408
aI20
aI1
aI57
aa(lp713
g441
aF0.9248141288613786
aI27
aI18
aI69
aa(lp714
g441
aF0.9909452121581335
aI16
aI11
aI12
aa(lp715
g443
aF0.8344091648481511
aI8
aI17
aI65
aa(lp716
g443
aF0.6691904013636484
aI14
aI6
aI36
aa(lp717
g443
aF0.7895887883562946
aI12
aI3
aI77
aa(lp718
g443
aF0.3725918759407503
aI6
aI18
aI50
aa(lp719
g443
aF0.4938976797260095
aI8
aI19
aI72
aa(lp720
g441
aF0.5034801251471018
aI25
aI17
aI56
aa(lp721
g443
aF0.6423917941622123
aI22
aI13
aI22
aa(lp722
g441
aF0.13840237376321868
aI28
aI8
aI90
aa(lp723
g441
aF0.10778222683113231
aI22
aI19
aI89
aa(lp724
g443
aF0.49875378519681113
aI4
aI3
aI79
aa(lp725
g443
aF0.44753494240214975
aI27
aI3
aI21
aa(lp726
g443
aF0.7789849611910669
aI7
aI16
aI46
aa(lp727
g443
aF0.5012918419113468
aI6
aI9
aI52
aa(lp728
g441
aF0.9765930187405796
aI21
aI5
aI34
aa(lp729
g443
aF0.6382176911353958
aI7
aI2
aI97
aa(lp730
g441
aF0.7068972051960145
aI30
aI3
aI82
aa(lp731
g443
aF0.8233740414978583
aI19
aI14
aI78
aa(lp732
g441
aF0.7179959825519973
aI2
aI11
aI87
aa(lp733
g441
aF0.1898224919674099
aI24
aI19
aI36
aa(lp734
g443
aF0.9711079556703219
aI23
aI3
aI11
aa(lp735
g441
aF0.667394534226286
aI22
aI4
aI29
aa(lp736
g441
aF0.9373657251908661
aI21
aI9
aI84
aa(lp737
g443
aF0.5857272614593523
aI16
aI4
aI44
aa(lp738
g443
aF0.2867818473190149
aI23
aI8
aI91
aa(lp739
g441
aF0.8669826986173297
aI25
aI1
aI12
aa(lp740
g443
aF0.8352855101143714
aI16
aI13
aI94
aa(lp741
g443
aF0.7172116124502149
aI15
aI1
aI21
aa(lp742
g443
aF0.1317177536805817
aI25
aI4
aI85
aa(lp743
g443
aF0.2958401100962573
aI8
aI5
aI12
aa(lp744
g441
aF0.4321546764768929
aI14
aI3
aI41
aa(lp745
g443
aF0.8427028637861965
aI23
aI13
aI61
aaaF1315.3347010612488
asS'SVM'
p746
(lp747
(lp748
g6
(g10
S'{\x14\xaeG\xe1z\x84?'
p749
tp750
Rp751
ag6
(g10
S'{\x14\xaeG\xe1z\x84?'
p752
tp753
Rp754
ag6
(g10
S'\x00\x00\x00\x00\x00\x00\x00\x00'
p755
tp756
Rp757
ag6
(g10
S'\x00\x00\x00\x00\x00\x00\x00\x00'
p758
tp759
Rp760
ag6
(g10
S'{\x14\xaeG\xe1z\x84?'
p761
tp762
Rp763
ag6
(g10
S'\x00\x00\x00\x00\x00\x00\x00\x00'
p764
tp765
Rp766
ag6
(g10
S'{\x14\xaeG\xe1z\x84?'
p767
tp768
Rp769
ag6
(g10
S'\x00\x00\x00\x00\x00\x00\x00\x00'
p770
tp771
Rp772
ag6
(g10
S'{\x14\xaeG\xe1z\x84?'
p773
tp774
Rp775
ag6
(g10
S'\x00\x00\x00\x00\x00\x00\x00\x00'
p776
tp777
Rp778
ag6
(g10
S'\x00\x00\x00\x00\x00\x00\x00\x00'
p779
tp780
Rp781
ag6
(g10
S'\x00\x00\x00\x00\x00\x00\x00\x00'
p782
tp783
Rp784
ag6
(g10
S'\x00\x00\x00\x00\x00\x00\x00\x00'
p785
tp786
Rp787
ag6
(g10
S'\x00\x00\x00\x00\x00\x00\x00\x00'
p788
tp789
Rp790
ag6
(g10
S'{\x14\xaeG\xe1z\x84?'
p791
tp792
Rp793
ag6
(g10
S'\x00\x00\x00\x00\x00\x00\x00\x00'
p794
tp795
Rp796
ag6
(g10
S'{\x14\xaeG\xe1z\x84?'
p797
tp798
Rp799
ag6
(g10
S'\x00\x00\x00\x00\x00\x00\x00\x00'
p800
tp801
Rp802
ag6
(g10
S'{\x14\xaeG\xe1z\x84?'
p803
tp804
Rp805
ag6
(g10
S'{\x14\xaeG\xe1z\x84?'
p806
tp807
Rp808
ag6
(g10
S'\x00\x00\x00\x00\x00\x00\x00\x00'
p809
tp810
Rp811
ag6
(g10
S'\x00\x00\x00\x00\x00\x00\x00\x00'
p812
tp813
Rp814
ag6
(g10
S'{\x14\xaeG\xe1z\x84?'
p815
tp816
Rp817
ag6
(g10
S'\x00\x00\x00\x00\x00\x00\x00\x00'
p818
tp819
Rp820
ag6
(g10
S'{\x14\xaeG\xe1z\x84?'
p821
tp822
Rp823
ag6
(g10
S'\x00\x00\x00\x00\x00\x00\x00\x00'
p824
tp825
Rp826
ag6
(g10
S'\x00\x00\x00\x00\x00\x00\x00\x00'
p827
tp828
Rp829
ag6
(g10
S'{\x14\xaeG\xe1z\x84?'
p830
tp831
Rp832
ag6
(g10
S'\x00\x00\x00\x00\x00\x00\x00\x00'
p833
tp834
Rp835
ag6
(g10
S'\x00\x00\x00\x00\x00\x00\x00\x00'
p836
tp837
Rp838
ag6
(g10
S'{\x14\xaeG\xe1z\x84?'
p839
tp840
Rp841
ag6
(g10
S'{\x14\xaeG\xe1z\x84?'
p842
tp843
Rp844
ag6
(g10
S'{\x14\xaeG\xe1z\x94?'
p845
tp846
Rp847
ag6
(g10
S'{\x14\xaeG\xe1z\x84?'
p848
tp849
Rp850
ag6
(g10
S'\x00\x00\x00\x00\x00\x00\x00\x00'
p851
tp852
Rp853
ag6
(g10
S'\x00\x00\x00\x00\x00\x00\x00\x00'
p854
tp855
Rp856
ag6
(g10
S'\x00\x00\x00\x00\x00\x00\x00\x00'
p857
tp858
Rp859
ag6
(g10
S'\x00\x00\x00\x00\x00\x00\x00\x00'
p860
tp861
Rp862
ag6
(g10
S'\x00\x00\x00\x00\x00\x00\x00\x00'
p863
tp864
Rp865
ag6
(g10
S'{\x14\xaeG\xe1z\x94?'
p866
tp867
Rp868
ag6
(g10
S'\x00\x00\x00\x00\x00\x00\x00\x00'
p869
tp870
Rp871
ag6
(g10
S'{\x14\xaeG\xe1z\x84?'
p872
tp873
Rp874
ag6
(g10
S'{\x14\xaeG\xe1z\x94?'
p875
tp876
Rp877
ag6
(g10
S'{\x14\xaeG\xe1z\x84?'
p878
tp879
Rp880
ag6
(g10
S'{\x14\xaeG\xe1z\x84?'
p881
tp882
Rp883
ag6
(g10
S'{\x14\xaeG\xe1z\x84?'
p884
tp885
Rp886
ag6
(g10
S'\x00\x00\x00\x00\x00\x00\x00\x00'
p887
tp888
Rp889
ag6
(g10
S'{\x14\xaeG\xe1z\x94?'
p890
tp891
Rp892
ag6
(g10
S'{\x14\xaeG\xe1z\x84?'
p893
tp894
Rp895
ag6
(g10
S'{\x14\xaeG\xe1z\x84?'
p896
tp897
Rp898
ag6
(g10
S'\x00\x00\x00\x00\x00\x00\x00\x00'
p899
tp900
Rp901
ag6
(g10
S'\x00\x00\x00\x00\x00\x00\x00\x00'
p902
tp903
Rp904
ag6
(g10
S'\x00\x00\x00\x00\x00\x00\x00\x00'
p905
tp906
Rp907
ag6
(g10
S'\x00\x00\x00\x00\x00\x00\x00\x00'
p908
tp909
Rp910
ag6
(g10
S'{\x14\xaeG\xe1z\x94?'
p911
tp912
Rp913
ag6
(g10
S'\x00\x00\x00\x00\x00\x00\x00\x00'
p914
tp915
Rp916
ag6
(g10
S'\x00\x00\x00\x00\x00\x00\x00\x00'
p917
tp918
Rp919
ag6
(g10
S'\x00\x00\x00\x00\x00\x00\x00\x00'
p920
tp921
Rp922
ag6
(g10
S'{\x14\xaeG\xe1z\x84?'
p923
tp924
Rp925
ag6
(g10
S'{\x14\xaeG\xe1z\x84?'
p926
tp927
Rp928
aa(lp929
(lp930
I65
aS'sigmoid'
p931
aF0.9343125047481614
aF0.8610630303723591
aa(lp932
I34
ag931
aF0.8503444201305205
aF0.7918675053407149
aa(lp933
I70
aS'rbf'
p934
aF0.13449531185443914
aF0.9724910807346249
aa(lp935
I31
ag934
aF0.7665398540538466
aF0.9223154264803325
aa(lp936
I26
ag931
aF0.5682413734755922
aF0.8134415378039768
aa(lp937
I10
ag934
aF0.32538857548747774
aF0.33951472970982444
aa(lp938
I100
ag931
aF0.5077690846557761
aF0.8871956143141364
aa(lp939
I44
ag934
aF0.8949706312593257
aF0.3653503320034749
aa(lp940
I39
ag931
aF0.42175101649047664
aF0.5751178298266383
aa(lp941
I69
ag934
aF0.9679368435987269
aF0.4375358832834926
aa(lp942
I36
ag934
aF0.9235413854126941
aF0.6011195945165465
aa(lp943
I93
ag934
aF0.8103519321834642
aF0.8424137506367735
aa(lp944
I79
ag934
aF0.5033734512346975
aF0.1402853843046909
aa(lp945
I19
ag934
aF0.9389890413631022
aF0.9383430663048009
aa(lp946
I34
ag931
aF0.25054185267534096
aF0.5667644214211304
aa(lp947
I41
ag934
aF0.6875741560104534
aF0.3260206686170398
aa(lp948
I100
ag931
aF0.6611170103739114
aF0.6017047481034671
aa(lp949
I26
ag934
aF0.8422265703062671
aF0.6885650811620521
aa(lp950
I7
ag931
aF0.230916216250328
aF0.6195127506733739
aa(lp951
I34
ag931
aF0.8807833446328075
aF0.26893885661995853
aa(lp952
I23
ag934
aF0.25723327985674377
aF0.829790473352327
aa(lp953
I48
ag934
aF0.18839788670369464
aF0.9683169651830899
aa(lp954
I28
ag931
aF0.7042349014027988
aF0.7064094569625184
aa(lp955
I17
ag934
aF0.6469031753527225
aF0.6161054157744011
aa(lp956
I80
ag931
aF0.7676876692444182
aF0.8759513326107897
aa(lp957
I71
ag934
aF0.8722427518268578
aF0.2285970842365386
aa(lp958
I84
ag934
aF0.3375962748304318
aF0.9802440413166525
aa(lp959
I79
ag931
aF0.5231727469171505
aF0.8819347549914729
aa(lp960
I63
ag934
aF0.7918365142274431
aF0.6438693450444567
aa(lp961
I9
ag934
aF0.8735620342313499
aF0.8649578938014735
aa(lp962
I76
ag931
aF0.6699169661036557
aF0.19344280812602754
aa(lp963
I18
ag931
aF0.893220701598067
aF0.619558087418617
aa(lp964
I57
ag931
aF0.3143359246686145
aF0.4846370801390719
aa(lp965
I37
ag931
aF0.23372795678000802
aF0.6337122325587228
aa(lp966
I100
ag934
aF0.8011746376812328
aF0.3745341509482272
aa(lp967
I71
ag934
aF0.5583478381110243
aF0.6386295379344548
aa(lp968
I30
ag934
aF0.20362411311443493
aF0.7174438893979355
aa(lp969
I85
ag934
aF0.9169062294478831
aF0.18058881763210538
aa(lp970
I81
ag934
aF0.7474898511247963
aF0.6513429876564872
aa(lp971
I75
ag931
aF0.37172121370545785
aF0.44716415074029436
aa(lp972
I84
ag934
aF0.8679500048558663
aF0.5736321315359865
aa(lp973
I23
ag931
aF0.6813812412950737
aF0.198123515510549
aa(lp974
I15
ag931
aF0.2799926677665147
aF0.11768976407824136
aa(lp975
I94
ag931
aF0.2943250398691109
aF0.8932363032712967
aa(lp976
I45
ag931
aF0.5487237840446916
aF0.54714377933833
aa(lp977
I43
ag931
aF0.8812585646147859
aF0.7969299195348476
aa(lp978
I17
ag934
aF0.3191792416074382
aF0.32853644937929527
aa(lp979
I43
ag931
aF0.41475197226987737
aF0.4018270676561583
aa(lp980
I8
ag931
aF0.15918959469899194
aF0.4387087827195264
aa(lp981
I51
ag931
aF0.6142188507646843
aF0.2774040489564849
aa(lp982
I17
ag934
aF0.3446500326142419
aF0.32154528692763973
aa(lp983
I13
ag931
aF0.9406624784727234
aF0.8314973329241241
aa(lp984
I81
ag934
aF0.6575881190217083
aF0.40629327151778283
aa(lp985
I73
ag934
aF0.6969024810152071
aF0.1874547098896216
aa(lp986
I51
ag931
aF0.42035113569859506
aF0.37800235624585543
aa(lp987
I85
ag934
aF0.8153703836078456
aF0.8032524701487442
aa(lp988
I47
ag934
aF0.17876808213086495
aF0.9301287892563157
aa(lp989
I20
ag934
aF0.3340700649886641
aF0.8094304021641515
aa(lp990
I49
ag931
aF0.2798143465159656
aF0.7134448907808547
aa(lp991
I46
ag931
aF0.526553808956388
aF0.33292514595760386
aaaF9.632030963897705
assS'precision'
p992
(dp993
g3
(lp994
(lp995
g6
(g10
S'\x00\x00\x00\x00\x00\x00\xe0?'
p996
tp997
Rp998
ag6
(g10
S'\x14\xaeG\xe1z\x14\xde?'
p999
tp1000
Rp1001
ag6
(g10
S'\x14\xaeG\xe1z\x14\xde?'
p1002
tp1003
Rp1004
ag6
(g10
S'=\n\xd7\xa3p=\xe2?'
p1005
tp1006
Rp1007
ag6
(g10
S'\x00\x00\x00\x00\x00\x00\x00\x00'
p1008
tp1009
Rp1010
ag6
(g10
S'\x00\x00\x00\x00\x00\x00\xf0?'
p1011
tp1012
Rp1013
ag6
(g10
S'\x00\x00\x00\x00\x00\x00\xe0?'
p1014
tp1015
Rp1016
ag6
(g10
S'\x14\xaeG\xe1z\x14\xde?'
p1017
tp1018
Rp1019
ag6
(g10
S'q=\n\xd7\xa3p\xe5?'
p1020
tp1021
Rp1022
ag6
(g10
S'q=\n\xd7\xa3p\xe5?'
p1023
tp1024
Rp1025
ag6
(g10
S'\x14\xaeG\xe1z\x14\xde?'
p1026
tp1027
Rp1028
ag6
(g10
S'q=\n\xd7\xa3p\xe5?'
p1029
tp1030
Rp1031
ag6
(g10
S'\x14\xaeG\xe1z\x14\xde?'
p1032
tp1033
Rp1034
ag6
(g10
S'\x00\x00\x00\x00\x00\x00\xf0?'
p1035
tp1036
Rp1037
ag6
(g10
S'\x00\x00\x00\x00\x00\x00\x00\x00'
p1038
tp1039
Rp1040
ag6
(g10
S'\x00\x00\x00\x00\x00\x00\xf0?'
p1041
tp1042
Rp1043
ag6
(g10
S'=\n\xd7\xa3p=\xe2?'
p1044
tp1045
Rp1046
ag6
(g10
S'\x14\xaeG\xe1z\x14\xde?'
p1047
tp1048
Rp1049
ag6
(g10
S'\x00\x00\x00\x00\x00\x00\xf0?'
p1050
tp1051
Rp1052
ag6
(g10
S'333333\xe3?'
p1053
tp1054
Rp1055
ag6
(g10
S'\x14\xaeG\xe1z\x14\xde?'
p1056
tp1057
Rp1058
ag6
(g10
S'q=\n\xd7\xa3p\xe5?'
p1059
tp1060
Rp1061
ag6
(g10
S'\x00\x00\x00\x00\x00\x00\xe8?'
p1062
tp1063
Rp1064
ag6
(g10
S'\x14\xaeG\xe1z\x14\xde?'
p1065
tp1066
Rp1067
ag6
(g10
S'\x00\x00\x00\x00\x00\x00\xe8?'
p1068
tp1069
Rp1070
ag6
(g10
S'\x14\xaeG\xe1z\x14\xde?'
p1071
tp1072
Rp1073
ag6
(g10
S'q=\n\xd7\xa3p\xe5?'
p1074
tp1075
Rp1076
ag6
(g10
S'\x00\x00\x00\x00\x00\x00\x00\x00'
p1077
tp1078
Rp1079
ag6
(g10
S'\x14\xaeG\xe1z\x14\xde?'
p1080
tp1081
Rp1082
ag6
(g10
S'\x14\xaeG\xe1z\x14\xde?'
p1083
tp1084
Rp1085
ag6
(g10
S'\x00\x00\x00\x00\x00\x00\xf0?'
p1086
tp1087
Rp1088
ag6
(g10
S'333333\xe3?'
p1089
tp1090
Rp1091
ag6
(g10
S'q=\n\xd7\xa3p\xe5?'
p1092
tp1093
Rp1094
ag6
(g10
S'\x14\xaeG\xe1z\x14\xde?'
p1095
tp1096
Rp1097
ag6
(g10
S'\x00\x00\x00\x00\x00\x00\x00\x00'
p1098
tp1099
Rp1100
ag6
(g10
S'\x14\xaeG\xe1z\x14\xde?'
p1101
tp1102
Rp1103
ag6
(g10
S'\x1f\x85\xebQ\xb8\x1e\xd5?'
p1104
tp1105
Rp1106
ag6
(g10
S'\x14\xaeG\xe1z\x14\xde?'
p1107
tp1108
Rp1109
ag6
(g10
S'=\n\xd7\xa3p=\xe2?'
p1110
tp1111
Rp1112
ag6
(g10
S'\x00\x00\x00\x00\x00\x00\xf0?'
p1113
tp1114
Rp1115
ag6
(g10
S'q=\n\xd7\xa3p\xe5?'
p1116
tp1117
Rp1118
ag6
(g10
S'\x14\xaeG\xe1z\x14\xde?'
p1119
tp1120
Rp1121
ag6
(g10
S'\x14\xaeG\xe1z\x14\xde?'
p1122
tp1123
Rp1124
ag6
(g10
S'\x14\xaeG\xe1z\x14\xde?'
p1125
tp1126
Rp1127
ag6
(g10
S'\x14\xaeG\xe1z\x14\xde?'
p1128
tp1129
Rp1130
ag6
(g10
S'\x00\x00\x00\x00\x00\x00\x00\x00'
p1131
tp1132
Rp1133
ag6
(g10
S'\x00\x00\x00\x00\x00\x00\xf0?'
p1134
tp1135
Rp1136
ag6
(g10
S'q=\n\xd7\xa3p\xe5?'
p1137
tp1138
Rp1139
ag6
(g10
S'=\n\xd7\xa3p=\xe2?'
p1140
tp1141
Rp1142
ag6
(g10
S'q=\n\xd7\xa3p\xe5?'
p1143
tp1144
Rp1145
ag6
(g10
S'q=\n\xd7\xa3p\xe5?'
p1146
tp1147
Rp1148
ag6
(g10
S'\x14\xaeG\xe1z\x14\xde?'
p1149
tp1150
Rp1151
ag6
(g10
S'\x14\xaeG\xe1z\x14\xde?'
p1152
tp1153
Rp1154
ag6
(g10
S'\x00\x00\x00\x00\x00\x00\x00\x00'
p1155
tp1156
Rp1157
ag6
(g10
S'q=\n\xd7\xa3p\xe5?'
p1158
tp1159
Rp1160
ag6
(g10
S'333333\xe3?'
p1161
tp1162
Rp1163
ag6
(g10
S'\x00\x00\x00\x00\x00\x00\xe0?'
p1164
tp1165
Rp1166
ag6
(g10
S'q=\n\xd7\xa3p\xe5?'
p1167
tp1168
Rp1169
ag6
(g10
S'=\n\xd7\xa3p=\xe2?'
p1170
tp1171
Rp1172
ag6
(g10
S'=\n\xd7\xa3p=\xe2?'
p1173
tp1174
Rp1175
aa(lp1176
(lp1177
I3
ag195
aa(lp1178
I2
ag197
aa(lp1179
I2
ag197
aa(lp1180
I3
ag197
aa(lp1181
I7
ag195
aa(lp1182
I4
ag195
aa(lp1183
I3
ag195
aa(lp1184
I2
ag197
aa(lp1185
I8
ag197
aa(lp1186
I6
ag197
aa(lp1187
I2
ag197
aa(lp1188
I8
ag197
aa(lp1189
I2
ag197
aa(lp1190
I10
ag197
aa(lp1191
I8
ag195
aa(lp1192
I4
ag195
aa(lp1193
I3
ag197
aa(lp1194
I2
ag197
aa(lp1195
I4
ag195
aa(lp1196
I4
ag197
aa(lp1197
I2
ag197
aa(lp1198
I7
ag197
aa(lp1199
I5
ag197
aa(lp1200
I2
ag197
aa(lp1201
I5
ag197
aa(lp1202
I2
ag197
aa(lp1203
I6
ag197
aa(lp1204
I6
ag195
aa(lp1205
I2
ag197
aa(lp1206
I2
ag197
aa(lp1207
I4
ag195
aa(lp1208
I4
ag197
aa(lp1209
I7
ag197
aa(lp1210
I2
ag197
aa(lp1211
I8
ag195
aa(lp1212
I2
ag197
aa(lp1213
I2
ag195
aa(lp1214
I2
ag197
aa(lp1215
I3
ag197
aa(lp1216
I10
ag197
aa(lp1217
I5
ag195
aa(lp1218
I2
ag197
aa(lp1219
I2
ag197
aa(lp1220
I2
ag197
aa(lp1221
I2
ag197
aa(lp1222
I7
ag195
aa(lp1223
I9
ag197
aa(lp1224
I7
ag197
aa(lp1225
I3
ag197
aa(lp1226
I6
ag197
aa(lp1227
I6
ag197
aa(lp1228
I2
ag197
aa(lp1229
I2
ag197
aa(lp1230
I9
ag195
aa(lp1231
I7
ag197
aa(lp1232
I4
ag197
aa(lp1233
I3
ag195
aa(lp1234
I8
ag197
aa(lp1235
I3
ag197
aa(lp1236
I3
ag197
aaaF4.919872045516968
asg256
(lp1237
(lp1238
g6
(g10
S'=\n\xd7\xa3p=\xe2?'
p1239
tp1240
Rp1241
ag6
(g10
S'\xe1z\x14\xaeG\xe1\xe2?'
p1242
tp1243
Rp1244
ag6
(g10
S'\xecQ\xb8\x1e\x85\xeb\xe9?'
p1245
tp1246
Rp1247
ag6
(g10
S'333333\xe3?'
p1248
tp1249
Rp1250
ag6
(g10
S'\xecQ\xb8\x1e\x85\xeb\xe1?'
p1251
tp1252
Rp1253
ag6
(g10
S'\x00\x00\x00\x00\x00\x00\x00\x00'
p1254
tp1255
Rp1256
ag6
(g10
S'\\\x8f\xc2\xf5(\\\xe7?'
p1257
tp1258
Rp1259
ag6
(g10
S'\x85\xebQ\xb8\x1e\x85\xdb?'
p1260
tp1261
Rp1262
ag6
(g10
S'\xcd\xcc\xcc\xcc\xcc\xcc\xe4?'
p1263
tp1264
Rp1265
ag6
(g10
S'\x00\x00\x00\x00\x00\x00\xe0?'
p1266
tp1267
Rp1268
ag6
(g10
S'\x00\x00\x00\x00\x00\x00\x00\x00'
p1269
tp1270
Rp1271
ag6
(g10
S'\xecQ\xb8\x1e\x85\xeb\xe1?'
p1272
tp1273
Rp1274
ag6
(g10
S'\xc3\xf5(\\\x8f\xc2\xe5?'
p1275
tp1276
Rp1277
ag6
(g10
S'{\x14\xaeG\xe1z\xe4?'
p1278
tp1279
Rp1280
ag6
(g10
S'\x00\x00\x00\x00\x00\x00\x00\x00'
p1281
tp1282
Rp1283
ag6
(g10
S'\x00\x00\x00\x00\x00\x00\x00\x00'
p1284
tp1285
Rp1286
ag6
(g10
S'q=\n\xd7\xa3p\xe5?'
p1287
tp1288
Rp1289
ag6
(g10
S'\x00\x00\x00\x00\x00\x00\x00\x00'
p1290
tp1291
Rp1292
ag6
(g10
S'\x00\x00\x00\x00\x00\x00\x00\x00'
p1293
tp1294
Rp1295
ag6
(g10
S'\x00\x00\x00\x00\x00\x00\x00\x00'
p1296
tp1297
Rp1298
ag6
(g10
S'\x00\x00\x00\x00\x00\x00\x00\x00'
p1299
tp1300
Rp1301
ag6
(g10
S'333333\xe3?'
p1302
tp1303
Rp1304
ag6
(g10
S'\xb8\x1e\x85\xebQ\xb8\xde?'
p1305
tp1306
Rp1307
ag6
(g10
S'\x00\x00\x00\x00\x00\x00\x00\x00'
p1308
tp1309
Rp1310
ag6
(g10
S'\x00\x00\x00\x00\x00\x00\x00\x00'
p1311
tp1312
Rp1313
ag6
(g10
S'\x00\x00\x00\x00\x00\x00\x00\x00'
p1314
tp1315
Rp1316
ag6
(g10
S'\x00\x00\x00\x00\x00\x00\x00\x00'
p1317
tp1318
Rp1319
ag6
(g10
S'\xcd\xcc\xcc\xcc\xcc\xcc\xdc?'
p1320
tp1321
Rp1322
ag6
(g10
S'\x00\x00\x00\x00\x00\x00\x00\x00'
p1323
tp1324
Rp1325
ag6
(g10
S'{\x14\xaeG\xe1z\xe4?'
p1326
tp1327
Rp1328
ag6
(g10
S'\x00\x00\x00\x00\x00\x00\x00\x00'
p1329
tp1330
Rp1331
ag6
(g10
S'\xecQ\xb8\x1e\x85\xeb\xe1?'
p1332
tp1333
Rp1334
ag6
(g10
S'\x00\x00\x00\x00\x00\x00\x00\x00'
p1335
tp1336
Rp1337
ag6
(g10
S'\x00\x00\x00\x00\x00\x00\x00\x00'
p1338
tp1339
Rp1340
ag6
(g10
S'\x00\x00\x00\x00\x00\x00\x00\x00'
p1341
tp1342
Rp1343
ag6
(g10
S'\x00\x00\x00\x00\x00\x00\xe0?'
p1344
tp1345
Rp1346
ag6
(g10
S'\x85\xebQ\xb8\x1e\x85\xeb?'
p1347
tp1348
Rp1349
ag6
(g10
S'\x8f\xc2\xf5(\\\x8f\xe2?'
p1350
tp1351
Rp1352
ag6
(g10
S'\x00\x00\x00\x00\x00\x00\x00\x00'
p1353
tp1354
Rp1355
ag6
(g10
S'\x00\x00\x00\x00\x00\x00\x00\x00'
p1356
tp1357
Rp1358
ag6
(g10
S'q=\n\xd7\xa3p\xe5?'
p1359
tp1360
Rp1361
ag6
(g10
S'\x00\x00\x00\x00\x00\x00\x00\x00'
p1362
tp1363
Rp1364
ag6
(g10
S'\x00\x00\x00\x00\x00\x00\x00\x00'
p1365
tp1366
Rp1367
ag6
(g10
S'\x00\x00\x00\x00\x00\x00\x00\x00'
p1368
tp1369
Rp1370
ag6
(g10
S'\xcd\xcc\xcc\xcc\xcc\xcc\xdc?'
p1371
tp1372
Rp1373
ag6
(g10
S'\x00\x00\x00\x00\x00\x00\x00\x00'
p1374
tp1375
Rp1376
ag6
(g10
S'=\n\xd7\xa3p=\xe2?'
p1377
tp1378
Rp1379
ag6
(g10
S'q=\n\xd7\xa3p\xe5?'
p1380
tp1381
Rp1382
ag6
(g10
S'=\n\xd7\xa3p=\xe2?'
p1383
tp1384
Rp1385
ag6
(g10
S'\xb8\x1e\x85\xebQ\xb8\xe6?'
p1386
tp1387
Rp1388
ag6
(g10
S'\x00\x00\x00\x00\x00\x00\x00\x00'
p1389
tp1390
Rp1391
ag6
(g10
S'\x00\x00\x00\x00\x00\x00\x00\x00'
p1392
tp1393
Rp1394
ag6
(g10
S'\x00\x00\x00\x00\x00\x00\x00\x00'
p1395
tp1396
Rp1397
ag6
(g10
S'\xcd\xcc\xcc\xcc\xcc\xcc\xdc?'
p1398
tp1399
Rp1400
ag6
(g10
S'\x8f\xc2\xf5(\\\x8f\xe2?'
p1401
tp1402
Rp1403
ag6
(g10
S'\x00\x00\x00\x00\x00\x00\x00\x00'
p1404
tp1405
Rp1406
ag6
(g10
S'\xecQ\xb8\x1e\x85\xeb\xe9?'
p1407
tp1408
Rp1409
ag6
(g10
S'\x00\x00\x00\x00\x00\x00\x00\x00'
p1410
tp1411
Rp1412
ag6
(g10
S'\x00\x00\x00\x00\x00\x00\x00\x00'
p1413
tp1414
Rp1415
ag6
(g10
S'\xecQ\xb8\x1e\x85\xeb\xe1?'
p1416
tp1417
Rp1418
aa(lp1419
(lp1420
g443
aF0.2626395737731952
aI23
aI3
aI6
aa(lp1421
g443
aF0.6709188253444351
aI8
aI3
aI17
aa(lp1422
g441
aF0.33067860792463627
aI6
aI3
aI7
aa(lp1423
g441
aF0.2152176639595984
aI5
aI2
aI12
aa(lp1424
g443
aF0.9679091925297092
aI12
aI4
aI15
aa(lp1425
g441
aF0.9846737678879119
aI2
aI9
aI3
aa(lp1426
g441
aF0.29316812750421006
aI5
aI4
aI17
aa(lp1427
g443
aF0.2737518407945876
aI8
aI4
aI18
aa(lp1428
g443
aF0.7979725967202287
aI5
aI3
aI16
aa(lp1429
g441
aF0.5661890004276808
aI13
aI4
aI18
aa(lp1430
g443
aF0.7836369761739279
aI15
aI12
aI2
aa(lp1431
g441
aF0.5642929085641128
aI6
aI5
aI20
aa(lp1432
g443
aF0.5377275044856137
aI3
aI3
aI7
aa(lp1433
g443
aF0.6029677951765632
aI4
aI1
aI17
aa(lp1434
g441
aF0.106297483922068
aI8
aI18
aI14
aa(lp1435
g441
aF0.28029429895042735
aI8
aI13
aI17
aa(lp1436
g441
aF0.26872628591549985
aI6
aI3
aI15
aa(lp1437
g441
aF0.24389426518070284
aI28
aI5
aI16
aa(lp1438
g441
aF0.48612563415802257
aI11
aI5
aI4
aa(lp1439
g443
aF0.42780858127811516
aI30
aI3
aI6
aa(lp1440
g443
aF0.4415806875616747
aI29
aI6
aI1
aa(lp1441
g443
aF0.11329717636188238
aI11
aI1
aI20
aa(lp1442
g441
aF0.2684687462657537
aI17
aI2
aI19
aa(lp1443
g441
aF0.10263199264362925
aI26
aI12
aI2
aa(lp1444
g443
aF0.7226993709147261
aI19
aI16
aI13
aa(lp1445
g443
aF0.17445108760309502
aI7
aI12
aI14
aa(lp1446
g443
aF0.31278168203244433
aI23
aI5
aI17
aa(lp1447
g441
aF0.2808340421427681
aI13
aI3
aI11
aa(lp1448
g441
aF0.1795180229904571
aI27
aI10
aI8
aa(lp1449
g443
aF0.12737072036422134
aI10
aI3
aI15
aa(lp1450
g441
aF0.319785823911422
aI8
aI1
aI7
aa(lp1451
g443
aF0.17308480432571033
aI7
aI3
aI8
aa(lp1452
g443
aF0.5053602761997764
aI18
aI12
aI10
aa(lp1453
g443
aF0.8179149361075273
aI12
aI4
aI11
aa(lp1454
g443
aF0.621209719495718
aI3
aI14
aI8
aa(lp1455
g441
aF0.9500015993766368
aI9
aI4
aI17
aa(lp1456
g443
aF0.48506827280599907
aI20
aI1
aI11
aa(lp1457
g443
aF0.22881055075161247
aI4
aI6
aI6
aa(lp1458
g441
aF0.30791203630067787
aI9
aI17
aI14
aa(lp1459
g443
aF0.5413966601694777
aI24
aI18
aI5
aa(lp1460
g443
aF0.5517834841131382
aI5
aI1
aI20
aa(lp1461
g443
aF0.8406875585553308
aI29
aI2
aI13
aa(lp1462
g441
aF0.8231703400784384
aI18
aI11
aI17
aa(lp1463
g441
aF0.5696053541933965
aI16
aI11
aI18
aa(lp1464
g441
aF0.29579623130793764
aI6
aI2
aI5
aa(lp1465
g441
aF0.5109819922636575
aI29
aI20
aI11
aa(lp1466
g441
aF0.1196828793817043
aI23
aI2
aI15
aa(lp1467
g443
aF0.8291347136227413
aI6
aI2
aI21
aa(lp1468
g443
aF0.26617401532469787
aI30
aI3
aI18
aa(lp1469
g441
aF0.8392493088954449
aI2
aI2
aI12
aa(lp1470
g441
aF0.38448467271180364
aI4
aI18
aI8
aa(lp1471
g443
aF0.9478650454657112
aI15
aI20
aI17
aa(lp1472
g443
aF0.7938919245632975
aI21
aI6
aI5
aa(lp1473
g441
aF0.2964173757671957
aI18
aI1
aI7
aa(lp1474
g441
aF0.4772528300281126
aI15
aI3
aI5
aa(lp1475
g443
aF0.6239482058897166
aI29
aI2
aI11
aa(lp1476
g441
aF0.3277651504358966
aI5
aI3
aI5
aa(lp1477
g443
aF0.9845492436700436
aI2
aI14
aI12
aa(lp1478
g441
aF0.959198735369806
aI16
aI3
aI11
aa(lp1479
g441
aF0.4782554655554291
aI10
aI1
aI10
aaaF2.650928020477295
asg502
(lp1480
(lp1481
g6
(g10
S'\x9a\x99\x99\x99\x99\x99\xe9?'
p1482
tp1483
Rp1484
ag6
(g10
S'\x00\x00\x00\x00\x00\x00\x00\x00'
p1485
tp1486
Rp1487
ag6
(g10
S'\x00\x00\x00\x00\x00\x00\x00\x00'
p1488
tp1489
Rp1490
ag6
(g10
S'\x00\x00\x00\x00\x00\x00\x00\x00'
p1491
tp1492
Rp1493
ag6
(g10
S'\x00\x00\x00\x00\x00\x00\x00\x00'
p1494
tp1495
Rp1496
ag6
(g10
S'q=\n\xd7\xa3p\xe5?'
p1497
tp1498
Rp1499
ag6
(g10
S'\x00\x00\x00\x00\x00\x00\x00\x00'
p1500
tp1501
Rp1502
ag6
(g10
S'\x00\x00\x00\x00\x00\x00\x00\x00'
p1503
tp1504
Rp1505
ag6
(g10
S'\x9a\x99\x99\x99\x99\x99\xd9?'
p1506
tp1507
Rp1508
ag6
(g10
S'333333\xe3?'
p1509
tp1510
Rp1511
ag6
(g10
S'\x00\x00\x00\x00\x00\x00\x00\x00'
p1512
tp1513
Rp1514
ag6
(g10
S'\x00\x00\x00\x00\x00\x00\x00\x00'
p1515
tp1516
Rp1517
ag6
(g10
S'\x00\x00\x00\x00\x00\x00\x00\x00'
p1518
tp1519
Rp1520
ag6
(g10
S'\x00\x00\x00\x00\x00\x00\x00\x00'
p1521
tp1522
Rp1523
ag6
(g10
S'\x00\x00\x00\x00\x00\x00\x00\x00'
p1524
tp1525
Rp1526
ag6
(g10
S'\x00\x00\x00\x00\x00\x00\x00\x00'
p1527
tp1528
Rp1529
ag6
(g10
S'\x00\x00\x00\x00\x00\x00\x00\x00'
p1530
tp1531
Rp1532
ag6
(g10
S'\x00\x00\x00\x00\x00\x00\x00\x00'
p1533
tp1534
Rp1535
ag6
(g10
S'\x00\x00\x00\x00\x00\x00\x00\x00'
p1536
tp1537
Rp1538
ag6
(g10
S'\x00\x00\x00\x00\x00\x00\x00\x00'
p1539
tp1540
Rp1541
ag6
(g10
S'\x00\x00\x00\x00\x00\x00\x00\x00'
p1542
tp1543
Rp1544
ag6
(g10
S'\x00\x00\x00\x00\x00\x00\x00\x00'
p1545
tp1546
Rp1547
ag6
(g10
S'\x00\x00\x00\x00\x00\x00\x00\x00'
p1548
tp1549
Rp1550
ag6
(g10
S'\x00\x00\x00\x00\x00\x00\x00\x00'
p1551
tp1552
Rp1553
ag6
(g10
S'\x00\x00\x00\x00\x00\x00\xe0?'
p1554
tp1555
Rp1556
ag6
(g10
S'\x00\x00\x00\x00\x00\x00\x00\x00'
p1557
tp1558
Rp1559
ag6
(g10
S'\x00\x00\x00\x00\x00\x00\x00\x00'
p1560
tp1561
Rp1562
ag6
(g10
S'\x00\x00\x00\x00\x00\x00\x00\x00'
p1563
tp1564
Rp1565
ag6
(g10
S'\x00\x00\x00\x00\x00\x00\x00\x00'
p1566
tp1567
Rp1568
ag6
(g10
S'\x00\x00\x00\x00\x00\x00\x00\x00'
p1569
tp1570
Rp1571
ag6
(g10
S'\x00\x00\x00\x00\x00\x00\x00\x00'
p1572
tp1573
Rp1574
ag6
(g10
S'\x00\x00\x00\x00\x00\x00\xe0?'
p1575
tp1576
Rp1577
ag6
(g10
S'\x00\x00\x00\x00\x00\x00\x00\x00'
p1578
tp1579
Rp1580
ag6
(g10
S'\x00\x00\x00\x00\x00\x00\x00\x00'
p1581
tp1582
Rp1583
ag6
(g10
S'\x00\x00\x00\x00\x00\x00\x00\x00'
p1584
tp1585
Rp1586
ag6
(g10
S'\x00\x00\x00\x00\x00\x00\x00\x00'
p1587
tp1588
Rp1589
ag6
(g10
S'\x14\xaeG\xe1z\x14\xe6?'
p1590
tp1591
Rp1592
ag6
(g10
S'\x00\x00\x00\x00\x00\x00\x00\x00'
p1593
tp1594
Rp1595
ag6
(g10
S'\x00\x00\x00\x00\x00\x00\x00\x00'
p1596
tp1597
Rp1598
ag6
(g10
S'\x00\x00\x00\x00\x00\x00\x00\x00'
p1599
tp1600
Rp1601
ag6
(g10
S'\x00\x00\x00\x00\x00\x00\x00\x00'
p1602
tp1603
Rp1604
ag6
(g10
S'\x00\x00\x00\x00\x00\x00\x00\x00'
p1605
tp1606
Rp1607
ag6
(g10
S'\x00\x00\x00\x00\x00\x00\x00\x00'
p1608
tp1609
Rp1610
ag6
(g10
S'\x00\x00\x00\x00\x00\x00\x00\x00'
p1611
tp1612
Rp1613
ag6
(g10
S'\x00\x00\x00\x00\x00\x00\x00\x00'
p1614
tp1615
Rp1616
ag6
(g10
S'\x00\x00\x00\x00\x00\x00\x00\x00'
p1617
tp1618
Rp1619
ag6
(g10
S'\x00\x00\x00\x00\x00\x00\x00\x00'
p1620
tp1621
Rp1622
ag6
(g10
S'\x00\x00\x00\x00\x00\x00\xe0?'
p1623
tp1624
Rp1625
ag6
(g10
S'\x00\x00\x00\x00\x00\x00\x00\x00'
p1626
tp1627
Rp1628
ag6
(g10
S'\x00\x00\x00\x00\x00\x00\x00\x00'
p1629
tp1630
Rp1631
ag6
(g10
S'\x00\x00\x00\x00\x00\x00\x00\x00'
p1632
tp1633
Rp1634
ag6
(g10
S'\x00\x00\x00\x00\x00\x00\x00\x00'
p1635
tp1636
Rp1637
ag6
(g10
S'\x00\x00\x00\x00\x00\x00\x00\x00'
p1638
tp1639
Rp1640
ag6
(g10
S'\x00\x00\x00\x00\x00\x00\x00\x00'
p1641
tp1642
Rp1643
ag6
(g10
S'\x00\x00\x00\x00\x00\x00\x00\x00'
p1644
tp1645
Rp1646
ag6
(g10
S'\x00\x00\x00\x00\x00\x00\x00\x00'
p1647
tp1648
Rp1649
ag6
(g10
S'\x00\x00\x00\x00\x00\x00\x00\x00'
p1650
tp1651
Rp1652
ag6
(g10
S'\x00\x00\x00\x00\x00\x00\x00\x00'
p1653
tp1654
Rp1655
ag6
(g10
S'\x00\x00\x00\x00\x00\x00\x00\x00'
p1656
tp1657
Rp1658
ag6
(g10
S'\x00\x00\x00\x00\x00\x00\x00\x00'
p1659
tp1660
Rp1661
aa(lp1662
(lp1663
g443
aF0.28731675883976027
aI23
aI1
aI37
aa(lp1664
g441
aF0.6552313714725855
aI3
aI21
aI69
aa(lp1665
g443
aF0.6498693611560622
aI20
aI2
aI22
aa(lp1666
g441
aF0.8214523466691562
aI15
aI14
aI22
aa(lp1667
g443
aF0.34295863678967914
aI5
aI20
aI69
aa(lp1668
g443
aF0.8019209604988687
aI5
aI2
aI23
aa(lp1669
g441
aF0.47987335552778465
aI12
aI16
aI20
aa(lp1670
g441
aF0.7343022195236089
aI29
aI21
aI89
aa(lp1671
g443
aF0.1068469380932112
aI5
aI1
aI29
aa(lp1672
g441
aF0.46887497008746504
aI2
aI1
aI75
aa(lp1673
g443
aF0.967689466419952
aI15
aI4
aI66
aa(lp1674
g443
aF0.6328542039402404
aI15
aI21
aI55
aa(lp1675
g441
aF0.2450359619859881
aI25
aI17
aI79
aa(lp1676
g443
aF0.7293211470622399
aI20
aI10
aI71
aa(lp1677
g441
aF0.735157105302894
aI17
aI20
aI87
aa(lp1678
g441
aF0.6565047982985729
aI7
aI11
aI84
aa(lp1679
g443
aF0.6309398271465804
aI7
aI8
aI62
aa(lp1680
g443
aF0.7269602182761693
aI27
aI9
aI96
aa(lp1681
g443
aF0.7049764379884983
aI3
aI18
aI31
aa(lp1682
g441
aF0.9697158880882656
aI9
aI17
aI75
aa(lp1683
g441
aF0.16686013529747779
aI2
aI20
aI44
aa(lp1684
g443
aF0.6990752125958598
aI20
aI10
aI69
aa(lp1685
g443
aF0.6858880456907371
aI18
aI8
aI57
aa(lp1686
g441
aF0.5629847654472627
aI9
aI15
aI36
aa(lp1687
g443
aF0.3546333845297476
aI26
aI1
aI80
aa(lp1688
g441
aF0.6627482225484336
aI26
aI9
aI86
aa(lp1689
g443
aF0.6336561849635903
aI7
aI12
aI33
aa(lp1690
g441
aF0.3415728682420691
aI25
aI4
aI23
aa(lp1691
g443
aF0.7100713547311347
aI3
aI17
aI42
aa(lp1692
g441
aF0.8837009438772554
aI26
aI3
aI59
aa(lp1693
g443
aF0.3306880364840147
aI17
aI16
aI88
aa(lp1694
g443
aF0.9551019996537602
aI25
aI2
aI16
aa(lp1695
g443
aF0.3048024650728915
aI7
aI15
aI15
aa(lp1696
g443
aF0.14809230201269238
aI24
aI5
aI71
aa(lp1697
g441
aF0.8929070535137903
aI4
aI6
aI71
aa(lp1698
g443
aF0.4860310147270831
aI18
aI13
aI12
aa(lp1699
g443
aF0.716555931113546
aI10
aI1
aI19
aa(lp1700
g443
aF0.8734664615572877
aI2
aI5
aI16
aa(lp1701
g441
aF0.20039888614993767
aI14
aI20
aI50
aa(lp1702
g443
aF0.3065455697469571
aI12
aI20
aI82
aa(lp1703
g443
aF0.5641252365182269
aI21
aI19
aI93
aa(lp1704
g443
aF0.7802232869982659
aI23
aI16
aI88
aa(lp1705
g441
aF0.5622660360430454
aI14
aI4
aI45
aa(lp1706
g441
aF0.6876452267357764
aI14
aI14
aI48
aa(lp1707
g443
aF0.38095773943797595
aI9
aI19
aI34
aa(lp1708
g443
aF0.9428046311491894
aI26
aI8
aI81
aa(lp1709
g441
aF0.17938258652106548
aI20
aI1
aI16
aa(lp1710
g441
aF0.6268856308372841
aI3
aI1
aI91
aa(lp1711
g441
aF0.1742816118288773
aI18
aI20
aI72
aa(lp1712
g443
aF0.42433975200449847
aI6
aI16
aI55
aa(lp1713
g443
aF0.6452188730137879
aI26
aI14
aI96
aa(lp1714
g441
aF0.4401874466094847
aI30
aI17
aI88
aa(lp1715
g441
aF0.9594683138000751
aI4
aI19
aI21
aa(lp1716
g441
aF0.342594572471348
aI20
aI10
aI95
aa(lp1717
g443
aF0.6004444312844801
aI21
aI12
aI91
aa(lp1718
g441
aF0.6781330605959951
aI7
aI5
aI68
aa(lp1719
g443
aF0.4749270107793776
aI8
aI19
aI45
aa(lp1720
g441
aF0.19307404255986638
aI11
aI11
aI80
aa(lp1721
g441
aF0.6050586375737169
aI20
aI11
aI37
aa(lp1722
g443
aF0.4010605642298908
aI23
aI20
aI61
aaaF1318.616026878357
asg746
(lp1723
(lp1724
g6
(g10
S'\x00\x00\x00\x00\x00\x00\x00\x00'
p1725
tp1726
Rp1727
ag6
(g10
S'\x00\x00\x00\x00\x00\x00\x00\x00'
p1728
tp1729
Rp1730
ag6
(g10
S'\x9a\x99\x99\x99\x99\x99\xa9?'
p1731
tp1732
Rp1733
ag6
(g10
S'\x00\x00\x00\x00\x00\x00\x00\x00'
p1734
tp1735
Rp1736
ag6
(g10
S'\xecQ\xb8\x1e\x85\xeb\xc1?'
p1737
tp1738
Rp1739
ag6
(g10
S'\x00\x00\x00\x00\x00\x00\x00\x00'
p1740
tp1741
Rp1742
ag6
(g10
S'\xb8\x1e\x85\xebQ\xb8\xae?'
p1743
tp1744
Rp1745
ag6
(g10
S'\x00\x00\x00\x00\x00\x00\x00\x00'
p1746
tp1747
Rp1748
ag6
(g10
S'\xb8\x1e\x85\xebQ\xb8\xae?'
p1749
tp1750
Rp1751
ag6
(g10
S'\x00\x00\x00\x00\x00\x00\x00\x00'
p1752
tp1753
Rp1754
ag6
(g10
S'\x00\x00\x00\x00\x00\x00\x00\x00'
p1755
tp1756
Rp1757
ag6
(g10
S'\x00\x00\x00\x00\x00\x00\x00\x00'
p1758
tp1759
Rp1760
ag6
(g10
S'\x00\x00\x00\x00\x00\x00\x00\x00'
p1761
tp1762
Rp1763
ag6
(g10
S'\x00\x00\x00\x00\x00\x00\x00\x00'
p1764
tp1765
Rp1766
ag6
(g10
S'{\x14\xaeG\xe1z\xb4?'
p1767
tp1768
Rp1769
ag6
(g10
S'\x00\x00\x00\x00\x00\x00\x00\x00'
p1770
tp1771
Rp1772
ag6
(g10
S'\x00\x00\x00\x00\x00\x00\x00\x00'
p1773
tp1774
Rp1775
ag6
(g10
S'\x00\x00\x00\x00\x00\x00\x00\x00'
p1776
tp1777
Rp1778
ag6
(g10
S'\x00\x00\x00\x00\x00\x00\x00\x00'
p1779
tp1780
Rp1781
ag6
(g10
S'\x00\x00\x00\x00\x00\x00\x00\x00'
p1782
tp1783
Rp1784
ag6
(g10
S'\x9a\x99\x99\x99\x99\x99\xb9?'
p1785
tp1786
Rp1787
ag6
(g10
S'\x00\x00\x00\x00\x00\x00\x00\x00'
p1788
tp1789
Rp1790
ag6
(g10
S'\x00\x00\x00\x00\x00\x00\x00\x00'
p1791
tp1792
Rp1793
ag6
(g10
S'\x00\x00\x00\x00\x00\x00\x00\x00'
p1794
tp1795
Rp1796
ag6
(g10
S'\xb8\x1e\x85\xebQ\xb8\xae?'
p1797
tp1798
Rp1799
ag6
(g10
S'\x9a\x99\x99\x99\x99\x99\xa9?'
p1800
tp1801
Rp1802
ag6
(g10
S'\x00\x00\x00\x00\x00\x00\x00\x00'
p1803
tp1804
Rp1805
ag6
(g10
S'\x00\x00\x00\x00\x00\x00\x00\x00'
p1806
tp1807
Rp1808
ag6
(g10
S'\xb8\x1e\x85\xebQ\xb8\xae?'
p1809
tp1810
Rp1811
ag6
(g10
S'\x00\x00\x00\x00\x00\x00\x00\x00'
p1812
tp1813
Rp1814
ag6
(g10
S'\x00\x00\x00\x00\x00\x00\x00\x00'
p1815
tp1816
Rp1817
ag6
(g10
S'\x00\x00\x00\x00\x00\x00\x00\x00'
p1818
tp1819
Rp1820
ag6
(g10
S'\xb8\x1e\x85\xebQ\xb8\xae?'
p1821
tp1822
Rp1823
ag6
(g10
S'\x00\x00\x00\x00\x00\x00\x00\x00'
p1824
tp1825
Rp1826
ag6
(g10
S'\x00\x00\x00\x00\x00\x00\x00\x00'
p1827
tp1828
Rp1829
ag6
(g10
S'\x9a\x99\x99\x99\x99\x99\xa9?'
p1830
tp1831
Rp1832
ag6
(g10
S'\x9a\x99\x99\x99\x99\x99\xa9?'
p1833
tp1834
Rp1835
ag6
(g10
S'\x00\x00\x00\x00\x00\x00\x00\x00'
p1836
tp1837
Rp1838
ag6
(g10
S'\x00\x00\x00\x00\x00\x00\x00\x00'
p1839
tp1840
Rp1841
ag6
(g10
S')\\\x8f\xc2\xf5(\xbc?'
p1842
tp1843
Rp1844
ag6
(g10
S'\x00\x00\x00\x00\x00\x00\x00\x00'
p1845
tp1846
Rp1847
ag6
(g10
S')\\\x8f\xc2\xf5(\xbc?'
p1848
tp1849
Rp1850
ag6
(g10
S'\xa4p=\n\xd7\xa3\xc0?'
p1851
tp1852
Rp1853
ag6
(g10
S'\x9a\x99\x99\x99\x99\x99\xa9?'
p1854
tp1855
Rp1856
ag6
(g10
S'\x00\x00\x00\x00\x00\x00\x00\x00'
p1857
tp1858
Rp1859
ag6
(g10
S'\x9a\x99\x99\x99\x99\x99\xb9?'
p1860
tp1861
Rp1862
ag6
(g10
S'\n\xd7\xa3p=\n\xb7?'
p1863
tp1864
Rp1865
ag6
(g10
S'\x00\x00\x00\x00\x00\x00\x00\x00'
p1866
tp1867
Rp1868
ag6
(g10
S'\x00\x00\x00\x00\x00\x00\x00\x00'
p1869
tp1870
Rp1871
ag6
(g10
S'\x00\x00\x00\x00\x00\x00\x00\x00'
p1872
tp1873
Rp1874
ag6
(g10
S'\x00\x00\x00\x00\x00\x00\x00\x00'
p1875
tp1876
Rp1877
ag6
(g10
S'\n\xd7\xa3p=\n\xb7?'
p1878
tp1879
Rp1880
ag6
(g10
S'\x00\x00\x00\x00\x00\x00\x00\x00'
p1881
tp1882
Rp1883
ag6
(g10
S'\x00\x00\x00\x00\x00\x00\x00\x00'
p1884
tp1885
Rp1886
ag6
(g10
S'\x00\x00\x00\x00\x00\x00\x00\x00'
p1887
tp1888
Rp1889
ag6
(g10
S'\x00\x00\x00\x00\x00\x00\x00\x00'
p1890
tp1891
Rp1892
ag6
(g10
S'{\x14\xaeG\xe1z\xa4?'
p1893
tp1894
Rp1895
ag6
(g10
S'\xecQ\xb8\x1e\x85\xeb\xb1?'
p1896
tp1897
Rp1898
ag6
(g10
S'\x00\x00\x00\x00\x00\x00\x00\x00'
p1899
tp1900
Rp1901
ag6
(g10
S'\x00\x00\x00\x00\x00\x00\x00\x00'
p1902
tp1903
Rp1904
aa(lp1905
(lp1906
I62
ag934
aF0.6738108237054662
aF0.9103529112567184
aa(lp1907
I3
ag934
aF0.573100369752137
aF0.7347623401186023
aa(lp1908
I95
ag931
aF0.18489400977533815
aF0.33975175155874865
aa(lp1909
I21
ag931
aF0.9164719049266125
aF0.8352603963359405
aa(lp1910
I16
ag931
aF0.4496584524863396
aF0.8887522374706837
aa(lp1911
I81
ag934
aF0.6793612056107622
aF0.19474766619938727
aa(lp1912
I87
ag931
aF0.7398574183854866
aF0.6438751162755246
aa(lp1913
I25
ag934
aF0.9269058238467305
aF0.9565492023443274
aa(lp1914
I97
ag931
aF0.18309160415397052
aF0.8025465741070403
aa(lp1915
I95
ag934
aF0.8427340997690134
aF0.2198635623080306
aa(lp1916
I60
ag934
aF0.7076447011284835
aF0.2038289098570028
aa(lp1917
I54
ag934
aF0.16574449978008798
aF0.6231630994976193
aa(lp1918
I60
ag934
aF0.24042740069375748
aF0.6736096036156564
aa(lp1919
I3
ag931
aF0.11634325745211359
aF0.6453859329515209
aa(lp1920
I7
ag931
aF0.29680934980581986
aF0.6261912003621551
aa(lp1921
I86
ag934
aF0.6778180439162482
aF0.7730164825971355
aa(lp1922
I24
ag934
aF0.9953780695889294
aF0.6372005826164948
aa(lp1923
I38
ag934
aF0.412701393233744
aF0.901602040477999
aa(lp1924
I95
ag934
aF0.14142331188849272
aF0.7672181410909066
aa(lp1925
I19
ag934
aF0.1761831744264225
aF0.536053621977285
aa(lp1926
I87
ag931
aF0.8814657941571551
aF0.9930739623391494
aa(lp1927
I93
ag934
aF0.9055326587433133
aF0.517044508032524
aa(lp1928
I85
ag934
aF0.8155831427350164
aF0.6494769229579241
aa(lp1929
I60
ag934
aF0.34692219690007375
aF0.9305629775933728
aa(lp1930
I53
ag931
aF0.3388178103917552
aF0.6964393369831486
aa(lp1931
I42
ag931
aF0.7258118918341578
aF0.43703240258234466
aa(lp1932
I24
ag934
aF0.6263452228372456
aF0.952455717820383
aa(lp1933
I25
ag934
aF0.901193355796036
aF0.2390269228277737
aa(lp1934
I77
ag931
aF0.197545380700726
aF0.7285572133919341
aa(lp1935
I60
ag934
aF0.5922145104644702
aF0.9349312710900685
aa(lp1936
I7
ag934
aF0.6683210220805471
aF0.47902388046084077
aa(lp1937
I90
ag934
aF0.18258535012416205
aF0.34626436723946963
aa(lp1938
I32
ag931
aF0.8805718314551451
aF0.3940824911026387
aa(lp1939
I85
ag934
aF0.7153265406727624
aF0.9943869628184414
aa(lp1940
I18
ag934
aF0.3744348994029465
aF0.6452246252186721
aa(lp1941
I36
ag931
aF0.5062262168541548
aF0.29318459035116967
aa(lp1942
I71
ag931
aF0.9505591341656919
aF0.277987316635857
aa(lp1943
I58
ag934
aF0.5550240230164009
aF0.8485227672876725
aa(lp1944
I34
ag934
aF0.8244420530303851
aF0.8058350641679678
aa(lp1945
I30
ag931
aF0.40790817267809776
aF0.10202399182818156
aa(lp1946
I6
ag934
aF0.633715107166404
aF0.4703964793282127
aa(lp1947
I49
ag931
aF0.839036144078363
aF0.10043613246236924
aa(lp1948
I80
ag931
aF0.6675406580542587
aF0.3592904619490703
aa(lp1949
I69
ag931
aF0.6674144386962789
aF0.47523261761026137
aa(lp1950
I5
ag934
aF0.6474501086909793
aF0.19273854967763754
aa(lp1951
I53
ag931
aF0.8928203478897607
aF0.8121307774749601
aa(lp1952
I24
ag931
aF0.8190678170569037
aF0.1366593432562405
aa(lp1953
I6
ag931
aF0.4376786479855105
aF0.7239370497025537
aa(lp1954
I26
ag934
aF0.5065394612063566
aF0.9686255350705251
aa(lp1955
I52
ag934
aF0.7826914080643871
aF0.4692635827229058
aa(lp1956
I57
ag934
aF0.2467831152727879
aF0.26765714343570196
aa(lp1957
I92
ag931
aF0.8705280948504616
aF0.3732765389462729
aa(lp1958
I86
ag934
aF0.8338135708349743
aF0.6887108881066611
aa(lp1959
I21
ag934
aF0.14276851565706256
aF0.6807450234931685
aa(lp1960
I82
ag934
aF0.18055844855669356
aF0.31250206437716976
aa(lp1961
I35
ag934
aF0.575452752640752
aF0.434415038803165
aa(lp1962
I76
ag931
aF0.8080286460721484
aF0.2939506362756457
aa(lp1963
I94
ag931
aF0.63809644279373
aF0.9730748215585536
aa(lp1964
I85
ag934
aF0.46704056186221077
aF0.763197532864935
aa(lp1965
I18
ag934
aF0.35931608057758446
aF0.748106329582376
aaaF10.022241830825806
ass.