(dp0
S'precision'
p1
(dp2
S'KNN'
p3
(lp4
(lp5
cnumpy.core.multiarray
scalar
p6
(cnumpy
dtype
p7
(S'f8'
p8
I0
I1
tp9
Rp10
(I3
S'<'
p11
NNNI-1
I-1
I0
tp12
bS'\n\xd7\xa3p=\n\xef?'
p13
tp14
Rp15
ag6
(g10
S'\x1f\x85\xebQ\xb8\x1e\xed?'
p16
tp17
Rp18
ag6
(g10
S'\x00\x00\x00\x00\x00\x00\xf0?'
p19
tp20
Rp21
ag6
(g10
S'\n\xd7\xa3p=\n\xef?'
p22
tp23
Rp24
ag6
(g10
S'\x14\xaeG\xe1z\x14\xee?'
p25
tp26
Rp27
ag6
(g10
S'\x00\x00\x00\x00\x00\x00\xf0?'
p28
tp29
Rp30
ag6
(g10
S'\\\x8f\xc2\xf5(\\\xef?'
p31
tp32
Rp33
ag6
(g10
S'ffffff\xee?'
p34
tp35
Rp36
ag6
(g10
S'{\x14\xaeG\xe1z\xec?'
p37
tp38
Rp39
ag6
(g10
S'\x1f\x85\xebQ\xb8\x1e\xed?'
p40
tp41
Rp42
ag6
(g10
S'\n\xd7\xa3p=\n\xef?'
p43
tp44
Rp45
ag6
(g10
S'\n\xd7\xa3p=\n\xef?'
p46
tp47
Rp48
ag6
(g10
S'\x14\xaeG\xe1z\x14\xee?'
p49
tp50
Rp51
ag6
(g10
S'\x1f\x85\xebQ\xb8\x1e\xed?'
p52
tp53
Rp54
ag6
(g10
S'\\\x8f\xc2\xf5(\\\xef?'
p55
tp56
Rp57
aa(lp58
(lp59
I10
aS'distance'
p60
aa(lp61
I8
aS'uniform'
p62
aa(lp63
I2
ag62
aa(lp64
I10
ag60
aa(lp65
I6
ag62
aa(lp66
I2
ag62
aa(lp67
I6
ag60
aa(lp68
I9
ag60
aa(lp69
I10
ag62
aa(lp70
I8
ag62
aa(lp71
I4
ag62
aa(lp72
I4
ag60
aa(lp73
I6
ag62
aa(lp74
I8
ag62
aa(lp75
I7
ag60
aaaF1.4225499629974365
asS'DTC'
p76
(lp77
(lp78
g6
(g10
S'\x00\x00\x00\x00\x00\x00\xf0?'
p79
tp80
Rp81
ag6
(g10
S'\x00\x00\x00\x00\x00\x00\xf0?'
p82
tp83
Rp84
ag6
(g10
S'\x00\x00\x00\x00\x00\x00\xf0?'
p85
tp86
Rp87
ag6
(g10
S'\xaeG\xe1z\x14\xae\xef?'
p88
tp89
Rp90
ag6
(g10
S'\xaeG\xe1z\x14\xae\xef?'
p91
tp92
Rp93
ag6
(g10
S'\x00\x00\x00\x00\x00\x00\xf0?'
p94
tp95
Rp96
ag6
(g10
S'\n\xd7\xa3p=\n\xef?'
p97
tp98
Rp99
ag6
(g10
S'\xaeG\xe1z\x14\xae\xef?'
p100
tp101
Rp102
ag6
(g10
S'\x00\x00\x00\x00\x00\x00\xf0?'
p103
tp104
Rp105
ag6
(g10
S'\x00\x00\x00\x00\x00\x00\xf0?'
p106
tp107
Rp108
ag6
(g10
S'\x00\x00\x00\x00\x00\x00\xf0?'
p109
tp110
Rp111
ag6
(g10
S'\x00\x00\x00\x00\x00\x00\xf0?'
p112
tp113
Rp114
ag6
(g10
S'\x00\x00\x00\x00\x00\x00\xf0?'
p115
tp116
Rp117
ag6
(g10
S'\n\xd7\xa3p=\n\xef?'
p118
tp119
Rp120
ag6
(g10
S'\x00\x00\x00\x00\x00\x00\xf0?'
p121
tp122
Rp123
aa(lp124
(lp125
S'entropy'
p126
aF0.3666666666666667
aI30
aI21
aI21
aa(lp127
S'gini'
p128
aF1.0
aI30
aI21
aI21
aa(lp129
g126
aF0.7333333333333334
aI30
aI21
aI21
aa(lp130
g126
aF0.3666666666666667
aI30
aI14
aI21
aa(lp131
g126
aF0.3666666666666667
aI30
aI14
aI21
aa(lp132
g128
aF1.0
aI30
aI7
aI21
aa(lp133
g128
aF0.3666666666666667
aI30
aI7
aI21
aa(lp134
g126
aF0.3666666666666667
aI30
aI14
aI21
aa(lp135
g128
aF1.0
aI30
aI21
aI21
aa(lp136
g126
aF0.7333333333333334
aI30
aI14
aI21
aa(lp137
g126
aF0.7333333333333334
aI30
aI21
aI21
aa(lp138
g128
aF0.3666666666666667
aI30
aI14
aI21
aa(lp139
g126
aF0.7333333333333334
aI30
aI21
aI21
aa(lp140
g126
aF0.3666666666666667
aI30
aI7
aI21
aa(lp141
g126
aF0.3666666666666667
aI30
aI21
aI21
aaaF2.655195951461792
asS'RF'
p142
(lp143
(lp144
g6
(g10
S'\x00\x00\x00\x00\x00\x00\xf0?'
p145
tp146
Rp147
ag6
(g10
S'\x00\x00\x00\x00\x00\x00\xf0?'
p148
tp149
Rp150
ag6
(g10
S'\x00\x00\x00\x00\x00\x00\xf0?'
p151
tp152
Rp153
ag6
(g10
S'\x00\x00\x00\x00\x00\x00\xf0?'
p154
tp155
Rp156
ag6
(g10
S'\x00\x00\x00\x00\x00\x00\xf0?'
p157
tp158
Rp159
ag6
(g10
S'\x00\x00\x00\x00\x00\x00\xf0?'
p160
tp161
Rp162
ag6
(g10
S'\x00\x00\x00\x00\x00\x00\xf0?'
p163
tp164
Rp165
ag6
(g10
S'\x00\x00\x00\x00\x00\x00\xf0?'
p166
tp167
Rp168
ag6
(g10
S'\x00\x00\x00\x00\x00\x00\xf0?'
p169
tp170
Rp171
ag6
(g10
S'\x00\x00\x00\x00\x00\x00\xf0?'
p172
tp173
Rp174
ag6
(g10
S'\x00\x00\x00\x00\x00\x00\xf0?'
p175
tp176
Rp177
ag6
(g10
S'\x00\x00\x00\x00\x00\x00\xf0?'
p178
tp179
Rp180
ag6
(g10
S'\x00\x00\x00\x00\x00\x00\xf0?'
p181
tp182
Rp183
ag6
(g10
S'\x00\x00\x00\x00\x00\x00\xf0?'
p184
tp185
Rp186
ag6
(g10
S'\x00\x00\x00\x00\x00\x00\xf0?'
p187
tp188
Rp189
aa(lp190
(lp191
g126
aF0.7333333333333334
aI30
aI21
aI100
aa(lp192
g126
aF0.3666666666666667
aI30
aI14
aI100
aa(lp193
g126
aF0.7333333333333334
aI30
aI21
aI100
aa(lp194
g126
aF0.7333333333333334
aI30
aI21
aI100
aa(lp195
g126
aF0.7333333333333334
aI30
aI21
aI100
aa(lp196
g126
aF1.0
aI21
aI14
aI100
aa(lp197
g126
aF0.3666666666666667
aI30
aI21
aI100
aa(lp198
g126
aF1.0
aI21
aI14
aI100
aa(lp199
g126
aF1.0
aI21
aI14
aI100
aa(lp200
g126
aF1.0
aI21
aI14
aI100
aa(lp201
g126
aF0.3666666666666667
aI30
aI7
aI100
aa(lp202
g128
aF0.3666666666666667
aI30
aI21
aI100
aa(lp203
g126
aF1.0
aI30
aI7
aI100
aa(lp204
g126
aF0.7333333333333334
aI30
aI21
aI55
aa(lp205
g126
aF1.0
aI21
aI14
aI100
aaaF328.0766439437866
asS'SVM'
p206
(lp207
(lp208
g6
(g10
S'\x00\x00\x00\x00\x00\x00\xf0?'
p209
tp210
Rp211
ag6
(g10
S'\xe1z\x14\xaeG\xe1\xe2?'
p212
tp213
Rp214
ag6
(g10
S'\x00\x00\x00\x00\x00\x00\xf0?'
p215
tp216
Rp217
ag6
(g10
S'\x00\x00\x00\x00\x00\x00\xf0?'
p218
tp219
Rp220
ag6
(g10
S'\xe1z\x14\xaeG\xe1\xe2?'
p221
tp222
Rp223
ag6
(g10
S'\x00\x00\x00\x00\x00\x00\xf0?'
p224
tp225
Rp226
ag6
(g10
S'R\xb8\x1e\x85\xebQ\xd8?'
p227
tp228
Rp229
ag6
(g10
S'\xe1z\x14\xaeG\xe1\xe2?'
p230
tp231
Rp232
ag6
(g10
S'\xe1z\x14\xaeG\xe1\xe2?'
p233
tp234
Rp235
ag6
(g10
S'ffffff\xe6?'
p236
tp237
Rp238
ag6
(g10
S'\xaeG\xe1z\x14\xae\xe7?'
p239
tp240
Rp241
ag6
(g10
S'\x1f\x85\xebQ\xb8\x1e\xe5?'
p242
tp243
Rp244
ag6
(g10
S'R\xb8\x1e\x85\xebQ\xd8?'
p245
tp246
Rp247
ag6
(g10
S'\x00\x00\x00\x00\x00\x00\xf0?'
p248
tp249
Rp250
ag6
(g10
S'\x00\x00\x00\x00\x00\x00\xf0?'
p251
tp252
Rp253
aa(lp254
(lp255
I100
aS'rbf'
p256
aF0.275
aF0.275
aa(lp257
I25
aS'sigmoid'
p258
aF1.0
aF1.0
aa(lp259
I100
ag256
aF0.275
aF0.275
aa(lp260
I100
ag256
aF0.275
aF0.275
aa(lp261
I25
ag258
aF1.0
aF1.0
aa(lp262
I100
ag256
aF0.275
aF0.275
aa(lp263
I100
ag258
aF0.275
aF0.275
aa(lp264
I25
ag258
aF1.0
aF1.0
aa(lp265
I25
ag258
aF1.0
aF1.0
aa(lp266
I25
ag258
aF1.0
aF0.8250000000000001
aa(lp267
I100
ag258
aF0.275
aF0.55
aa(lp268
I50
ag258
aF1.0
aF1.0
aa(lp269
I100
ag258
aF0.275
aF0.275
aa(lp270
I100
ag256
aF0.275
aF0.275
aa(lp271
I25
ag256
aF1.0
aF0.275
aaaF8.621561050415039
ass.