(dp0
S'precision'
p1
(dp2
S'KNN'
p3
(lp4
(lp5
cnumpy.core.multiarray
scalar
p6
(cnumpy
dtype
p7
(S'f8'
p8
I0
I1
tp9
Rp10
(I3
S'<'
p11
NNNI-1
I-1
I0
tp12
bS')\\\x8f\xc2\xf5(\xcc?'
p13
tp14
Rp15
ag6
(g10
S'\xd7\xa3p=\n\xd7\xd3?'
p16
tp17
Rp18
ag6
(g10
S'\x8f\xc2\xf5(\\\x8f\xd2?'
p19
tp20
Rp21
ag6
(g10
S'\xd7\xa3p=\n\xd7\xd3?'
p22
tp23
Rp24
ag6
(g10
S'\xc3\xf5(\\\x8f\xc2\xd5?'
p25
tp26
Rp27
ag6
(g10
S'\xd7\xa3p=\n\xd7\xd3?'
p28
tp29
Rp30
ag6
(g10
S'\xb8\x1e\x85\xebQ\xb8\xce?'
p31
tp32
Rp33
ag6
(g10
S'\x8f\xc2\xf5(\\\x8f\xd2?'
p34
tp35
Rp36
ag6
(g10
S'\x00\x00\x00\x00\x00\x00\xd0?'
p37
tp38
Rp39
ag6
(g10
S'\x8f\xc2\xf5(\\\x8f\xd2?'
p40
tp41
Rp42
ag6
(g10
S'\x8f\xc2\xf5(\\\x8f\xd2?'
p43
tp44
Rp45
ag6
(g10
S'\xd7\xa3p=\n\xd7\xd3?'
p46
tp47
Rp48
ag6
(g10
S'\xecQ\xb8\x1e\x85\xeb\xd1?'
p49
tp50
Rp51
ag6
(g10
S'\xd7\xa3p=\n\xd7\xd3?'
p52
tp53
Rp54
ag6
(g10
S'\x00\x00\x00\x00\x00\x00\xd0?'
p55
tp56
Rp57
aa(lp58
(lp59
I4
aS'uniform'
p60
aa(lp61
I10
ag60
aa(lp62
I9
ag60
aa(lp63
I10
ag60
aa(lp64
I8
ag60
aa(lp65
I10
ag60
aa(lp66
I6
aS'distance'
p67
aa(lp68
I9
ag60
aa(lp69
I9
ag67
aa(lp70
I6
ag60
aa(lp71
I7
ag60
aa(lp72
I10
ag60
aa(lp73
I10
ag67
aa(lp74
I10
ag60
aa(lp75
I9
ag67
aaaF0.9826350212097168
asS'DTC'
p76
(lp77
(lp78
g6
(g10
S'333333\xd3?'
p79
tp80
Rp81
ag6
(g10
S'\xa4p=\n\xd7\xa3\xd0?'
p82
tp83
Rp84
ag6
(g10
S'R\xb8\x1e\x85\xebQ\xc8?'
p85
tp86
Rp87
ag6
(g10
S'\x00\x00\x00\x00\x00\x00\xd0?'
p88
tp89
Rp90
ag6
(g10
S'\xb8\x1e\x85\xebQ\xb8\xce?'
p91
tp92
Rp93
ag6
(g10
S'\x00\x00\x00\x00\x00\x00\xd0?'
p94
tp95
Rp96
ag6
(g10
S'333333\xd3?'
p97
tp98
Rp99
ag6
(g10
S'\xa4p=\n\xd7\xa3\xd0?'
p100
tp101
Rp102
ag6
(g10
S'{\x14\xaeG\xe1z\xd4?'
p103
tp104
Rp105
ag6
(g10
S'\x00\x00\x00\x00\x00\x00\xd0?'
p106
tp107
Rp108
ag6
(g10
S'\x00\x00\x00\x00\x00\x00\xd0?'
p109
tp110
Rp111
ag6
(g10
S'{\x14\xaeG\xe1z\xd4?'
p112
tp113
Rp114
ag6
(g10
S'{\x14\xaeG\xe1z\xd4?'
p115
tp116
Rp117
ag6
(g10
S'\xa4p=\n\xd7\xa3\xd0?'
p118
tp119
Rp120
ag6
(g10
S'{\x14\xaeG\xe1z\xd4?'
p121
tp122
Rp123
aa(lp124
(lp125
S'gini'
p126
aF0.3666666666666667
aI30
aI21
aI21
aa(lp127
g126
aF0.7333333333333334
aI30
aI7
aI21
aa(lp128
g126
aF0.7333333333333334
aI30
aI14
aI21
aa(lp129
S'entropy'
p130
aF0.7333333333333334
aI30
aI7
aI21
aa(lp131
g126
aF0.7333333333333334
aI30
aI21
aI21
aa(lp132
g130
aF0.3666666666666667
aI30
aI7
aI21
aa(lp133
g126
aF0.3666666666666667
aI30
aI21
aI21
aa(lp134
g126
aF0.7333333333333334
aI30
aI7
aI21
aa(lp135
g130
aF0.3666666666666667
aI30
aI21
aI21
aa(lp136
g130
aF0.7333333333333334
aI30
aI7
aI21
aa(lp137
g126
aF0.3666666666666667
aI30
aI14
aI21
aa(lp138
g130
aF0.3666666666666667
aI30
aI21
aI21
aa(lp139
g130
aF0.3666666666666667
aI30
aI21
aI21
aa(lp140
g130
aF0.7333333333333334
aI21
aI14
aI21
aa(lp141
g130
aF0.3666666666666667
aI30
aI21
aI21
aaaF5.013336896896362
asS'RF'
p142
(lp143
(lp144
g6
(g10
S'ffffff\xd6?'
p145
tp146
Rp147
ag6
(g10
S'\xaeG\xe1z\x14\xae\xd7?'
p148
tp149
Rp150
ag6
(g10
S'ffffff\xd6?'
p151
tp152
Rp153
ag6
(g10
S'ffffff\xd6?'
p154
tp155
Rp156
ag6
(g10
S'\x9a\x99\x99\x99\x99\x99\xd9?'
p157
tp158
Rp159
ag6
(g10
S'\xf6(\\\x8f\xc2\xf5\xd8?'
p160
tp161
Rp162
ag6
(g10
S'\n\xd7\xa3p=\n\xd7?'
p163
tp164
Rp165
ag6
(g10
S'ffffff\xd6?'
p166
tp167
Rp168
ag6
(g10
S'\xc3\xf5(\\\x8f\xc2\xd5?'
p169
tp170
Rp171
ag6
(g10
S'ffffff\xd6?'
p172
tp173
Rp174
ag6
(g10
S'\xc3\xf5(\\\x8f\xc2\xd5?'
p175
tp176
Rp177
ag6
(g10
S'ffffff\xd6?'
p178
tp179
Rp180
ag6
(g10
S'\xf6(\\\x8f\xc2\xf5\xd8?'
p181
tp182
Rp183
ag6
(g10
S'ffffff\xd6?'
p184
tp185
Rp186
ag6
(g10
S'ffffff\xd6?'
p187
tp188
Rp189
aa(lp190
(lp191
g126
aF0.3666666666666667
aI30
aI7
aI100
aa(lp192
g126
aF0.3666666666666667
aI30
aI14
aI100
aa(lp193
g130
aF0.7333333333333334
aI10
aI7
aI55
aa(lp194
g130
aF0.7333333333333334
aI10
aI7
aI100
aa(lp195
g126
aF0.3666666666666667
aI30
aI21
aI100
aa(lp196
g130
aF0.3666666666666667
aI30
aI21
aI55
aa(lp197
g126
aF1.0
aI21
aI14
aI100
aa(lp198
g130
aF1.0
aI21
aI14
aI100
aa(lp199
g126
aF1.0
aI30
aI7
aI100
aa(lp200
g130
aF0.3666666666666667
aI10
aI7
aI55
aa(lp201
g130
aF0.7333333333333334
aI30
aI7
aI55
aa(lp202
g130
aF0.3666666666666667
aI10
aI7
aI55
aa(lp203
g130
aF0.3666666666666667
aI30
aI21
aI55
aa(lp204
g130
aF0.3666666666666667
aI21
aI7
aI100
aa(lp205
g130
aF0.7333333333333334
aI30
aI14
aI55
aaaF493.14524102211
asS'SVM'
p206
(lp207
(lp208
g6
(g10
S'\x00\x00\x00\x00\x00\x00\x00\x00'
p209
tp210
Rp211
ag6
(g10
S'\x00\x00\x00\x00\x00\x00\x00\x00'
p212
tp213
Rp214
ag6
(g10
S'\x00\x00\x00\x00\x00\x00\x00\x00'
p215
tp216
Rp217
ag6
(g10
S'\x00\x00\x00\x00\x00\x00\x00\x00'
p218
tp219
Rp220
ag6
(g10
S'\x00\x00\x00\x00\x00\x00\x00\x00'
p221
tp222
Rp223
ag6
(g10
S'\x00\x00\x00\x00\x00\x00\x00\x00'
p224
tp225
Rp226
ag6
(g10
S'\x00\x00\x00\x00\x00\x00\x00\x00'
p227
tp228
Rp229
ag6
(g10
S'\x00\x00\x00\x00\x00\x00\x00\x00'
p230
tp231
Rp232
ag6
(g10
S'\x00\x00\x00\x00\x00\x00\x00\x00'
p233
tp234
Rp235
ag6
(g10
S'\x00\x00\x00\x00\x00\x00\x00\x00'
p236
tp237
Rp238
ag6
(g10
S'\x00\x00\x00\x00\x00\x00\x00\x00'
p239
tp240
Rp241
ag6
(g10
S'\x00\x00\x00\x00\x00\x00\x00\x00'
p242
tp243
Rp244
ag6
(g10
S'\x00\x00\x00\x00\x00\x00\x00\x00'
p245
tp246
Rp247
ag6
(g10
S'\x00\x00\x00\x00\x00\x00\x00\x00'
p248
tp249
Rp250
ag6
(g10
S'\x00\x00\x00\x00\x00\x00\x00\x00'
p251
tp252
Rp253
aa(lp254
(lp255
I100
aS'sigmoid'
p256
aF0.275
aF0.55
aa(lp257
I75
ag256
aF1.0
aF0.275
aa(lp258
I100
ag256
aF0.275
aF0.55
aa(lp259
I100
ag256
aF0.275
aF0.55
aa(lp260
I100
ag256
aF0.275
aF0.55
aa(lp261
I75
ag256
aF1.0
aF0.275
aa(lp262
I100
ag256
aF0.275
aF0.55
aa(lp263
I100
ag256
aF0.275
aF0.55
aa(lp264
I75
ag256
aF1.0
aF0.275
aa(lp265
I100
ag256
aF0.275
aF0.55
aa(lp266
I100
ag256
aF0.275
aF0.55
aa(lp267
I100
ag256
aF0.275
aF0.55
aa(lp268
I100
ag256
aF0.275
aF0.55
aa(lp269
I25
ag256
aF0.8250000000000001
aF0.275
aa(lp270
I100
ag256
aF0.275
aF0.55
aaaF31.597774982452393
ass.