(dp0
S'precision'
p1
(dp2
S'KNN'
p3
(lp4
(lp5
cnumpy.core.multiarray
scalar
p6
(cnumpy
dtype
p7
(S'f8'
p8
I0
I1
tp9
Rp10
(I3
S'<'
p11
NNNI-1
I-1
I0
tp12
bS'\xaeG\xe1z\x14\xae\xe7?'
p13
tp14
Rp15
ag6
(g10
S'\xaeG\xe1z\x14\xae\xe7?'
p16
tp17
Rp18
ag6
(g10
S'q=\n\xd7\xa3p\xe5?'
p19
tp20
Rp21
ag6
(g10
S'\xaeG\xe1z\x14\xae\xe7?'
p22
tp23
Rp24
ag6
(g10
S'\x00\x00\x00\x00\x00\x00\xe8?'
p25
tp26
Rp27
ag6
(g10
S'\n\xd7\xa3p=\n\xe7?'
p28
tp29
Rp30
ag6
(g10
S'\xaeG\xe1z\x14\xae\xe7?'
p31
tp32
Rp33
ag6
(g10
S'\xaeG\xe1z\x14\xae\xe7?'
p34
tp35
Rp36
ag6
(g10
S'\xaeG\xe1z\x14\xae\xe7?'
p37
tp38
Rp39
ag6
(g10
S'\\\x8f\xc2\xf5(\\\xe7?'
p40
tp41
Rp42
ag6
(g10
S'\n\xd7\xa3p=\n\xe7?'
p43
tp44
Rp45
ag6
(g10
S'\xaeG\xe1z\x14\xae\xe7?'
p46
tp47
Rp48
ag6
(g10
S'\xa4p=\n\xd7\xa3\xe8?'
p49
tp50
Rp51
ag6
(g10
S'q=\n\xd7\xa3p\xe5?'
p52
tp53
Rp54
ag6
(g10
S'\xaeG\xe1z\x14\xae\xe7?'
p55
tp56
Rp57
aa(lp58
(lp59
I10
aS'distance'
p60
aa(lp61
I10
ag60
aa(lp62
I3
ag60
aa(lp63
I10
ag60
aa(lp64
I4
aS'uniform'
p65
aa(lp66
I6
ag60
aa(lp67
I10
ag60
aa(lp68
I10
ag60
aa(lp69
I10
ag60
aa(lp70
I8
ag60
aa(lp71
I6
ag60
aa(lp72
I10
ag60
aa(lp73
I2
ag65
aa(lp74
I9
ag65
aa(lp75
I10
ag60
aaaF0.40001606941223145
asS'DTC'
p76
(lp77
(lp78
g6
(g10
S'q=\n\xd7\xa3p\xe5?'
p79
tp80
Rp81
ag6
(g10
S'\xe1z\x14\xaeG\xe1\xe2?'
p82
tp83
Rp84
ag6
(g10
S'q=\n\xd7\xa3p\xe5?'
p85
tp86
Rp87
ag6
(g10
S'\xe1z\x14\xaeG\xe1\xe2?'
p88
tp89
Rp90
ag6
(g10
S'\x9a\x99\x99\x99\x99\x99\xe9?'
p91
tp92
Rp93
ag6
(g10
S'q=\n\xd7\xa3p\xe5?'
p94
tp95
Rp96
ag6
(g10
S'\xe1z\x14\xaeG\xe1\xe2?'
p97
tp98
Rp99
ag6
(g10
S'q=\n\xd7\xa3p\xe5?'
p100
tp101
Rp102
ag6
(g10
S'q=\n\xd7\xa3p\xe5?'
p103
tp104
Rp105
ag6
(g10
S'ffffff\xe6?'
p106
tp107
Rp108
ag6
(g10
S'\x14\xaeG\xe1z\x14\xe6?'
p109
tp110
Rp111
ag6
(g10
S'ffffff\xe6?'
p112
tp113
Rp114
ag6
(g10
S'ffffff\xe6?'
p115
tp116
Rp117
ag6
(g10
S'q=\n\xd7\xa3p\xe5?'
p118
tp119
Rp120
ag6
(g10
S'q=\n\xd7\xa3p\xe5?'
p121
tp122
Rp123
aa(lp124
(lp125
S'entropy'
p126
aF0.3666666666666667
aI21
aI14
aI21
aa(lp127
g126
aF0.3666666666666667
aI10
aI7
aI21
aa(lp128
g126
aF0.7333333333333334
aI30
aI14
aI21
aa(lp129
g126
aF0.3666666666666667
aI10
aI7
aI21
aa(lp130
S'gini'
p131
aF0.3666666666666667
aI10
aI7
aI21
aa(lp132
g126
aF0.7333333333333334
aI30
aI14
aI21
aa(lp133
g126
aF0.3666666666666667
aI10
aI7
aI21
aa(lp134
g131
aF1.0
aI30
aI7
aI21
aa(lp135
g126
aF0.3666666666666667
aI21
aI14
aI21
aa(lp136
g126
aF1.0
aI10
aI7
aI21
aa(lp137
g131
aF0.7333333333333334
aI10
aI7
aI21
aa(lp138
g126
aF0.7333333333333334
aI10
aI7
aI21
aa(lp139
g126
aF1.0
aI10
aI7
aI21
aa(lp140
g126
aF0.7333333333333334
aI30
aI14
aI21
aa(lp141
g131
aF1.0
aI30
aI7
aI21
aaaF1.3347909450531006
asS'RF'
p142
(lp143
(lp144
g6
(g10
S'\x00\x00\x00\x00\x00\x00\xf0?'
p145
tp146
Rp147
ag6
(g10
S'=\n\xd7\xa3p=\xea?'
p148
tp149
Rp150
ag6
(g10
S'=\n\xd7\xa3p=\xea?'
p151
tp152
Rp153
ag6
(g10
S'=\n\xd7\xa3p=\xea?'
p154
tp155
Rp156
ag6
(g10
S'\xf6(\\\x8f\xc2\xf5\xe8?'
p157
tp158
Rp159
ag6
(g10
S'=\n\xd7\xa3p=\xea?'
p160
tp161
Rp162
ag6
(g10
S'\x8f\xc2\xf5(\\\x8f\xea?'
p163
tp164
Rp165
ag6
(g10
S'=\n\xd7\xa3p=\xea?'
p166
tp167
Rp168
ag6
(g10
S'=\n\xd7\xa3p=\xea?'
p169
tp170
Rp171
ag6
(g10
S'=\n\xd7\xa3p=\xea?'
p172
tp173
Rp174
ag6
(g10
S'\xf6(\\\x8f\xc2\xf5\xe8?'
p175
tp176
Rp177
ag6
(g10
S'=\n\xd7\xa3p=\xea?'
p178
tp179
Rp180
ag6
(g10
S'=\n\xd7\xa3p=\xea?'
p181
tp182
Rp183
ag6
(g10
S'\x00\x00\x00\x00\x00\x00\xe8?'
p184
tp185
Rp186
ag6
(g10
S'=\n\xd7\xa3p=\xea?'
p187
tp188
Rp189
aa(lp190
(lp191
g126
aF0.3666666666666667
aI30
aI7
aI100
aa(lp192
g126
aF1.0
aI30
aI7
aI100
aa(lp193
g126
aF1.0
aI21
aI7
aI100
aa(lp194
g126
aF1.0
aI30
aI7
aI100
aa(lp195
g126
aF1.0
aI21
aI14
aI100
aa(lp196
g126
aF0.7333333333333334
aI21
aI7
aI55
aa(lp197
g126
aF1.0
aI10
aI7
aI100
aa(lp198
g126
aF1.0
aI30
aI7
aI100
aa(lp199
g126
aF1.0
aI30
aI7
aI100
aa(lp200
g126
aF1.0
aI30
aI7
aI100
aa(lp201
g126
aF1.0
aI21
aI14
aI55
aa(lp202
g126
aF1.0
aI30
aI7
aI100
aa(lp203
g126
aF1.0
aI30
aI7
aI100
aa(lp204
g126
aF1.0
aI21
aI7
aI55
aa(lp205
g126
aF1.0
aI30
aI7
aI100
aaaF233.73178696632385
asS'SVM'
p206
(lp207
(lp208
g6
(g10
S'\x00\x00\x00\x00\x00\x00\xd0?'
p209
tp210
Rp211
ag6
(g10
S'\x00\x00\x00\x00\x00\x00\xd0?'
p212
tp213
Rp214
ag6
(g10
S'\x00\x00\x00\x00\x00\x00\xd0?'
p215
tp216
Rp217
ag6
(g10
S'\x00\x00\x00\x00\x00\x00\xd0?'
p218
tp219
Rp220
ag6
(g10
S'\x00\x00\x00\x00\x00\x00\xd0?'
p221
tp222
Rp223
ag6
(g10
S'\x00\x00\x00\x00\x00\x00\xd0?'
p224
tp225
Rp226
ag6
(g10
S'\x00\x00\x00\x00\x00\x00\xd0?'
p227
tp228
Rp229
ag6
(g10
S'\x00\x00\x00\x00\x00\x00\xd0?'
p230
tp231
Rp232
ag6
(g10
S'\x00\x00\x00\x00\x00\x00\xd0?'
p233
tp234
Rp235
ag6
(g10
S'\x00\x00\x00\x00\x00\x00\xd0?'
p236
tp237
Rp238
ag6
(g10
S'\n\xd7\xa3p=\n\xe7?'
p239
tp240
Rp241
ag6
(g10
S'\n\xd7\xa3p=\n\xe7?'
p242
tp243
Rp244
ag6
(g10
S'\n\xd7\xa3p=\n\xe7?'
p245
tp246
Rp247
ag6
(g10
S'\x00\x00\x00\x00\x00\x00\xd0?'
p248
tp249
Rp250
ag6
(g10
S'\n\xd7\xa3p=\n\xe7?'
p251
tp252
Rp253
aa(lp254
(lp255
I100
aS'sigmoid'
p256
aF0.275
aF0.55
aa(lp257
I100
ag256
aF0.275
aF0.55
aa(lp258
I100
ag256
aF0.275
aF0.55
aa(lp259
I100
ag256
aF0.275
aF0.55
aa(lp260
I100
ag256
aF0.275
aF0.55
aa(lp261
I100
ag256
aF0.275
aF0.55
aa(lp262
I100
ag256
aF0.275
aF0.55
aa(lp263
I100
ag256
aF0.275
aF0.55
aa(lp264
I100
ag256
aF0.275
aF0.55
aa(lp265
I100
ag256
aF0.275
aF0.55
aa(lp266
I100
aS'rbf'
p267
aF0.275
aF0.55
aa(lp268
I100
ag267
aF0.275
aF0.55
aa(lp269
I100
ag267
aF0.275
aF0.55
aa(lp270
I100
ag256
aF0.275
aF0.55
aa(lp271
I100
ag267
aF0.275
aF0.55
aaaF3.21126389503479
ass.