(dp0
S'f1'
p1
(dp2
S'KNN'
p3
(lp4
(lp5
cnumpy.core.multiarray
scalar
p6
(cnumpy
dtype
p7
(S'f8'
p8
I0
I1
tp9
Rp10
(I3
S'<'
p11
NNNI-1
I-1
I0
tp12
bS'q=\n\xd7\xa3p\xcd?'
p13
tp14
Rp15
ag6
(g10
S'\xc3\xf5(\\\x8f\xc2\xd5?'
p16
tp17
Rp18
ag6
(g10
S'\xa4p=\n\xd7\xa3\xd0?'
p19
tp20
Rp21
ag6
(g10
S'\x8f\xc2\xf5(\\\x8f\xd2?'
p22
tp23
Rp24
ag6
(g10
S'H\xe1z\x14\xaeG\xd1?'
p25
tp26
Rp27
ag6
(g10
S'\x8f\xc2\xf5(\\\x8f\xd2?'
p28
tp29
Rp30
ag6
(g10
S'\x8f\xc2\xf5(\\\x8f\xd2?'
p31
tp32
Rp33
ag6
(g10
S'\xa4p=\n\xd7\xa3\xd0?'
p34
tp35
Rp36
ag6
(g10
S'q=\n\xd7\xa3p\xcd?'
p37
tp38
Rp39
ag6
(g10
S'\xa4p=\n\xd7\xa3\xd0?'
p40
tp41
Rp42
ag6
(g10
S'\x00\x00\x00\x00\x00\x00\xd0?'
p43
tp44
Rp45
ag6
(g10
S'\x8f\xc2\xf5(\\\x8f\xd2?'
p46
tp47
Rp48
ag6
(g10
S'\x8f\xc2\xf5(\\\x8f\xd2?'
p49
tp50
Rp51
ag6
(g10
S'\xc3\xf5(\\\x8f\xc2\xd5?'
p52
tp53
Rp54
ag6
(g10
S'q=\n\xd7\xa3p\xcd?'
p55
tp56
Rp57
ag6
(g10
S'\xa4p=\n\xd7\xa3\xd0?'
p58
tp59
Rp60
ag6
(g10
S'\xa4p=\n\xd7\xa3\xd0?'
p61
tp62
Rp63
ag6
(g10
S'H\xe1z\x14\xaeG\xd1?'
p64
tp65
Rp66
ag6
(g10
S'\xc3\xf5(\\\x8f\xc2\xd5?'
p67
tp68
Rp69
ag6
(g10
S'\xc3\xf5(\\\x8f\xc2\xd5?'
p70
tp71
Rp72
ag6
(g10
S'\xa4p=\n\xd7\xa3\xd0?'
p73
tp74
Rp75
ag6
(g10
S'\xc3\xf5(\\\x8f\xc2\xd5?'
p76
tp77
Rp78
ag6
(g10
S'\x00\x00\x00\x00\x00\x00\xd0?'
p79
tp80
Rp81
ag6
(g10
S'\xc3\xf5(\\\x8f\xc2\xd5?'
p82
tp83
Rp84
ag6
(g10
S'\xc3\xf5(\\\x8f\xc2\xc5?'
p85
tp86
Rp87
ag6
(g10
S'\xa4p=\n\xd7\xa3\xd0?'
p88
tp89
Rp90
ag6
(g10
S'\x8f\xc2\xf5(\\\x8f\xd2?'
p91
tp92
Rp93
ag6
(g10
S'\x8f\xc2\xf5(\\\x8f\xd2?'
p94
tp95
Rp96
ag6
(g10
S'\xc3\xf5(\\\x8f\xc2\xd5?'
p97
tp98
Rp99
ag6
(g10
S'\xc3\xf5(\\\x8f\xc2\xd5?'
p100
tp101
Rp102
ag6
(g10
S'\x00\x00\x00\x00\x00\x00\xd0?'
p103
tp104
Rp105
ag6
(g10
S'\x8f\xc2\xf5(\\\x8f\xd2?'
p106
tp107
Rp108
ag6
(g10
S'\x8f\xc2\xf5(\\\x8f\xd2?'
p109
tp110
Rp111
ag6
(g10
S'\x8f\xc2\xf5(\\\x8f\xd2?'
p112
tp113
Rp114
ag6
(g10
S'\x8f\xc2\xf5(\\\x8f\xd2?'
p115
tp116
Rp117
ag6
(g10
S'q=\n\xd7\xa3p\xcd?'
p118
tp119
Rp120
ag6
(g10
S'\xc3\xf5(\\\x8f\xc2\xd5?'
p121
tp122
Rp123
ag6
(g10
S'\x8f\xc2\xf5(\\\x8f\xd2?'
p124
tp125
Rp126
ag6
(g10
S'\x00\x00\x00\x00\x00\x00\xd0?'
p127
tp128
Rp129
ag6
(g10
S'\xc3\xf5(\\\x8f\xc2\xd5?'
p130
tp131
Rp132
ag6
(g10
S'\xa4p=\n\xd7\xa3\xd0?'
p133
tp134
Rp135
ag6
(g10
S'\xc3\xf5(\\\x8f\xc2\xc5?'
p136
tp137
Rp138
ag6
(g10
S'\x8f\xc2\xf5(\\\x8f\xd2?'
p139
tp140
Rp141
ag6
(g10
S'\x8f\xc2\xf5(\\\x8f\xd2?'
p142
tp143
Rp144
ag6
(g10
S'\xa4p=\n\xd7\xa3\xd0?'
p145
tp146
Rp147
ag6
(g10
S'333333\xc3?'
p148
tp149
Rp150
ag6
(g10
S'\xc3\xf5(\\\x8f\xc2\xd5?'
p151
tp152
Rp153
ag6
(g10
S'\xc3\xf5(\\\x8f\xc2\xd5?'
p154
tp155
Rp156
ag6
(g10
S'\xa4p=\n\xd7\xa3\xd0?'
p157
tp158
Rp159
ag6
(g10
S'\x8f\xc2\xf5(\\\x8f\xd2?'
p160
tp161
Rp162
ag6
(g10
S'q=\n\xd7\xa3p\xcd?'
p163
tp164
Rp165
ag6
(g10
S'\xc3\xf5(\\\x8f\xc2\xd5?'
p166
tp167
Rp168
ag6
(g10
S'H\xe1z\x14\xaeG\xd1?'
p169
tp170
Rp171
ag6
(g10
S'q=\n\xd7\xa3p\xcd?'
p172
tp173
Rp174
ag6
(g10
S')\\\x8f\xc2\xf5(\xcc?'
p175
tp176
Rp177
ag6
(g10
S'333333\xc3?'
p178
tp179
Rp180
ag6
(g10
S'\xc3\xf5(\\\x8f\xc2\xd5?'
p181
tp182
Rp183
ag6
(g10
S'\x00\x00\x00\x00\x00\x00\xd0?'
p184
tp185
Rp186
ag6
(g10
S'\xc3\xf5(\\\x8f\xc2\xd5?'
p187
tp188
Rp189
ag6
(g10
S'q=\n\xd7\xa3p\xcd?'
p190
tp191
Rp192
aa(lp193
(lp194
I4
aS'uniform'
p195
aa(lp196
I2
aS'distance'
p197
aa(lp198
I4
ag197
aa(lp199
I7
ag197
aa(lp200
I9
ag197
aa(lp201
I3
ag195
aa(lp202
I3
ag195
aa(lp203
I4
ag197
aa(lp204
I9
ag195
aa(lp205
I4
ag197
aa(lp206
I5
ag195
aa(lp207
I3
ag195
aa(lp208
I5
ag197
aa(lp209
I2
ag197
aa(lp210
I4
ag195
aa(lp211
I4
ag197
aa(lp212
I4
ag197
aa(lp213
I10
ag197
aa(lp214
I2
ag197
aa(lp215
I2
ag197
aa(lp216
I4
ag197
aa(lp217
I2
ag197
aa(lp218
I5
ag195
aa(lp219
I2
ag197
aa(lp220
I7
ag195
aa(lp221
I4
ag197
aa(lp222
I3
ag195
aa(lp223
I6
ag197
aa(lp224
I2
ag197
aa(lp225
I2
ag197
aa(lp226
I5
ag195
aa(lp227
I7
ag197
aa(lp228
I6
ag197
aa(lp229
I7
ag197
aa(lp230
I5
ag197
aa(lp231
I9
ag195
aa(lp232
I2
ag197
aa(lp233
I3
ag195
aa(lp234
I5
ag195
aa(lp235
I2
ag197
aa(lp236
I4
ag197
aa(lp237
I7
ag195
aa(lp238
I3
ag195
aa(lp239
I6
ag197
aa(lp240
I3
ag197
aa(lp241
I10
ag195
aa(lp242
I2
ag197
aa(lp243
I2
ag197
aa(lp244
I4
ag197
aa(lp245
I3
ag195
aa(lp246
I9
ag195
aa(lp247
I2
ag197
aa(lp248
I10
ag197
aa(lp249
I9
ag195
aa(lp250
I2
ag195
aa(lp251
I6
ag195
aa(lp252
I2
ag197
aa(lp253
I5
ag195
aa(lp254
I2
ag197
aa(lp255
I9
ag195
aaaF6.074549913406372
asS'DTC'
p256
(lp257
(lp258
g6
(g10
S'\xe1z\x14\xaeG\xe1\xca?'
p259
tp260
Rp261
ag6
(g10
S'\x00\x00\x00\x00\x00\x00\xd0?'
p262
tp263
Rp264
ag6
(g10
S'\x9a\x99\x99\x99\x99\x99\xb9?'
p265
tp266
Rp267
ag6
(g10
S'\xecQ\xb8\x1e\x85\xeb\xc1?'
p268
tp269
Rp270
ag6
(g10
S'\xa4p=\n\xd7\xa3\xd0?'
p271
tp272
Rp273
ag6
(g10
S'q=\n\xd7\xa3p\xcd?'
p274
tp275
Rp276
ag6
(g10
S'\x00\x00\x00\x00\x00\x00\x00\x00'
p277
tp278
Rp279
ag6
(g10
S'\xe1z\x14\xaeG\xe1\xca?'
p280
tp281
Rp282
ag6
(g10
S'\xc3\xf5(\\\x8f\xc2\xc5?'
p283
tp284
Rp285
ag6
(g10
S'\x8f\xc2\xf5(\\\x8f\xd2?'
p286
tp287
Rp288
ag6
(g10
S'\xb8\x1e\x85\xebQ\xb8\xce?'
p289
tp290
Rp291
ag6
(g10
S'\xecQ\xb8\x1e\x85\xeb\xd1?'
p292
tp293
Rp294
ag6
(g10
S'\xd7\xa3p=\n\xd7\xd3?'
p295
tp296
Rp297
ag6
(g10
S'\xc3\xf5(\\\x8f\xc2\xc5?'
p298
tp299
Rp300
ag6
(g10
S')\\\x8f\xc2\xf5(\xcc?'
p301
tp302
Rp303
ag6
(g10
S'H\xe1z\x14\xaeG\xd1?'
p304
tp305
Rp306
ag6
(g10
S')\\\x8f\xc2\xf5(\xcc?'
p307
tp308
Rp309
ag6
(g10
S'\xecQ\xb8\x1e\x85\xeb\xd1?'
p310
tp311
Rp312
ag6
(g10
S'\x9a\x99\x99\x99\x99\x99\xc9?'
p313
tp314
Rp315
ag6
(g10
S'q=\n\xd7\xa3p\xcd?'
p316
tp317
Rp318
ag6
(g10
S'H\xe1z\x14\xaeG\xd1?'
p319
tp320
Rp321
ag6
(g10
S'\xe1z\x14\xaeG\xe1\xca?'
p322
tp323
Rp324
ag6
(g10
S'\xecQ\xb8\x1e\x85\xeb\xd1?'
p325
tp326
Rp327
ag6
(g10
S'H\xe1z\x14\xaeG\xd1?'
p328
tp329
Rp330
ag6
(g10
S'\n\xd7\xa3p=\n\xd7?'
p331
tp332
Rp333
ag6
(g10
S'\xe1z\x14\xaeG\xe1\xca?'
p334
tp335
Rp336
ag6
(g10
S'\xa4p=\n\xd7\xa3\xd0?'
p337
tp338
Rp339
ag6
(g10
S'\xd7\xa3p=\n\xd7\xd3?'
p340
tp341
Rp342
ag6
(g10
S')\\\x8f\xc2\xf5(\xcc?'
p343
tp344
Rp345
ag6
(g10
S'\n\xd7\xa3p=\n\xc7?'
p346
tp347
Rp348
ag6
(g10
S')\\\x8f\xc2\xf5(\xbc?'
p349
tp350
Rp351
ag6
(g10
S'\x00\x00\x00\x00\x00\x00\xd0?'
p352
tp353
Rp354
ag6
(g10
S'\n\xd7\xa3p=\n\xd7?'
p355
tp356
Rp357
ag6
(g10
S'\xa4p=\n\xd7\xa3\xd0?'
p358
tp359
Rp360
ag6
(g10
S'\xecQ\xb8\x1e\x85\xeb\xd1?'
p361
tp362
Rp363
ag6
(g10
S'q=\n\xd7\xa3p\xcd?'
p364
tp365
Rp366
ag6
(g10
S'H\xe1z\x14\xaeG\xd1?'
p367
tp368
Rp369
ag6
(g10
S'\x9a\x99\x99\x99\x99\x99\xc9?'
p370
tp371
Rp372
ag6
(g10
S')\\\x8f\xc2\xf5(\xcc?'
p373
tp374
Rp375
ag6
(g10
S'\x00\x00\x00\x00\x00\x00\x00\x00'
p376
tp377
Rp378
ag6
(g10
S'\n\xd7\xa3p=\n\xd7?'
p379
tp380
Rp381
ag6
(g10
S'\n\xd7\xa3p=\n\xd7?'
p382
tp383
Rp384
ag6
(g10
S')\\\x8f\xc2\xf5(\xbc?'
p385
tp386
Rp387
ag6
(g10
S'\x00\x00\x00\x00\x00\x00\xd0?'
p388
tp389
Rp390
ag6
(g10
S'q=\n\xd7\xa3p\xcd?'
p391
tp392
Rp393
ag6
(g10
S'\xecQ\xb8\x1e\x85\xeb\xd1?'
p394
tp395
Rp396
ag6
(g10
S'\xecQ\xb8\x1e\x85\xeb\xd1?'
p397
tp398
Rp399
ag6
(g10
S'H\xe1z\x14\xaeG\xd1?'
p400
tp401
Rp402
ag6
(g10
S'H\xe1z\x14\xaeG\xd1?'
p403
tp404
Rp405
ag6
(g10
S')\\\x8f\xc2\xf5(\xbc?'
p406
tp407
Rp408
ag6
(g10
S'H\xe1z\x14\xaeG\xd1?'
p409
tp410
Rp411
ag6
(g10
S'\xecQ\xb8\x1e\x85\xeb\xd1?'
p412
tp413
Rp414
ag6
(g10
S'q=\n\xd7\xa3p\xcd?'
p415
tp416
Rp417
ag6
(g10
S'\xecQ\xb8\x1e\x85\xeb\xd1?'
p418
tp419
Rp420
ag6
(g10
S'\x00\x00\x00\x00\x00\x00\x00\x00'
p421
tp422
Rp423
ag6
(g10
S'q=\n\xd7\xa3p\xcd?'
p424
tp425
Rp426
ag6
(g10
S'\n\xd7\xa3p=\n\xd7?'
p427
tp428
Rp429
ag6
(g10
S'\xd7\xa3p=\n\xd7\xd3?'
p430
tp431
Rp432
ag6
(g10
S'\xa4p=\n\xd7\xa3\xc0?'
p433
tp434
Rp435
ag6
(g10
S'\xecQ\xb8\x1e\x85\xeb\xd1?'
p436
tp437
Rp438
aa(lp439
(lp440
S'gini'
p441
aF0.9165355172927839
aI20
aI10
aI6
aa(lp442
S'entropy'
p443
aF0.6590734254740166
aI8
aI3
aI12
aa(lp444
g443
aF0.9468840188593829
aI17
aI10
aI12
aa(lp445
g443
aF0.23215983063603135
aI8
aI2
aI18
aa(lp446
g441
aF0.3889601088473602
aI12
aI2
aI19
aa(lp447
g441
aF0.23981182961662306
aI9
aI14
aI12
aa(lp448
g443
aF0.6115876244589165
aI19
aI2
aI6
aa(lp449
g443
aF0.9003052493974005
aI24
aI12
aI15
aa(lp450
g443
aF0.7865801013230572
aI15
aI15
aI14
aa(lp451
g443
aF0.18380197936877662
aI2
aI13
aI14
aa(lp452
g443
aF0.5638780079343189
aI12
aI3
aI21
aa(lp453
g441
aF0.4315487910395718
aI2
aI5
aI21
aa(lp454
g441
aF0.40727742432273295
aI6
aI10
aI11
aa(lp455
g441
aF0.5457163732048717
aI8
aI3
aI19
aa(lp456
g443
aF0.9398006127597299
aI9
aI1
aI16
aa(lp457
g441
aF0.42988748716057135
aI26
aI12
aI4
aa(lp458
g441
aF0.7563463835563647
aI5
aI5
aI3
aa(lp459
g441
aF0.8659795454976233
aI9
aI7
aI17
aa(lp460
g441
aF0.9447433396925755
aI14
aI2
aI5
aa(lp461
g443
aF0.5400331827811764
aI2
aI3
aI12
aa(lp462
g441
aF0.4891593281708272
aI11
aI10
aI16
aa(lp463
g443
aF0.5433581305357467
aI4
aI5
aI8
aa(lp464
g443
aF0.6608994123052693
aI29
aI1
aI9
aa(lp465
g441
aF0.2825121633877531
aI22
aI6
aI14
aa(lp466
g443
aF0.23320029471923126
aI8
aI18
aI6
aa(lp467
g443
aF0.5289299208545216
aI5
aI6
aI10
aa(lp468
g443
aF0.41856890085414467
aI7
aI7
aI17
aa(lp469
g441
aF0.507747665681267
aI6
aI10
aI15
aa(lp470
g443
aF0.6520795814148201
aI19
aI7
aI4
aa(lp471
g443
aF0.744030307257119
aI10
aI8
aI20
aa(lp472
g443
aF0.8184693790152506
aI12
aI8
aI5
aa(lp473
g441
aF0.48778664720553433
aI10
aI4
aI13
aa(lp474
g441
aF0.23334110655655432
aI28
aI20
aI18
aa(lp475
g443
aF0.4591947729180009
aI2
aI4
aI19
aa(lp476
g441
aF0.18578327136722253
aI2
aI10
aI7
aa(lp477
g443
aF0.24547012028207588
aI24
aI13
aI15
aa(lp478
g441
aF0.2706443638154517
aI15
aI10
aI7
aa(lp479
g443
aF0.7764250075992574
aI5
aI5
aI16
aa(lp480
g441
aF0.9057460272023791
aI3
aI14
aI7
aa(lp481
g443
aF0.48294844415388205
aI28
aI14
aI5
aa(lp482
g443
aF0.24156978261593987
aI10
aI12
aI2
aa(lp483
g443
aF0.24671013450700785
aI24
aI19
aI17
aa(lp484
g443
aF0.24488345051500354
aI13
aI5
aI19
aa(lp485
g443
aF0.908512734551236
aI28
aI14
aI16
aa(lp486
g443
aF0.2891382669949767
aI3
aI6
aI11
aa(lp487
g441
aF0.15119415207224327
aI23
aI10
aI18
aa(lp488
g441
aF0.6116977497553179
aI4
aI6
aI6
aa(lp489
g441
aF0.4380916098515999
aI10
aI11
aI9
aa(lp490
g441
aF0.6965806276638975
aI11
aI15
aI20
aa(lp491
g443
aF0.7210005006534687
aI25
aI9
aI5
aa(lp492
g441
aF0.42753389310224277
aI7
aI15
aI11
aa(lp493
g441
aF0.4127931826315979
aI5
aI5
aI15
aa(lp494
g441
aF0.4188257833584753
aI8
aI4
aI6
aa(lp495
g441
aF0.15531357360764275
aI16
aI11
aI7
aa(lp496
g443
aF0.49415377216411516
aI23
aI14
aI13
aa(lp497
g441
aF0.47058209487436875
aI15
aI8
aI11
aa(lp498
g441
aF0.2166362806489494
aI13
aI18
aI15
aa(lp499
g443
aF0.43751800853749456
aI4
aI2
aI6
aa(lp500
g443
aF0.463618381263172
aI5
aI6
aI15
aa(lp501
g443
aF0.19235377318237812
aI9
aI11
aI9
aaaF3.727976083755493
asS'RF'
p502
(lp503
(lp504
g6
(g10
S'333333\xc3?'
p505
tp506
Rp507
ag6
(g10
S'\x9a\x99\x99\x99\x99\x99\xc9?'
p508
tp509
Rp510
ag6
(g10
S'q=\n\xd7\xa3p\xcd?'
p511
tp512
Rp513
ag6
(g10
S'\xb8\x1e\x85\xebQ\xb8\xce?'
p514
tp515
Rp516
ag6
(g10
S'\xe1z\x14\xaeG\xe1\xca?'
p517
tp518
Rp519
ag6
(g10
S'\xc3\xf5(\\\x8f\xc2\xc5?'
p520
tp521
Rp522
ag6
(g10
S'\n\xd7\xa3p=\n\xc7?'
p523
tp524
Rp525
ag6
(g10
S'\x8f\xc2\xf5(\\\x8f\xd2?'
p526
tp527
Rp528
ag6
(g10
S'q=\n\xd7\xa3p\xcd?'
p529
tp530
Rp531
ag6
(g10
S'\xa4p=\n\xd7\xa3\xd0?'
p532
tp533
Rp534
ag6
(g10
S'\xecQ\xb8\x1e\x85\xeb\xd1?'
p535
tp536
Rp537
ag6
(g10
S'R\xb8\x1e\x85\xebQ\xc8?'
p538
tp539
Rp540
ag6
(g10
S'q=\n\xd7\xa3p\xcd?'
p541
tp542
Rp543
ag6
(g10
S'\xa4p=\n\xd7\xa3\xd0?'
p544
tp545
Rp546
ag6
(g10
S'\xe1z\x14\xaeG\xe1\xca?'
p547
tp548
Rp549
ag6
(g10
S'\x00\x00\x00\x00\x00\x00\x00\x00'
p550
tp551
Rp552
ag6
(g10
S'\x00\x00\x00\x00\x00\x00\xd0?'
p553
tp554
Rp555
ag6
(g10
S')\\\x8f\xc2\xf5(\xcc?'
p556
tp557
Rp558
ag6
(g10
S')\\\x8f\xc2\xf5(\xbc?'
p559
tp560
Rp561
ag6
(g10
S'\x9a\x99\x99\x99\x99\x99\xc9?'
p562
tp563
Rp564
ag6
(g10
S'\x00\x00\x00\x00\x00\x00\xd0?'
p565
tp566
Rp567
ag6
(g10
S'\x9a\x99\x99\x99\x99\x99\xc9?'
p568
tp569
Rp570
ag6
(g10
S'\xe1z\x14\xaeG\xe1\xca?'
p571
tp572
Rp573
ag6
(g10
S'\xb8\x1e\x85\xebQ\xb8\xce?'
p574
tp575
Rp576
ag6
(g10
S'\xc3\xf5(\\\x8f\xc2\xc5?'
p577
tp578
Rp579
ag6
(g10
S'\x00\x00\x00\x00\x00\x00\x00\x00'
p580
tp581
Rp582
ag6
(g10
S'\x9a\x99\x99\x99\x99\x99\xc9?'
p583
tp584
Rp585
ag6
(g10
S'q=\n\xd7\xa3p\xcd?'
p586
tp587
Rp588
ag6
(g10
S'\xc3\xf5(\\\x8f\xc2\xc5?'
p589
tp590
Rp591
ag6
(g10
S'\x00\x00\x00\x00\x00\x00\xd0?'
p592
tp593
Rp594
ag6
(g10
S'333333\xc3?'
p595
tp596
Rp597
ag6
(g10
S'\xecQ\xb8\x1e\x85\xeb\xd1?'
p598
tp599
Rp600
ag6
(g10
S'\x00\x00\x00\x00\x00\x00\x00\x00'
p601
tp602
Rp603
ag6
(g10
S'\xa4p=\n\xd7\xa3\xd0?'
p604
tp605
Rp606
ag6
(g10
S'\n\xd7\xa3p=\n\xc7?'
p607
tp608
Rp609
ag6
(g10
S'\xe1z\x14\xaeG\xe1\xca?'
p610
tp611
Rp612
ag6
(g10
S'q=\n\xd7\xa3p\xcd?'
p613
tp614
Rp615
ag6
(g10
S'\xb8\x1e\x85\xebQ\xb8\xce?'
p616
tp617
Rp618
ag6
(g10
S'q=\n\xd7\xa3p\xcd?'
p619
tp620
Rp621
ag6
(g10
S'\x9a\x99\x99\x99\x99\x99\xc9?'
p622
tp623
Rp624
ag6
(g10
S'q=\n\xd7\xa3p\xcd?'
p625
tp626
Rp627
ag6
(g10
S'333333\xc3?'
p628
tp629
Rp630
ag6
(g10
S'\xa4p=\n\xd7\xa3\xd0?'
p631
tp632
Rp633
ag6
(g10
S'\xe1z\x14\xaeG\xe1\xca?'
p634
tp635
Rp636
ag6
(g10
S'\xb8\x1e\x85\xebQ\xb8\xbe?'
p637
tp638
Rp639
ag6
(g10
S'\n\xd7\xa3p=\n\xc7?'
p640
tp641
Rp642
ag6
(g10
S'\xecQ\xb8\x1e\x85\xeb\xd1?'
p643
tp644
Rp645
ag6
(g10
S'\x00\x00\x00\x00\x00\x00\xd0?'
p646
tp647
Rp648
ag6
(g10
S'\xb8\x1e\x85\xebQ\xb8\xce?'
p649
tp650
Rp651
ag6
(g10
S'\xecQ\xb8\x1e\x85\xeb\xd1?'
p652
tp653
Rp654
ag6
(g10
S'\xe1z\x14\xaeG\xe1\xca?'
p655
tp656
Rp657
ag6
(g10
S'\xb8\x1e\x85\xebQ\xb8\xce?'
p658
tp659
Rp660
ag6
(g10
S'\n\xd7\xa3p=\n\xc7?'
p661
tp662
Rp663
ag6
(g10
S'\xa4p=\n\xd7\xa3\xd0?'
p664
tp665
Rp666
ag6
(g10
S')\\\x8f\xc2\xf5(\xcc?'
p667
tp668
Rp669
ag6
(g10
S'\xa4p=\n\xd7\xa3\xd0?'
p670
tp671
Rp672
ag6
(g10
S'\xe1z\x14\xaeG\xe1\xca?'
p673
tp674
Rp675
ag6
(g10
S'\xecQ\xb8\x1e\x85\xeb\xd1?'
p676
tp677
Rp678
ag6
(g10
S'\xa4p=\n\xd7\xa3\xd0?'
p679
tp680
Rp681
ag6
(g10
S'R\xb8\x1e\x85\xebQ\xc8?'
p682
tp683
Rp684
aa(lp685
(lp686
g441
aF0.17577508045483042
aI2
aI5
aI56
aa(lp687
g443
aF0.404534386785493
aI5
aI3
aI17
aa(lp688
g443
aF0.6571071190011448
aI8
aI3
aI26
aa(lp689
g441
aF0.475043256769335
aI28
aI5
aI75
aa(lp690
g441
aF0.5066754422873972
aI17
aI12
aI39
aa(lp691
g443
aF0.870345694750503
aI5
aI1
aI72
aa(lp692
g443
aF0.6698984236848624
aI21
aI3
aI13
aa(lp693
g441
aF0.5027994370028488
aI7
aI9
aI55
aa(lp694
g441
aF0.8609153463017455
aI8
aI7
aI87
aa(lp695
g441
aF0.8606163021683318
aI20
aI11
aI54
aa(lp696
g441
aF0.8081898829158062
aI24
aI7
aI19
aa(lp697
g441
aF0.8922056562257884
aI4
aI6
aI90
aa(lp698
g443
aF0.47916890491325226
aI6
aI6
aI56
aa(lp699
g443
aF0.26708328437963
aI19
aI5
aI41
aa(lp700
g443
aF0.39204531339394266
aI5
aI4
aI23
aa(lp701
g443
aF0.9098495280203778
aI28
aI20
aI45
aa(lp702
g441
aF0.7475781911634547
aI13
aI11
aI17
aa(lp703
g443
aF0.9011639125468971
aI16
aI8
aI19
aa(lp704
g441
aF0.5594877107288856
aI6
aI4
aI50
aa(lp705
g441
aF0.7025360174394498
aI16
aI5
aI74
aa(lp706
g441
aF0.6998419763701058
aI14
aI9
aI41
aa(lp707
g441
aF0.7492952458949531
aI24
aI13
aI12
aa(lp708
g441
aF0.3083379383961796
aI20
aI3
aI19
aa(lp709
g443
aF0.47196446263903025
aI27
aI6
aI31
aa(lp710
g441
aF0.7671892198313844
aI12
aI9
aI10
aa(lp711
g443
aF0.2119573600080944
aI3
aI17
aI18
aa(lp712
g441
aF0.5108626102099031
aI10
aI3
aI52
aa(lp713
g441
aF0.43519539279624
aI6
aI3
aI54
aa(lp714
g441
aF0.6434276269898367
aI3
aI6
aI72
aa(lp715
g443
aF0.7451511605139511
aI20
aI9
aI28
aa(lp716
g441
aF0.8492300869748948
aI12
aI5
aI68
aa(lp717
g441
aF0.6931543253462308
aI27
aI7
aI22
aa(lp718
g443
aF0.13346721550543084
aI8
aI11
aI26
aa(lp719
g441
aF0.9427749939911552
aI14
aI9
aI94
aa(lp720
g443
aF0.22501427730842977
aI2
aI3
aI77
aa(lp721
g443
aF0.7262462071645349
aI11
aI5
aI12
aa(lp722
g441
aF0.454974113367542
aI2
aI2
aI47
aa(lp723
g443
aF0.3615460927618481
aI6
aI9
aI51
aa(lp724
g441
aF0.7454748757452908
aI2
aI12
aI67
aa(lp725
g441
aF0.4765612322091861
aI5
aI1
aI69
aa(lp726
g441
aF0.9106338564780974
aI10
aI9
aI15
aa(lp727
g443
aF0.2792690197942589
aI7
aI3
aI76
aa(lp728
g443
aF0.6536784057358727
aI7
aI2
aI77
aa(lp729
g443
aF0.6236884791568669
aI24
aI3
aI86
aa(lp730
g441
aF0.7097891462865992
aI3
aI16
aI71
aa(lp731
g443
aF0.5289176309102278
aI3
aI5
aI43
aa(lp732
g441
aF0.6926818477784991
aI25
aI8
aI24
aa(lp733
g443
aF0.2473291879286621
aI14
aI1
aI29
aa(lp734
g443
aF0.9513057910723358
aI5
aI9
aI25
aa(lp735
g441
aF0.8107517286499895
aI26
aI5
aI22
aa(lp736
g443
aF0.784325991072588
aI3
aI8
aI59
aa(lp737
g443
aF0.6530061537223848
aI16
aI12
aI75
aa(lp738
g441
aF0.6403331562859685
aI18
aI14
aI78
aa(lp739
g443
aF0.32724959501218476
aI3
aI2
aI29
aa(lp740
g441
aF0.4800093799968306
aI14
aI8
aI17
aa(lp741
g443
aF0.5586857354032728
aI18
aI3
aI15
aa(lp742
g441
aF0.8655606667057076
aI18
aI14
aI11
aa(lp743
g441
aF0.6719736638209753
aI17
aI2
aI84
aa(lp744
g443
aF0.3248388355454216
aI4
aI4
aI35
aa(lp745
g441
aF0.797802304186799
aI13
aI2
aI71
aaaF2670.6040709018707
asS'SVM'
p746
(lp747
(lp748
g6
(g10
S'\x00\x00\x00\x00\x00\x00\x00\x00'
p749
tp750
Rp751
ag6
(g10
S'\x00\x00\x00\x00\x00\x00\x00\x00'
p752
tp753
Rp754
ag6
(g10
S'\x00\x00\x00\x00\x00\x00\x00\x00'
p755
tp756
Rp757
ag6
(g10
S'\x00\x00\x00\x00\x00\x00\x00\x00'
p758
tp759
Rp760
ag6
(g10
S'\x00\x00\x00\x00\x00\x00\x00\x00'
p761
tp762
Rp763
ag6
(g10
S'\x00\x00\x00\x00\x00\x00\x00\x00'
p764
tp765
Rp766
ag6
(g10
S'\x00\x00\x00\x00\x00\x00\x00\x00'
p767
tp768
Rp769
ag6
(g10
S'\x00\x00\x00\x00\x00\x00\x00\x00'
p770
tp771
Rp772
ag6
(g10
S'\x00\x00\x00\x00\x00\x00\x00\x00'
p773
tp774
Rp775
ag6
(g10
S'\x00\x00\x00\x00\x00\x00\x00\x00'
p776
tp777
Rp778
ag6
(g10
S'\x00\x00\x00\x00\x00\x00\x00\x00'
p779
tp780
Rp781
ag6
(g10
S'\x00\x00\x00\x00\x00\x00\x00\x00'
p782
tp783
Rp784
ag6
(g10
S'\x00\x00\x00\x00\x00\x00\x00\x00'
p785
tp786
Rp787
ag6
(g10
S'\xb8\x1e\x85\xebQ\xb8\xae?'
p788
tp789
Rp790
ag6
(g10
S'\x00\x00\x00\x00\x00\x00\x00\x00'
p791
tp792
Rp793
ag6
(g10
S'\x00\x00\x00\x00\x00\x00\x00\x00'
p794
tp795
Rp796
ag6
(g10
S'\x00\x00\x00\x00\x00\x00\x00\x00'
p797
tp798
Rp799
ag6
(g10
S'\x00\x00\x00\x00\x00\x00\x00\x00'
p800
tp801
Rp802
ag6
(g10
S'\xb8\x1e\x85\xebQ\xb8\xae?'
p803
tp804
Rp805
ag6
(g10
S'\xb8\x1e\x85\xebQ\xb8\xae?'
p806
tp807
Rp808
ag6
(g10
S'\xb8\x1e\x85\xebQ\xb8\x9e?'
p809
tp810
Rp811
ag6
(g10
S'\xb8\x1e\x85\xebQ\xb8\xae?'
p812
tp813
Rp814
ag6
(g10
S'\x00\x00\x00\x00\x00\x00\x00\x00'
p815
tp816
Rp817
ag6
(g10
S'\x00\x00\x00\x00\x00\x00\x00\x00'
p818
tp819
Rp820
ag6
(g10
S'\x00\x00\x00\x00\x00\x00\x00\x00'
p821
tp822
Rp823
ag6
(g10
S'\x00\x00\x00\x00\x00\x00\x00\x00'
p824
tp825
Rp826
ag6
(g10
S'\x00\x00\x00\x00\x00\x00\x00\x00'
p827
tp828
Rp829
ag6
(g10
S'\x00\x00\x00\x00\x00\x00\x00\x00'
p830
tp831
Rp832
ag6
(g10
S'\x00\x00\x00\x00\x00\x00\x00\x00'
p833
tp834
Rp835
ag6
(g10
S'\x00\x00\x00\x00\x00\x00\x00\x00'
p836
tp837
Rp838
ag6
(g10
S'\xb8\x1e\x85\xebQ\xb8\xae?'
p839
tp840
Rp841
ag6
(g10
S'\x00\x00\x00\x00\x00\x00\x00\x00'
p842
tp843
Rp844
ag6
(g10
S'\xb8\x1e\x85\xebQ\xb8\xae?'
p845
tp846
Rp847
ag6
(g10
S'\x00\x00\x00\x00\x00\x00\x00\x00'
p848
tp849
Rp850
ag6
(g10
S'\x00\x00\x00\x00\x00\x00\x00\x00'
p851
tp852
Rp853
ag6
(g10
S'\xb8\x1e\x85\xebQ\xb8\xae?'
p854
tp855
Rp856
ag6
(g10
S'\xb8\x1e\x85\xebQ\xb8\xae?'
p857
tp858
Rp859
ag6
(g10
S'\xb8\x1e\x85\xebQ\xb8\xae?'
p860
tp861
Rp862
ag6
(g10
S'\xb8\x1e\x85\xebQ\xb8\xae?'
p863
tp864
Rp865
ag6
(g10
S'\x00\x00\x00\x00\x00\x00\x00\x00'
p866
tp867
Rp868
ag6
(g10
S'\x00\x00\x00\x00\x00\x00\x00\x00'
p869
tp870
Rp871
ag6
(g10
S'\x00\x00\x00\x00\x00\x00\x00\x00'
p872
tp873
Rp874
ag6
(g10
S'\x00\x00\x00\x00\x00\x00\x00\x00'
p875
tp876
Rp877
ag6
(g10
S'\x00\x00\x00\x00\x00\x00\x00\x00'
p878
tp879
Rp880
ag6
(g10
S'\x00\x00\x00\x00\x00\x00\x00\x00'
p881
tp882
Rp883
ag6
(g10
S'\x00\x00\x00\x00\x00\x00\x00\x00'
p884
tp885
Rp886
ag6
(g10
S'\xb8\x1e\x85\xebQ\xb8\xae?'
p887
tp888
Rp889
ag6
(g10
S'\x00\x00\x00\x00\x00\x00\x00\x00'
p890
tp891
Rp892
ag6
(g10
S'\x00\x00\x00\x00\x00\x00\x00\x00'
p893
tp894
Rp895
ag6
(g10
S'\xb8\x1e\x85\xebQ\xb8\xae?'
p896
tp897
Rp898
ag6
(g10
S'\x00\x00\x00\x00\x00\x00\x00\x00'
p899
tp900
Rp901
ag6
(g10
S'\x00\x00\x00\x00\x00\x00\x00\x00'
p902
tp903
Rp904
ag6
(g10
S'\xb8\x1e\x85\xebQ\xb8\xae?'
p905
tp906
Rp907
ag6
(g10
S'\xb8\x1e\x85\xebQ\xb8\x9e?'
p908
tp909
Rp910
ag6
(g10
S'\x00\x00\x00\x00\x00\x00\x00\x00'
p911
tp912
Rp913
ag6
(g10
S'\x00\x00\x00\x00\x00\x00\x00\x00'
p914
tp915
Rp916
ag6
(g10
S'\xb8\x1e\x85\xebQ\xb8\xae?'
p917
tp918
Rp919
ag6
(g10
S'\x00\x00\x00\x00\x00\x00\x00\x00'
p920
tp921
Rp922
ag6
(g10
S'\xb8\x1e\x85\xebQ\xb8\xae?'
p923
tp924
Rp925
ag6
(g10
S'\x00\x00\x00\x00\x00\x00\x00\x00'
p926
tp927
Rp928
aa(lp929
(lp930
I27
aS'sigmoid'
p931
aF0.5652697887214626
aF0.7066992232095091
aa(lp932
I46
ag931
aF0.6879541775433523
aF0.5822369448682986
aa(lp933
I71
ag931
aF0.35528466762741673
aF0.9658246041333464
aa(lp934
I12
ag931
aF0.7808376850569663
aF0.5351609423280099
aa(lp935
I55
aS'rbf'
p936
aF0.4180477127025787
aF0.5945876180900903
aa(lp937
I41
ag936
aF0.17267904190166378
aF0.5472260029425684
aa(lp938
I39
ag936
aF0.9374471950552217
aF0.2901757392381842
aa(lp939
I72
ag936
aF0.25277301419613063
aF0.6359353753875525
aa(lp940
I62
ag936
aF0.5826984751932104
aF0.5771060707606555
aa(lp941
I34
ag936
aF0.1402137494986881
aF0.36747375652964276
aa(lp942
I83
ag936
aF0.6891156031503577
aF0.3296628218839115
aa(lp943
I60
ag936
aF0.7070696155370989
aF0.9734767006761759
aa(lp944
I90
ag931
aF0.9222238064389272
aF0.830611714036696
aa(lp945
I54
ag931
aF0.25407157741611885
aF0.2304730876833851
aa(lp946
I27
ag936
aF0.7349972091719169
aF0.2961881761738895
aa(lp947
I83
ag936
aF0.2984137737102054
aF0.5739309168824821
aa(lp948
I55
ag936
aF0.6629717124268028
aF0.15932132212025452
aa(lp949
I93
ag936
aF0.2352871181636116
aF0.7357208759931178
aa(lp950
I75
ag931
aF0.34997268787599023
aF0.3125552225526831
aa(lp951
I82
ag931
aF0.301018919069465
aF0.39995612658530544
aa(lp952
I57
ag931
aF0.15748162392164103
aF0.7433100268844861
aa(lp953
I81
ag931
aF0.21331436378799845
aF0.5042446953860327
aa(lp954
I26
ag936
aF0.12600483741789134
aF0.2936775140735354
aa(lp955
I48
ag936
aF0.5940150758646849
aF0.46765816071050437
aa(lp956
I4
ag931
aF0.2942266008351673
aF0.7433476412177431
aa(lp957
I5
ag931
aF0.6267974523138965
aF0.5664694588309498
aa(lp958
I92
ag931
aF0.6180421547056046
aF0.8433877943132289
aa(lp959
I43
ag931
aF0.2616712515268773
aF0.8003386710083311
aa(lp960
I89
ag936
aF0.3782312065488037
aF0.4482246100220466
aa(lp961
I60
ag936
aF0.6124575821369272
aF0.9460308081326979
aa(lp962
I45
ag931
aF0.427816567672365
aF0.25049923722007134
aa(lp963
I68
ag936
aF0.8599397340831676
aF0.9635409516906371
aa(lp964
I84
ag931
aF0.3810793913289431
aF0.31515567557429314
aa(lp965
I64
ag936
aF0.565404792695367
aF0.6658601055648835
aa(lp966
I9
ag936
aF0.3387643199331598
aF0.8354570276371138
aa(lp967
I82
ag931
aF0.3499089657139524
aF0.1693142433670129
aa(lp968
I77
ag931
aF0.5670236156724844
aF0.37321441402232514
aa(lp969
I100
ag931
aF0.20486477148207854
aF0.5229675332703715
aa(lp970
I79
ag931
aF0.5705477351019319
aF0.29389102864074124
aa(lp971
I56
ag936
aF0.20274943310197224
aF0.17170865107816993
aa(lp972
I15
ag936
aF0.6497849183603795
aF0.15419099048380158
aa(lp973
I64
ag936
aF0.9717336507051748
aF0.5208187794033802
aa(lp974
I61
ag936
aF0.4159213609452379
aF0.2356073487246086
aa(lp975
I27
ag936
aF0.8680403861149658
aF0.7542048805532641
aa(lp976
I33
ag931
aF0.21996696067845722
aF0.8619186522759194
aa(lp977
I48
ag936
aF0.11626712823968932
aF0.9138535286183431
aa(lp978
I85
ag931
aF0.6908134683985369
aF0.15423888456074386
aa(lp979
I15
ag936
aF0.7005603189010937
aF0.8255389784824626
aa(lp980
I50
ag936
aF0.5628733415900463
aF0.49323426414783955
aa(lp981
I60
ag931
aF0.6249959321779955
aF0.23431626627400598
aa(lp982
I11
ag931
aF0.10658951978576214
aF0.9408093298935034
aa(lp983
I2
ag936
aF0.1905807023290513
aF0.8296195039719204
aa(lp984
I73
ag931
aF0.3034534396476922
aF0.5135061585969304
aa(lp985
I27
ag931
aF0.2516267705099633
aF0.3704817623888269
aa(lp986
I98
ag936
aF0.6463832784682327
aF0.9995837626509573
aa(lp987
I87
ag931
aF0.8522487845536205
aF0.9846007605142025
aa(lp988
I88
ag931
aF0.8581101698413723
aF0.17492163959713908
aa(lp989
I90
ag936
aF0.29167728150097183
aF0.920416895762036
aa(lp990
I60
ag931
aF0.24439678726024563
aF0.6823621559359107
aa(lp991
I40
ag936
aF0.36387172731611683
aF0.995806739250161
aaaF5.696913003921509
ass.