(dp0
S'25'
p1
(dp2
S'f1'
p3
(dp4
S'DTC'
p5
(dp6
S'lucene'
p7
(dp8
S'default'
p9
I1
sS'smac'
p10
I0
sS'random'
p11
I1
sS'de'
p12
I1
sS'grid'
p13
I0
ssS'synapse'
p14
(dp15
g9
I2
sg10
I0
sg11
I0
sg12
I0
sg13
I0
ssS'xerces'
p16
(dp17
g9
I2
sg10
I0
sg11
I1
sg12
I0
sg13
I1
ssS'camel'
p18
(dp19
g9
I2
sg10
I1
sg11
I0
sg12
I0
sg13
I0
ssS'log4j'
p20
(dp21
g9
I2
sg10
I0
sg11
I0
sg12
I0
sg13
I0
ssS'ant'
p22
(dp23
g9
I3
sg10
I1
sg11
I1
sg12
I1
sg13
I1
ssS'jedit'
p24
(dp25
g9
I2
sg10
I2
sg11
I0
sg12
I1
sg13
I1
ssS'poi'
p26
(dp27
g9
I2
sg10
I1
sg11
I1
sg12
I1
sg13
I1
ssS'velocity'
p28
(dp29
g9
I2
sg10
I0
sg11
I0
sg12
I0
sg13
I0
ssS'ivy'
p30
(dp31
g9
I1
sg10
I1
sg11
I0
sg12
I0
sg13
I0
sssS'KNN'
p32
(dp33
g7
(dp34
g9
I1
sg10
I0
sg11
I1
sg12
I0
sg13
I1
ssg14
(dp35
g9
I1
sg10
I1
sg11
I0
sg12
I0
sg13
I0
ssg16
(dp36
g9
I3
sg10
I0
sg11
I0
sg12
I0
sg13
I0
ssg18
(dp37
g9
I0
sg10
I3
sg11
I3
sg12
I3
sg13
I3
ssg20
(dp38
g9
I2
sg10
I0
sg11
I0
sg12
I0
sg13
I0
ssg22
(dp39
g9
I3
sg10
I0
sg11
I1
sg12
I1
sg13
I1
ssg24
(dp40
g9
I2
sg10
I2
sg11
I2
sg12
I2
sg13
I2
ssg26
(dp41
g9
I1
sg10
I1
sg11
I2
sg12
I2
sg13
I2
ssg28
(dp42
g9
I1
sg10
I0
sg11
I1
sg12
I1
sg13
I1
ssg30
(dp43
g9
I1
sg10
I1
sg11
I0
sg12
I0
sg13
I0
sssS'RF'
p44
(dp45
g7
(dp46
g9
I1
sg10
I1
sg11
I1
sg12
I1
sg13
I1
ssg14
(dp47
g9
I1
sg10
I1
sg11
I0
sg12
I1
sg13
I0
ssg16
(dp48
g9
I2
sg10
I0
sg11
I1
sg12
I1
sg13
I0
ssg18
(dp49
g9
I1
sg10
I0
sg11
I1
sg12
I2
sg13
I0
ssg20
(dp50
g9
I2
sg10
I0
sg11
I0
sg12
I0
sg13
I0
ssg22
(dp51
g9
I2
sg10
I1
sg11
I1
sg12
I1
sg13
I2
ssg24
(dp52
g9
I2
sg10
I2
sg11
I2
sg12
I2
sg13
I2
ssg26
(dp53
g9
I1
sg10
I1
sg11
I1
sg12
I1
sg13
I2
ssg28
(dp54
g9
I1
sg10
I1
sg11
I0
sg12
I0
sg13
I0
ssg30
(dp55
g9
I1
sg10
I1
sg11
I1
sg12
I1
sg13
I1
sssS'SVM'
p56
(dp57
g7
(dp58
g9
I1
sg10
I0
sg11
I1
sg12
I1
sg13
I1
ssg14
(dp59
g9
I0
sg10
I2
sg11
I0
sg12
I0
sg13
I0
ssg16
(dp60
g9
I1
sg10
I2
sg11
I1
sg12
I0
sg13
I1
ssg18
(dp61
g9
I1
sg10
I2
sg11
I1
sg12
I1
sg13
I1
ssg20
(dp62
g9
I2
sg10
I0
sg11
I0
sg12
I0
sg13
I0
ssg22
(dp63
g9
I0
sg10
I4
sg11
I0
sg12
I0
sg13
I0
ssg24
(dp64
g9
I3
sg10
I1
sg11
I0
sg12
I0
sg13
I0
ssg26
(dp65
g9
I1
sg10
I2
sg11
I1
sg12
I1
sg13
I2
ssg28
(dp66
g9
I2
sg10
I0
sg11
I0
sg12
I0
sg13
I0
ssg30
(dp67
g9
I1
sg10
I1
sg11
I0
sg12
I0
sg13
I0
ssssS'precision'
p68
(dp69
g5
(dp70
g7
(dp71
g9
I1
sg10
I0
sg11
I1
sg12
I1
sg13
I1
ssg14
(dp72
g9
I1
sg10
I0
sg11
I1
sg12
I1
sg13
I1
ssg16
(dp73
g9
I1
sg10
I1
sg11
I1
sg12
I1
sg13
I1
ssg18
(dp74
g9
I1
sg10
I1
sg11
I1
sg12
I1
sg13
I0
ssg20
(dp75
g9
I0
sg10
I0
sg11
I2
sg12
I2
sg13
I2
ssg22
(dp76
g9
I1
sg10
I2
sg11
I1
sg12
I1
sg13
I1
ssg24
(dp77
g9
I0
sg10
I3
sg11
I1
sg12
I1
sg13
I1
ssg26
(dp78
g9
I0
sg10
I1
sg11
I1
sg12
I2
sg13
I2
ssg28
(dp79
g9
I0
sg10
I2
sg11
I0
sg12
I0
sg13
I0
ssg30
(dp80
g9
I0
sg10
I2
sg11
I0
sg12
I0
sg13
I0
sssg32
(dp81
g7
(dp82
g9
I1
sg10
I0
sg11
I1
sg12
I1
sg13
I1
ssg14
(dp83
g9
I1
sg10
I0
sg11
I1
sg12
I1
sg13
I1
ssg16
(dp84
g9
I1
sg10
I2
sg11
I1
sg12
I1
sg13
I1
ssg18
(dp85
g9
I0
sg10
I2
sg11
I2
sg12
I2
sg13
I2
ssg20
(dp86
g9
I2
sg10
I0
sg11
I0
sg12
I0
sg13
I0
ssg22
(dp87
g9
I1
sg10
I0
sg11
I3
sg12
I3
sg13
I3
ssg24
(dp88
g9
I1
sg10
I3
sg11
I0
sg12
I0
sg13
I0
ssg26
(dp89
g9
I0
sg10
I1
sg11
I2
sg12
I2
sg13
I2
ssg28
(dp90
g9
I0
sg10
I2
sg11
I0
sg12
I0
sg13
I0
ssg30
(dp91
g9
I1
sg10
I1
sg11
I0
sg12
I0
sg13
I0
sssg44
(dp92
g7
(dp93
g9
I0
sg10
I1
sg11
I1
sg12
I1
sg13
I1
ssg14
(dp94
g9
I1
sg10
I0
sg11
I1
sg12
I1
sg13
I1
ssg16
(dp95
g9
I0
sg10
I2
sg11
I2
sg12
I2
sg13
I2
ssg18
(dp96
g9
I0
sg10
I2
sg11
I1
sg12
I2
sg13
I1
ssg20
(dp97
g9
I0
sg10
I0
sg11
I2
sg12
I2
sg13
I2
ssg22
(dp98
g9
I0
sg10
I2
sg11
I3
sg12
I2
sg13
I3
ssg24
(dp99
g9
I0
sg10
I3
sg11
I1
sg12
I1
sg13
I0
ssg26
(dp100
g9
I0
sg10
I1
sg11
I2
sg12
I2
sg13
I2
ssg28
(dp101
g9
I0
sg10
I2
sg11
I0
sg12
I0
sg13
I0
ssg30
(dp102
g9
I0
sg10
I2
sg11
I0
sg12
I0
sg13
I0
sssg56
(dp103
g7
(dp104
g9
I0
sg10
I1
sg11
I0
sg12
I0
sg13
I1
ssg14
(dp105
g9
I0
sg10
I2
sg11
I0
sg12
I0
sg13
I0
ssg16
(dp106
g9
I1
sg10
I2
sg11
I1
sg12
I2
sg13
I1
ssg18
(dp107
g9
I1
sg10
I2
sg11
I0
sg12
I0
sg13
I0
ssg20
(dp108
g9
I1
sg10
I1
sg11
I0
sg12
I0
sg13
I0
ssg22
(dp109
g9
I1
sg10
I3
sg11
I0
sg12
I0
sg13
I0
ssg24
(dp110
g9
I0
sg10
I4
sg11
I0
sg12
I0
sg13
I0
ssg26
(dp111
g9
I1
sg10
I1
sg11
I0
sg12
I0
sg13
I1
ssg28
(dp112
g9
I0
sg10
I2
sg11
I0
sg12
I0
sg13
I0
ssg30
(dp113
g9
I1
sg10
I1
sg11
I0
sg12
I0
sg13
I0
sssssS'100'
p114
(dp115
g3
(dp116
g5
(dp117
g7
(dp118
g9
I0
sg10
I1
sg11
I2
sg12
I2
sg13
I0
ssg14
(dp119
g9
I2
sg10
I0
sg11
I0
sg12
I0
sg13
I0
ssg16
(dp120
g9
I2
sg10
I0
sg11
I1
sg12
I1
sg13
I0
ssg18
(dp121
g9
I2
sg10
I1
sg11
I0
sg12
I0
sg13
I0
ssg20
(dp122
g9
I2
sg10
I0
sg11
I0
sg12
I0
sg13
I0
ssg22
(dp123
g9
I3
sg10
I1
sg11
I1
sg12
I1
sg13
I1
ssg24
(dp124
g9
I2
sg10
I2
sg11
I0
sg12
I0
sg13
I1
ssg26
(dp125
g9
I2
sg10
I1
sg11
I1
sg12
I1
sg13
I1
ssg28
(dp126
g9
I1
sg10
I0
sg11
I1
sg12
I1
sg13
I1
ssg30
(dp127
g9
I1
sg10
I1
sg11
I1
sg12
I1
sg13
I1
sssg32
(dp128
g7
(dp129
g9
I2
sg10
I0
sg11
I0
sg12
I0
sg13
I0
ssg14
(dp130
g9
I1
sg10
I1
sg11
I0
sg12
I0
sg13
I0
ssg16
(dp131
g9
I2
sg10
I1
sg11
I0
sg12
I0
sg13
I0
ssg18
(dp132
g9
I0
sg10
I3
sg11
I2
sg12
I2
sg13
I2
ssg20
(dp133
g9
I2
sg10
I0
sg11
I0
sg12
I0
sg13
I0
ssg22
(dp134
g9
I3
sg10
I0
sg11
I1
sg12
I1
sg13
I1
ssg24
(dp135
g9
I1
sg10
I3
sg11
I1
sg12
I1
sg13
I1
ssg26
(dp136
g9
I1
sg10
I0
sg11
I2
sg12
I2
sg13
I2
ssg28
(dp137
g9
I1
sg10
I0
sg11
I1
sg12
I1
sg13
I1
ssg30
(dp138
g9
I1
sg10
I1
sg11
I0
sg12
I0
sg13
I0
sssg44
(dp139
g7
(dp140
g9
I0
sg10
I2
sg11
I2
sg12
I2
sg13
I2
ssg14
(dp141
g9
I2
sg10
I0
sg11
I0
sg12
I0
sg13
I0
ssg16
(dp142
g9
I2
sg10
I1
sg11
I0
sg12
I0
sg13
I0
ssg18
(dp143
g9
I1
sg10
I0
sg11
I1
sg12
I2
sg13
I0
ssg20
(dp144
g9
I2
sg10
I0
sg11
I0
sg12
I0
sg13
I0
ssg22
(dp145
g9
I1
sg10
I1
sg11
I2
sg12
I2
sg13
I2
ssg24
(dp146
g9
I1
sg10
I3
sg11
I1
sg12
I1
sg13
I1
ssg26
(dp147
g9
I2
sg10
I1
sg11
I1
sg12
I1
sg13
I1
ssg28
(dp148
g9
I0
sg10
I1
sg11
I1
sg12
I1
sg13
I1
ssg30
(dp149
g9
I1
sg10
I1
sg11
I1
sg12
I1
sg13
I1
sssg56
(dp150
g7
(dp151
g9
I1
sg10
I1
sg11
I1
sg12
I1
sg13
I1
ssg14
(dp152
g9
I1
sg10
I1
sg11
I0
sg12
I0
sg13
I0
ssg16
(dp153
g9
I2
sg10
I1
sg11
I1
sg12
I1
sg13
I1
ssg18
(dp154
g9
I1
sg10
I0
sg11
I1
sg12
I1
sg13
I2
ssg20
(dp155
g9
I1
sg10
I1
sg11
I0
sg12
I0
sg13
I0
ssg22
(dp156
g9
I2
sg10
I0
sg11
I0
sg12
I0
sg13
I2
ssg24
(dp157
g9
I2
sg10
I2
sg11
I0
sg12
I0
sg13
I0
ssg26
(dp158
g9
I2
sg10
I1
sg11
I1
sg12
I1
sg13
I1
ssg28
(dp159
g9
I2
sg10
I0
sg11
I0
sg12
I0
sg13
I0
ssg30
(dp160
g9
I1
sg10
I0
sg11
I1
sg12
I1
sg13
I1
ssssg68
(dp161
g5
(dp162
g7
(dp163
g9
I0
sg10
I1
sg11
I2
sg12
I1
sg13
I2
ssg14
(dp164
g9
I0
sg10
I0
sg11
I1
sg12
I1
sg13
I2
ssg16
(dp165
g9
I0
sg10
I2
sg11
I1
sg12
I1
sg13
I2
ssg18
(dp166
g9
I0
sg10
I2
sg11
I1
sg12
I1
sg13
I2
ssg20
(dp167
g9
I0
sg10
I0
sg11
I2
sg12
I1
sg13
I2
ssg22
(dp168
g9
I1
sg10
I2
sg11
I1
sg12
I1
sg13
I1
ssg24
(dp169
g9
I0
sg10
I3
sg11
I1
sg12
I1
sg13
I1
ssg26
(dp170
g9
I0
sg10
I1
sg11
I1
sg12
I2
sg13
I2
ssg28
(dp171
g9
I0
sg10
I2
sg11
I0
sg12
I0
sg13
I0
ssg30
(dp172
g9
I2
sg10
I0
sg11
I0
sg12
I0
sg13
I0
sssg32
(dp173
g7
(dp174
g9
I1
sg10
I0
sg11
I1
sg12
I1
sg13
I1
ssg14
(dp175
g9
I1
sg10
I0
sg11
I1
sg12
I1
sg13
I1
ssg16
(dp176
g9
I1
sg10
I2
sg11
I0
sg12
I1
sg13
I0
ssg18
(dp177
g9
I0
sg10
I2
sg11
I0
sg12
I0
sg13
I1
ssg20
(dp178
g9
I2
sg10
I0
sg11
I0
sg12
I0
sg13
I0
ssg22
(dp179
g9
I0
sg10
I1
sg11
I3
sg12
I3
sg13
I3
ssg24
(dp180
g9
I1
sg10
I3
sg11
I0
sg12
I0
sg13
I0
ssg26
(dp181
g9
I0
sg10
I1
sg11
I2
sg12
I2
sg13
I1
ssg28
(dp182
g9
I0
sg10
I2
sg11
I0
sg12
I0
sg13
I0
ssg30
(dp183
g9
I1
sg10
I1
sg11
I0
sg12
I0
sg13
I0
sssg44
(dp184
g7
(dp185
g9
I0
sg10
I1
sg11
I1
sg12
I1
sg13
I1
ssg14
(dp186
g9
I1
sg10
I0
sg11
I1
sg12
I1
sg13
I1
ssg16
(dp187
g9
I0
sg10
I2
sg11
I2
sg12
I1
sg13
I1
ssg18
(dp188
g9
I0
sg10
I2
sg11
I1
sg12
I1
sg13
I1
ssg20
(dp189
g9
I0
sg10
I0
sg11
I2
sg12
I1
sg13
I2
ssg22
(dp190
g9
I0
sg10
I2
sg11
I3
sg12
I2
sg13
I2
ssg24
(dp191
g9
I0
sg10
I3
sg11
I1
sg12
I0
sg13
I0
ssg26
(dp192
g9
I0
sg10
I1
sg11
I2
sg12
I2
sg13
I2
ssg28
(dp193
g9
I0
sg10
I2
sg11
I0
sg12
I0
sg13
I0
ssg30
(dp194
g9
I0
sg10
I2
sg11
I0
sg12
I0
sg13
I0
sssg56
(dp195
g7
(dp196
g9
I1
sg10
I1
sg11
I0
sg12
I0
sg13
I0
ssg14
(dp197
g9
I1
sg10
I1
sg11
I0
sg12
I0
sg13
I0
ssg16
(dp198
g9
I1
sg10
I2
sg11
I0
sg12
I0
sg13
I0
ssg18
(dp199
g9
I1
sg10
I0
sg11
I1
sg12
I1
sg13
I2
ssg20
(dp200
g9
I1
sg10
I1
sg11
I0
sg12
I0
sg13
I0
ssg22
(dp201
g9
I2
sg10
I0
sg11
I1
sg12
I1
sg13
I2
ssg24
(dp202
g9
I0
sg10
I4
sg11
I0
sg12
I0
sg13
I0
ssg26
(dp203
g9
I2
sg10
I0
sg11
I1
sg12
I1
sg13
I1
ssg28
(dp204
g9
I0
sg10
I2
sg11
I0
sg12
I0
sg13
I0
ssg30
(dp205
g9
I2
sg10
I0
sg11
I0
sg12
I0
sg13
I0
sssssS'50'
p206
(dp207
g3
(dp208
g5
(dp209
g7
(dp210
g9
I0
sg10
I1
sg11
I2
sg12
I2
sg13
I0
ssg14
(dp211
g9
I2
sg10
I0
sg11
I0
sg12
I0
sg13
I0
ssg16
(dp212
g9
I3
sg10
I0
sg11
I0
sg12
I0
sg13
I0
ssg18
(dp213
g9
I2
sg10
I1
sg11
I0
sg12
I0
sg13
I0
ssg20
(dp214
g9
I2
sg10
I0
sg11
I0
sg12
I0
sg13
I0
ssg22
(dp215
g9
I3
sg10
I1
sg11
I1
sg12
I1
sg13
I1
ssg24
(dp216
g9
I2
sg10
I2
sg11
I0
sg12
I0
sg13
I0
ssg26
(dp217
g9
I2
sg10
I0
sg11
I0
sg12
I0
sg13
I1
ssg28
(dp218
g9
I1
sg10
I1
sg11
I0
sg12
I0
sg13
I0
ssg30
(dp219
g9
I1
sg10
I1
sg11
I1
sg12
I1
sg13
I1
sssg32
(dp220
g7
(dp221
g9
I2
sg10
I0
sg11
I0
sg12
I0
sg13
I0
ssg14
(dp222
g9
I1
sg10
I1
sg11
I0
sg12
I0
sg13
I0
ssg16
(dp223
g9
I2
sg10
I1
sg11
I0
sg12
I0
sg13
I0
ssg18
(dp224
g9
I0
sg10
I3
sg11
I2
sg12
I2
sg13
I2
ssg20
(dp225
g9
I2
sg10
I0
sg11
I0
sg12
I0
sg13
I0
ssg22
(dp226
g9
I3
sg10
I0
sg11
I1
sg12
I1
sg13
I1
ssg24
(dp227
g9
I1
sg10
I3
sg11
I2
sg12
I2
sg13
I2
ssg26
(dp228
g9
I1
sg10
I1
sg11
I2
sg12
I2
sg13
I1
ssg28
(dp229
g9
I1
sg10
I0
sg11
I1
sg12
I1
sg13
I0
ssg30
(dp230
g9
I1
sg10
I1
sg11
I0
sg12
I0
sg13
I0
sssg44
(dp231
g7
(dp232
g9
I1
sg10
I0
sg11
I0
sg12
I0
sg13
I1
ssg14
(dp233
g9
I2
sg10
I0
sg11
I0
sg12
I0
sg13
I0
ssg16
(dp234
g9
I3
sg10
I0
sg11
I0
sg12
I0
sg13
I0
ssg18
(dp235
g9
I2
sg10
I0
sg11
I1
sg12
I1
sg13
I0
ssg20
(dp236
g9
I2
sg10
I0
sg11
I0
sg12
I0
sg13
I0
ssg22
(dp237
g9
I2
sg10
I0
sg11
I0
sg12
I0
sg13
I2
ssg24
(dp238
g9
I2
sg10
I2
sg11
I1
sg12
I1
sg13
I1
ssg26
(dp239
g9
I2
sg10
I1
sg11
I1
sg12
I1
sg13
I1
ssg28
(dp240
g9
I0
sg10
I1
sg11
I1
sg12
I1
sg13
I1
ssg30
(dp241
g9
I1
sg10
I1
sg11
I1
sg12
I1
sg13
I1
sssg56
(dp242
g7
(dp243
g9
I1
sg10
I0
sg11
I1
sg12
I1
sg13
I1
ssg14
(dp244
g9
I0
sg10
I2
sg11
I0
sg12
I0
sg13
I0
ssg16
(dp245
g9
I2
sg10
I1
sg11
I1
sg12
I0
sg13
I0
ssg18
(dp246
g9
I1
sg10
I2
sg11
I0
sg12
I0
sg13
I0
ssg20
(dp247
g9
I2
sg10
I0
sg11
I0
sg12
I0
sg13
I0
ssg22
(dp248
g9
I1
sg10
I3
sg11
I0
sg12
I0
sg13
I0
ssg24
(dp249
g9
I3
sg10
I1
sg11
I0
sg12
I0
sg13
I0
ssg26
(dp250
g9
I2
sg10
I0
sg11
I1
sg12
I1
sg13
I1
ssg28
(dp251
g9
I2
sg10
I0
sg11
I0
sg12
I0
sg13
I0
ssg30
(dp252
g9
I1
sg10
I0
sg11
I1
sg12
I1
sg13
I1
ssssg68
(dp253
g5
(dp254
g7
(dp255
g9
I1
sg10
I0
sg11
I1
sg12
I1
sg13
I1
ssg14
(dp256
g9
I1
sg10
I0
sg11
I1
sg12
I1
sg13
I1
ssg16
(dp257
g9
I0
sg10
I2
sg11
I1
sg12
I2
sg13
I1
ssg18
(dp258
g9
I0
sg10
I2
sg11
I2
sg12
I2
sg13
I1
ssg20
(dp259
g9
I0
sg10
I0
sg11
I2
sg12
I2
sg13
I2
ssg22
(dp260
g9
I1
sg10
I2
sg11
I0
sg12
I0
sg13
I1
ssg24
(dp261
g9
I0
sg10
I3
sg11
I1
sg12
I1
sg13
I1
ssg26
(dp262
g9
I0
sg10
I1
sg11
I1
sg12
I2
sg13
I1
ssg28
(dp263
g9
I0
sg10
I2
sg11
I0
sg12
I0
sg13
I0
ssg30
(dp264
g9
I0
sg10
I2
sg11
I0
sg12
I0
sg13
I0
sssg32
(dp265
g7
(dp266
g9
I0
sg10
I1
sg11
I2
sg12
I2
sg13
I2
ssg14
(dp267
g9
I1
sg10
I0
sg11
I1
sg12
I1
sg13
I1
ssg16
(dp268
g9
I0
sg10
I2
sg11
I0
sg12
I1
sg13
I0
ssg18
(dp269
g9
I0
sg10
I2
sg11
I1
sg12
I0
sg13
I1
ssg20
(dp270
g9
I1
sg10
I0
sg11
I0
sg12
I0
sg13
I1
ssg22
(dp271
g9
I1
sg10
I0
sg11
I2
sg12
I3
sg13
I3
ssg24
(dp272
g9
I1
sg10
I3
sg11
I0
sg12
I0
sg13
I0
ssg26
(dp273
g9
I0
sg10
I1
sg11
I2
sg12
I2
sg13
I1
ssg28
(dp274
g9
I0
sg10
I2
sg11
I0
sg12
I0
sg13
I0
ssg30
(dp275
g9
I1
sg10
I1
sg11
I0
sg12
I0
sg13
I0
sssg44
(dp276
g7
(dp277
g9
I0
sg10
I1
sg11
I1
sg12
I1
sg13
I1
ssg14
(dp278
g9
I1
sg10
I0
sg11
I1
sg12
I1
sg13
I1
ssg16
(dp279
g9
I0
sg10
I2
sg11
I2
sg12
I1
sg13
I2
ssg18
(dp280
g9
I0
sg10
I2
sg11
I1
sg12
I1
sg13
I1
ssg20
(dp281
g9
I1
sg10
I0
sg11
I1
sg12
I1
sg13
I1
ssg22
(dp282
g9
I0
sg10
I2
sg11
I3
sg12
I2
sg13
I3
ssg24
(dp283
g9
I0
sg10
I3
sg11
I1
sg12
I1
sg13
I0
ssg26
(dp284
g9
I0
sg10
I1
sg11
I2
sg12
I2
sg13
I2
ssg28
(dp285
g9
I0
sg10
I2
sg11
I0
sg12
I0
sg13
I0
ssg30
(dp286
g9
I0
sg10
I2
sg11
I0
sg12
I0
sg13
I0
sssg56
(dp287
g7
(dp288
g9
I2
sg10
I0
sg11
I0
sg12
I0
sg13
I0
ssg14
(dp289
g9
I0
sg10
I2
sg11
I0
sg12
I0
sg13
I0
ssg16
(dp290
g9
I1
sg10
I2
sg11
I0
sg12
I0
sg13
I1
ssg18
(dp291
g9
I1
sg10
I2
sg11
I0
sg12
I0
sg13
I0
ssg20
(dp292
g9
I1
sg10
I1
sg11
I0
sg12
I0
sg13
I0
ssg22
(dp293
g9
I0
sg10
I4
sg11
I0
sg12
I0
sg13
I0
ssg24
(dp294
g9
I0
sg10
I4
sg11
I0
sg12
I0
sg13
I0
ssg26
(dp295
g9
I1
sg10
I1
sg11
I1
sg12
I1
sg13
I0
ssg28
(dp296
g9
I0
sg10
I2
sg11
I0
sg12
I0
sg13
I0
ssg30
(dp297
g9
I2
sg10
I0
sg11
I0
sg12
I0
sg13
I0
sssss.