(dp0
S'25'
p1
(dp2
S'f1'
p3
(dp4
sS'time_f1'
p5
(dp6
sS'time_precision'
p7
(dp8
sS'precision'
p9
(dp10
ssS'100'
p11
(dp12
g3
(dp13
sg5
(dp14
sg7
(dp15
sg9
(dp16
ssS'50'
p17
(dp18
g3
(dp19
sg5
(dp20
sg7
(dp21
sg9
(dp22
ss.