(dp0
S'precision'
p1
(dp2
S'RF'
p3
(lp4
(lp5
cnumpy.core.multiarray
scalar
p6
(cnumpy
dtype
p7
(S'f8'
p8
I0
I1
tp9
Rp10
(I3
S'<'
p11
NNNI-1
I-1
I0
tp12
bS'333333\xe3?'
p13
tp14
Rp15
ag6
(g10
S'333333\xe3?'
p16
tp17
Rp18
ag6
(g10
S'333333\xe3?'
p19
tp20
Rp21
ag6
(g10
S'\x8f\xc2\xf5(\\\x8f\xe2?'
p22
tp23
Rp24
ag6
(g10
S'\x8f\xc2\xf5(\\\x8f\xe2?'
p25
tp26
Rp27
ag6
(g10
S'\xe1z\x14\xaeG\xe1\xe2?'
p28
tp29
Rp30
ag6
(g10
S'\x8f\xc2\xf5(\\\x8f\xe2?'
p31
tp32
Rp33
ag6
(g10
S'\xe1z\x14\xaeG\xe1\xe2?'
p34
tp35
Rp36
ag6
(g10
S'\x8f\xc2\xf5(\\\x8f\xe2?'
p37
tp38
Rp39
ag6
(g10
S'\x8f\xc2\xf5(\\\x8f\xe2?'
p40
tp41
Rp42
ag6
(g10
S'\x8f\xc2\xf5(\\\x8f\xe2?'
p43
tp44
Rp45
ag6
(g10
S'\x85\xebQ\xb8\x1e\x85\xe3?'
p46
tp47
Rp48
ag6
(g10
S'=\n\xd7\xa3p=\xe2?'
p49
tp50
Rp51
ag6
(g10
S'\x8f\xc2\xf5(\\\x8f\xe2?'
p52
tp53
Rp54
ag6
(g10
S'\xe1z\x14\xaeG\xe1\xe2?'
p55
tp56
Rp57
aa(lp58
(lp59
S'entropy'
p60
aF0.55
aI30
aI21
aI100
aa(lp61
g60
aF0.55
aI30
aI11
aI100
aa(lp62
g60
aF0.55
aI30
aI21
aI100
aa(lp63
g60
aF1.0
aI16
aI11
aI55
aa(lp64
g60
aF1.0
aI16
aI11
aI55
aa(lp65
S'gini'
p66
aF1.0
aI16
aI11
aI100
aa(lp67
g60
aF0.55
aI30
aI21
aI55
aa(lp68
g66
aF1.0
aI16
aI11
aI100
aa(lp69
g60
aF0.55
aI30
aI21
aI55
aa(lp70
g66
aF1.0
aI16
aI11
aI55
aa(lp71
g60
aF0.55
aI16
aI11
aI55
aa(lp72
g66
aF0.55
aI16
aI11
aI55
aa(lp73
g66
aF0.55
aI30
aI21
aI55
aa(lp74
g60
aF1.0
aI16
aI11
aI55
aa(lp75
g60
aF0.55
aI30
aI11
aI55
aaaF61.08670902252197
ass.