(dp0
S'precision'
p1
(dp2
S'KNN'
p3
(lp4
(lp5
cnumpy.core.multiarray
scalar
p6
(cnumpy
dtype
p7
(S'f8'
p8
I0
I1
tp9
Rp10
(I3
S'<'
p11
NNNI-1
I-1
I0
tp12
bS'\xcd\xcc\xcc\xcc\xcc\xcc\xe4?'
p13
tp14
Rp15
ag6
(g10
S'\x1f\x85\xebQ\xb8\x1e\xe5?'
p16
tp17
Rp18
ag6
(g10
S'\xcd\xcc\xcc\xcc\xcc\xcc\xe4?'
p19
tp20
Rp21
ag6
(g10
S'\x1f\x85\xebQ\xb8\x1e\xe5?'
p22
tp23
Rp24
ag6
(g10
S'q=\n\xd7\xa3p\xe5?'
p25
tp26
Rp27
ag6
(g10
S'\xd7\xa3p=\n\xd7\xe3?'
p28
tp29
Rp30
ag6
(g10
S'q=\n\xd7\xa3p\xe5?'
p31
tp32
Rp33
ag6
(g10
S'\xd7\xa3p=\n\xd7\xe3?'
p34
tp35
Rp36
ag6
(g10
S'q=\n\xd7\xa3p\xe5?'
p37
tp38
Rp39
ag6
(g10
S'\xcd\xcc\xcc\xcc\xcc\xcc\xe4?'
p40
tp41
Rp42
ag6
(g10
S'\xd7\xa3p=\n\xd7\xe3?'
p43
tp44
Rp45
ag6
(g10
S')\\\x8f\xc2\xf5(\xe4?'
p46
tp47
Rp48
ag6
(g10
S'\xcd\xcc\xcc\xcc\xcc\xcc\xe4?'
p49
tp50
Rp51
ag6
(g10
S'\xcd\xcc\xcc\xcc\xcc\xcc\xe4?'
p52
tp53
Rp54
ag6
(g10
S'q=\n\xd7\xa3p\xe5?'
p55
tp56
Rp57
aa(lp58
(lp59
I9
aS'uniform'
p60
aa(lp61
I7
aS'distance'
p62
aa(lp63
I9
ag62
aa(lp64
I8
ag60
aa(lp65
I10
ag60
aa(lp66
I4
ag60
aa(lp67
I10
ag60
aa(lp68
I4
ag60
aa(lp69
I10
ag60
aa(lp70
I6
ag60
aa(lp71
I4
ag60
aa(lp72
I5
ag62
aa(lp73
I6
ag60
aa(lp74
I6
ag60
aa(lp75
I10
ag60
aaaF0.4053921699523926
asS'DTC'
p76
(lp77
(lp78
g6
(g10
S'q=\n\xd7\xa3p\xe5?'
p79
tp80
Rp81
ag6
(g10
S'\xcd\xcc\xcc\xcc\xcc\xcc\xe4?'
p82
tp83
Rp84
ag6
(g10
S'\x85\xebQ\xb8\x1e\x85\xe3?'
p85
tp86
Rp87
ag6
(g10
S'\x85\xebQ\xb8\x1e\x85\xe3?'
p88
tp89
Rp90
ag6
(g10
S'\x8f\xc2\xf5(\\\x8f\xe2?'
p91
tp92
Rp93
ag6
(g10
S'\xcd\xcc\xcc\xcc\xcc\xcc\xe4?'
p94
tp95
Rp96
ag6
(g10
S'q=\n\xd7\xa3p\xe5?'
p97
tp98
Rp99
ag6
(g10
S'\x8f\xc2\xf5(\\\x8f\xe2?'
p100
tp101
Rp102
ag6
(g10
S'\xf6(\\\x8f\xc2\xf5\xe8?'
p103
tp104
Rp105
ag6
(g10
S'\x85\xebQ\xb8\x1e\x85\xe3?'
p106
tp107
Rp108
ag6
(g10
S'q=\n\xd7\xa3p\xe5?'
p109
tp110
Rp111
ag6
(g10
S'q=\n\xd7\xa3p\xe5?'
p112
tp113
Rp114
ag6
(g10
S'q=\n\xd7\xa3p\xe5?'
p115
tp116
Rp117
ag6
(g10
S'\xcd\xcc\xcc\xcc\xcc\xcc\xe4?'
p118
tp119
Rp120
ag6
(g10
S'\x85\xebQ\xb8\x1e\x85\xe3?'
p121
tp122
Rp123
aa(lp124
(lp125
S'entropy'
p126
aF0.55
aI16
aI11
aI21
aa(lp127
g126
aF0.55
aI30
aI21
aI11
aa(lp128
g126
aF0.55
aI30
aI11
aI11
aa(lp129
g126
aF1.0
aI30
aI21
aI11
aa(lp130
g126
aF1.0
aI30
aI11
aI11
aa(lp131
g126
aF0.55
aI30
aI21
aI11
aa(lp132
g126
aF0.55
aI16
aI11
aI21
aa(lp133
g126
aF1.0
aI30
aI11
aI11
aa(lp134
S'gini'
p135
aF0.55
aI30
aI11
aI21
aa(lp136
g126
aF1.0
aI30
aI21
aI11
aa(lp137
g126
aF0.55
aI16
aI11
aI21
aa(lp138
g126
aF0.55
aI16
aI11
aI21
aa(lp139
g126
aF0.55
aI16
aI11
aI21
aa(lp140
g126
aF0.55
aI30
aI21
aI11
aa(lp141
g126
aF1.0
aI30
aI21
aI11
aaaF0.4105491638183594
asS'RF'
p142
(lp143
(lp144
g6
(g10
S'\\\x8f\xc2\xf5(\\\xe7?'
p145
tp146
Rp147
ag6
(g10
S'ffffff\xe6?'
p148
tp149
Rp150
ag6
(g10
S'\x14\xaeG\xe1z\x14\xe6?'
p151
tp152
Rp153
ag6
(g10
S'ffffff\xe6?'
p154
tp155
Rp156
ag6
(g10
S'ffffff\xe6?'
p157
tp158
Rp159
ag6
(g10
S'q=\n\xd7\xa3p\xe5?'
p160
tp161
Rp162
ag6
(g10
S'q=\n\xd7\xa3p\xe5?'
p163
tp164
Rp165
ag6
(g10
S'q=\n\xd7\xa3p\xe5?'
p166
tp167
Rp168
ag6
(g10
S'q=\n\xd7\xa3p\xe5?'
p169
tp170
Rp171
ag6
(g10
S'q=\n\xd7\xa3p\xe5?'
p172
tp173
Rp174
ag6
(g10
S'q=\n\xd7\xa3p\xe5?'
p175
tp176
Rp177
ag6
(g10
S'ffffff\xe6?'
p178
tp179
Rp180
ag6
(g10
S'ffffff\xe6?'
p181
tp182
Rp183
ag6
(g10
S'q=\n\xd7\xa3p\xe5?'
p184
tp185
Rp186
ag6
(g10
S'q=\n\xd7\xa3p\xe5?'
p187
tp188
Rp189
aa(lp190
(lp191
g135
aF1.0
aI30
aI21
aI55
aa(lp192
g126
aF0.55
aI30
aI21
aI100
aa(lp193
g135
aF1.0
aI16
aI11
aI100
aa(lp194
g126
aF0.55
aI16
aI11
aI100
aa(lp195
g126
aF0.55
aI30
aI11
aI55
aa(lp196
g135
aF1.0
aI30
aI11
aI55
aa(lp197
g126
aF1.0
aI16
aI11
aI55
aa(lp198
g126
aF1.0
aI16
aI11
aI55
aa(lp199
g126
aF1.0
aI16
aI11
aI55
aa(lp200
g126
aF1.0
aI16
aI11
aI55
aa(lp201
g135
aF1.0
aI30
aI11
aI55
aa(lp202
g126
aF0.55
aI16
aI11
aI100
aa(lp203
g126
aF0.55
aI30
aI11
aI100
aa(lp204
g126
aF1.0
aI16
aI11
aI55
aa(lp205
g126
aF1.0
aI16
aI11
aI55
aaaF72.69564008712769
asS'SVM'
p206
(lp207
(lp208
g6
(g10
S'\x9a\x99\x99\x99\x99\x99\xc9?'
p209
tp210
Rp211
ag6
(g10
S'\x9a\x99\x99\x99\x99\x99\xc9?'
p212
tp213
Rp214
ag6
(g10
S'\x9a\x99\x99\x99\x99\x99\xc9?'
p215
tp216
Rp217
ag6
(g10
S'\x9a\x99\x99\x99\x99\x99\xc9?'
p218
tp219
Rp220
ag6
(g10
S'\x9a\x99\x99\x99\x99\x99\xc9?'
p221
tp222
Rp223
ag6
(g10
S'\x9a\x99\x99\x99\x99\x99\xc9?'
p224
tp225
Rp226
ag6
(g10
S'\x9a\x99\x99\x99\x99\x99\xc9?'
p227
tp228
Rp229
ag6
(g10
S'\x9a\x99\x99\x99\x99\x99\xc9?'
p230
tp231
Rp232
ag6
(g10
S'\x9a\x99\x99\x99\x99\x99\xc9?'
p233
tp234
Rp235
ag6
(g10
S'\x9a\x99\x99\x99\x99\x99\xc9?'
p236
tp237
Rp238
ag6
(g10
S'\x9a\x99\x99\x99\x99\x99\xc9?'
p239
tp240
Rp241
ag6
(g10
S'\x9a\x99\x99\x99\x99\x99\xc9?'
p242
tp243
Rp244
ag6
(g10
S'\x9a\x99\x99\x99\x99\x99\xc9?'
p245
tp246
Rp247
ag6
(g10
S'\x9a\x99\x99\x99\x99\x99\xc9?'
p248
tp249
Rp250
ag6
(g10
S'\x9a\x99\x99\x99\x99\x99\xc9?'
p251
tp252
Rp253
aa(lp254
(lp255
I100
aS'rbf'
p256
aF0.3666666666666667
aF0.55
aa(lp257
I100
ag256
aF0.3666666666666667
aF0.55
aa(lp258
I100
ag256
aF0.3666666666666667
aF0.55
aa(lp259
I100
ag256
aF0.3666666666666667
aF0.55
aa(lp260
I100
ag256
aF0.3666666666666667
aF0.55
aa(lp261
I100
ag256
aF0.3666666666666667
aF0.55
aa(lp262
I100
ag256
aF0.3666666666666667
aF0.55
aa(lp263
I100
ag256
aF0.3666666666666667
aF0.55
aa(lp264
I100
ag256
aF0.3666666666666667
aF0.55
aa(lp265
I100
ag256
aF0.3666666666666667
aF0.55
aa(lp266
I100
ag256
aF0.3666666666666667
aF0.55
aa(lp267
I100
ag256
aF0.3666666666666667
aF0.55
aa(lp268
I100
ag256
aF0.3666666666666667
aF0.55
aa(lp269
I100
ag256
aF0.3666666666666667
aF0.55
aa(lp270
I100
ag256
aF0.3666666666666667
aF0.55
aaaF1.1013069152832031
ass.