(dp0
S'precision'
p1
(dp2
S'RF'
p3
(lp4
(lp5
cnumpy.core.multiarray
scalar
p6
(cnumpy
dtype
p7
(S'f8'
p8
I0
I1
tp9
Rp10
(I3
S'<'
p11
NNNI-1
I-1
I0
tp12
bS'\x9a\x99\x99\x99\x99\x99\xc9?'
p13
tp14
Rp15
ag6
(g10
S'\x9a\x99\x99\x99\x99\x99\xc9?'
p16
tp17
Rp18
ag6
(g10
S'\x9a\x99\x99\x99\x99\x99\xc9?'
p19
tp20
Rp21
ag6
(g10
S'\x9a\x99\x99\x99\x99\x99\xc9?'
p22
tp23
Rp24
ag6
(g10
S'\x9a\x99\x99\x99\x99\x99\xc9?'
p25
tp26
Rp27
ag6
(g10
S'\x9a\x99\x99\x99\x99\x99\xc9?'
p28
tp29
Rp30
ag6
(g10
S'\x9a\x99\x99\x99\x99\x99\xc9?'
p31
tp32
Rp33
ag6
(g10
S'\x9a\x99\x99\x99\x99\x99\xc9?'
p34
tp35
Rp36
ag6
(g10
S'\x9a\x99\x99\x99\x99\x99\xc9?'
p37
tp38
Rp39
ag6
(g10
S'\x9a\x99\x99\x99\x99\x99\xc9?'
p40
tp41
Rp42
ag6
(g10
S'\x9a\x99\x99\x99\x99\x99\xc9?'
p43
tp44
Rp45
ag6
(g10
S'\x9a\x99\x99\x99\x99\x99\xc9?'
p46
tp47
Rp48
ag6
(g10
S'\x9a\x99\x99\x99\x99\x99\xc9?'
p49
tp50
Rp51
ag6
(g10
S'\x9a\x99\x99\x99\x99\x99\xc9?'
p52
tp53
Rp54
ag6
(g10
S'\x9a\x99\x99\x99\x99\x99\xc9?'
p55
tp56
Rp57
aa(lp58
(lp59
S'gini'
p60
aF0.7333333333333334
aI21
aI11
aI100
aa(lp61
S'entropy'
p62
aF0.3666666666666667
aI30
aI11
aI55
aa(lp63
g62
aF0.7333333333333334
aI10
aI11
aI100
aa(lp64
g62
aF0.7333333333333334
aI10
aI11
aI100
aa(lp65
g62
aF0.3666666666666667
aI30
aI11
aI100
aa(lp66
g62
aF0.3666666666666667
aI30
aI11
aI100
aa(lp67
g62
aF0.7333333333333334
aI10
aI11
aI100
aa(lp68
g60
aF1.0
aI30
aI11
aI100
aa(lp69
g60
aF1.0
aI30
aI11
aI55
aa(lp70
g62
aF0.7333333333333334
aI10
aI11
aI100
aa(lp71
g62
aF0.3666666666666667
aI21
aI11
aI100
aa(lp72
g62
aF0.7333333333333334
aI10
aI11
aI100
aa(lp73
g62
aF0.7333333333333334
aI10
aI11
aI55
aa(lp74
g62
aF0.3666666666666667
aI30
aI11
aI100
aa(lp75
g62
aF0.7333333333333334
aI10
aI11
aI100
aaaF127.61894106864929
ass.