(dp0
S'f1'
p1
(dp2
S'KNN'
p3
(lp4
(lp5
cnumpy.core.multiarray
scalar
p6
(cnumpy
dtype
p7
(S'f8'
p8
I0
I1
tp9
Rp10
(I3
S'<'
p11
NNNI-1
I-1
I0
tp12
bS'\n\xd7\xa3p=\n\xe7?'
p13
tp14
Rp15
ag6
(g10
S'\n\xd7\xa3p=\n\xe7?'
p16
tp17
Rp18
ag6
(g10
S'\n\xd7\xa3p=\n\xe7?'
p19
tp20
Rp21
ag6
(g10
S'ffffff\xe6?'
p22
tp23
Rp24
ag6
(g10
S'ffffff\xe6?'
p25
tp26
Rp27
ag6
(g10
S'ffffff\xe6?'
p28
tp29
Rp30
ag6
(g10
S'ffffff\xe6?'
p31
tp32
Rp33
ag6
(g10
S'ffffff\xe6?'
p34
tp35
Rp36
ag6
(g10
S'\n\xd7\xa3p=\n\xe7?'
p37
tp38
Rp39
ag6
(g10
S'\n\xd7\xa3p=\n\xe7?'
p40
tp41
Rp42
ag6
(g10
S'\n\xd7\xa3p=\n\xe7?'
p43
tp44
Rp45
ag6
(g10
S'\x14\xaeG\xe1z\x14\xe6?'
p46
tp47
Rp48
ag6
(g10
S'\xc3\xf5(\\\x8f\xc2\xe5?'
p49
tp50
Rp51
ag6
(g10
S'\xb8\x1e\x85\xebQ\xb8\xe6?'
p52
tp53
Rp54
ag6
(g10
S'\xc3\xf5(\\\x8f\xc2\xe5?'
p55
tp56
Rp57
ag6
(g10
S'\x14\xaeG\xe1z\x14\xe6?'
p58
tp59
Rp60
ag6
(g10
S'ffffff\xe6?'
p61
tp62
Rp63
ag6
(g10
S'ffffff\xe6?'
p64
tp65
Rp66
ag6
(g10
S'\n\xd7\xa3p=\n\xe7?'
p67
tp68
Rp69
ag6
(g10
S'ffffff\xe6?'
p70
tp71
Rp72
ag6
(g10
S'\x14\xaeG\xe1z\x14\xe6?'
p73
tp74
Rp75
ag6
(g10
S'ffffff\xe6?'
p76
tp77
Rp78
ag6
(g10
S'ffffff\xe6?'
p79
tp80
Rp81
ag6
(g10
S'ffffff\xe6?'
p82
tp83
Rp84
ag6
(g10
S'\x14\xaeG\xe1z\x14\xe6?'
p85
tp86
Rp87
ag6
(g10
S'ffffff\xe6?'
p88
tp89
Rp90
ag6
(g10
S'ffffff\xe6?'
p91
tp92
Rp93
ag6
(g10
S'\n\xd7\xa3p=\n\xe7?'
p94
tp95
Rp96
ag6
(g10
S'\n\xd7\xa3p=\n\xe7?'
p97
tp98
Rp99
ag6
(g10
S'\n\xd7\xa3p=\n\xe7?'
p100
tp101
Rp102
ag6
(g10
S'ffffff\xe6?'
p103
tp104
Rp105
ag6
(g10
S'ffffff\xe6?'
p106
tp107
Rp108
ag6
(g10
S'\x14\xaeG\xe1z\x14\xe6?'
p109
tp110
Rp111
ag6
(g10
S'\n\xd7\xa3p=\n\xe7?'
p112
tp113
Rp114
ag6
(g10
S'\x14\xaeG\xe1z\x14\xe6?'
p115
tp116
Rp117
ag6
(g10
S'\x14\xaeG\xe1z\x14\xe6?'
p118
tp119
Rp120
ag6
(g10
S'\x14\xaeG\xe1z\x14\xe6?'
p121
tp122
Rp123
ag6
(g10
S'\x14\xaeG\xe1z\x14\xe6?'
p124
tp125
Rp126
ag6
(g10
S'\n\xd7\xa3p=\n\xe7?'
p127
tp128
Rp129
ag6
(g10
S'ffffff\xe6?'
p130
tp131
Rp132
ag6
(g10
S'ffffff\xe6?'
p133
tp134
Rp135
ag6
(g10
S'ffffff\xe6?'
p136
tp137
Rp138
ag6
(g10
S'ffffff\xe6?'
p139
tp140
Rp141
ag6
(g10
S'\x14\xaeG\xe1z\x14\xe6?'
p142
tp143
Rp144
ag6
(g10
S'\n\xd7\xa3p=\n\xe7?'
p145
tp146
Rp147
ag6
(g10
S'ffffff\xe6?'
p148
tp149
Rp150
ag6
(g10
S'ffffff\xe6?'
p151
tp152
Rp153
ag6
(g10
S'\n\xd7\xa3p=\n\xe7?'
p154
tp155
Rp156
ag6
(g10
S'\n\xd7\xa3p=\n\xe7?'
p157
tp158
Rp159
ag6
(g10
S'\x14\xaeG\xe1z\x14\xe6?'
p160
tp161
Rp162
ag6
(g10
S'\x14\xaeG\xe1z\x14\xe6?'
p163
tp164
Rp165
ag6
(g10
S'\xb8\x1e\x85\xebQ\xb8\xe6?'
p166
tp167
Rp168
ag6
(g10
S'\n\xd7\xa3p=\n\xe7?'
p169
tp170
Rp171
ag6
(g10
S'\n\xd7\xa3p=\n\xe7?'
p172
tp173
Rp174
ag6
(g10
S'\n\xd7\xa3p=\n\xe7?'
p175
tp176
Rp177
ag6
(g10
S'\n\xd7\xa3p=\n\xe7?'
p178
tp179
Rp180
ag6
(g10
S'\xc3\xf5(\\\x8f\xc2\xe5?'
p181
tp182
Rp183
ag6
(g10
S'\n\xd7\xa3p=\n\xe7?'
p184
tp185
Rp186
ag6
(g10
S'\n\xd7\xa3p=\n\xe7?'
p187
tp188
Rp189
ag6
(g10
S'ffffff\xe6?'
p190
tp191
Rp192
aa(lp193
(lp194
I7
aS'uniform'
p195
aa(lp196
I7
ag195
aa(lp197
I7
ag195
aa(lp198
I5
ag195
aa(lp199
I10
ag195
aa(lp200
I10
aS'distance'
p201
aa(lp202
I5
ag195
aa(lp203
I8
ag201
aa(lp204
I7
ag195
aa(lp205
I7
ag195
aa(lp206
I7
ag195
aa(lp207
I9
ag201
aa(lp208
I3
ag201
aa(lp209
I6
ag201
aa(lp210
I3
ag201
aa(lp211
I7
ag201
aa(lp212
I10
ag201
aa(lp213
I10
ag195
aa(lp214
I9
ag195
aa(lp215
I8
ag201
aa(lp216
I5
ag201
aa(lp217
I5
ag195
aa(lp218
I8
ag201
aa(lp219
I10
ag195
aa(lp220
I3
ag195
aa(lp221
I10
ag201
aa(lp222
I5
ag195
aa(lp223
I9
ag195
aa(lp224
I7
ag195
aa(lp225
I9
ag195
aa(lp226
I5
ag195
aa(lp227
I10
ag201
aa(lp228
I4
ag201
aa(lp229
I7
ag195
aa(lp230
I7
ag201
aa(lp231
I3
ag195
aa(lp232
I9
ag201
aa(lp233
I7
ag201
aa(lp234
I7
ag195
aa(lp235
I8
ag201
aa(lp236
I5
ag195
aa(lp237
I10
ag201
aa(lp238
I10
ag201
aa(lp239
I5
ag201
aa(lp240
I9
ag195
aa(lp241
I8
ag201
aa(lp242
I8
ag201
aa(lp243
I7
ag195
aa(lp244
I7
ag195
aa(lp245
I9
ag201
aa(lp246
I9
ag201
aa(lp247
I6
ag201
aa(lp248
I7
ag195
aa(lp249
I9
ag195
aa(lp250
I7
ag195
aa(lp251
I9
ag195
aa(lp252
I3
ag201
aa(lp253
I7
ag195
aa(lp254
I9
ag195
aa(lp255
I8
ag195
aaaF2.2688369750976562
asS'DTC'
p256
(lp257
(lp258
g6
(g10
S'\\\x8f\xc2\xf5(\\\xe7?'
p259
tp260
Rp261
ag6
(g10
S'q=\n\xd7\xa3p\xe5?'
p262
tp263
Rp264
ag6
(g10
S'\xaeG\xe1z\x14\xae\xe7?'
p265
tp266
Rp267
ag6
(g10
S'H\xe1z\x14\xaeG\xe9?'
p268
tp269
Rp270
ag6
(g10
S'\xa4p=\n\xd7\xa3\xe8?'
p271
tp272
Rp273
ag6
(g10
S'ffffff\xe6?'
p274
tp275
Rp276
ag6
(g10
S'\\\x8f\xc2\xf5(\\\xe7?'
p277
tp278
Rp279
ag6
(g10
S'\xaeG\xe1z\x14\xae\xe7?'
p280
tp281
Rp282
ag6
(g10
S'\xb8\x1e\x85\xebQ\xb8\xe6?'
p283
tp284
Rp285
ag6
(g10
S'ffffff\xe6?'
p286
tp287
Rp288
ag6
(g10
S'\xc3\xf5(\\\x8f\xc2\xe5?'
p289
tp290
Rp291
ag6
(g10
S'\x14\xaeG\xe1z\x14\xe6?'
p292
tp293
Rp294
ag6
(g10
S'H\xe1z\x14\xaeG\xe9?'
p295
tp296
Rp297
ag6
(g10
S'\x00\x00\x00\x00\x00\x00\xe8?'
p298
tp299
Rp300
ag6
(g10
S'\xaeG\xe1z\x14\xae\xe7?'
p301
tp302
Rp303
ag6
(g10
S'ffffff\xe6?'
p304
tp305
Rp306
ag6
(g10
S'\xecQ\xb8\x1e\x85\xeb\xe1?'
p307
tp308
Rp309
ag6
(g10
S'ffffff\xe6?'
p310
tp311
Rp312
ag6
(g10
S'\n\xd7\xa3p=\n\xe7?'
p313
tp314
Rp315
ag6
(g10
S'R\xb8\x1e\x85\xebQ\xe8?'
p316
tp317
Rp318
ag6
(g10
S'\xb8\x1e\x85\xebQ\xb8\xe6?'
p319
tp320
Rp321
ag6
(g10
S'\x00\x00\x00\x00\x00\x00\xe8?'
p322
tp323
Rp324
ag6
(g10
S'\x14\xaeG\xe1z\x14\xe6?'
p325
tp326
Rp327
ag6
(g10
S'\xa4p=\n\xd7\xa3\xe8?'
p328
tp329
Rp330
ag6
(g10
S'\xa4p=\n\xd7\xa3\xe8?'
p331
tp332
Rp333
ag6
(g10
S'\xb8\x1e\x85\xebQ\xb8\xe6?'
p334
tp335
Rp336
ag6
(g10
S'\x9a\x99\x99\x99\x99\x99\xe9?'
p337
tp338
Rp339
ag6
(g10
S'q=\n\xd7\xa3p\xe5?'
p340
tp341
Rp342
ag6
(g10
S'R\xb8\x1e\x85\xebQ\xe8?'
p343
tp344
Rp345
ag6
(g10
S'\n\xd7\xa3p=\n\xe7?'
p346
tp347
Rp348
ag6
(g10
S'\n\xd7\xa3p=\n\xe7?'
p349
tp350
Rp351
ag6
(g10
S'q=\n\xd7\xa3p\xe5?'
p352
tp353
Rp354
ag6
(g10
S'\xa4p=\n\xd7\xa3\xe8?'
p355
tp356
Rp357
ag6
(g10
S'\xb8\x1e\x85\xebQ\xb8\xe6?'
p358
tp359
Rp360
ag6
(g10
S'\\\x8f\xc2\xf5(\\\xe7?'
p361
tp362
Rp363
ag6
(g10
S'\x1f\x85\xebQ\xb8\x1e\xe5?'
p364
tp365
Rp366
ag6
(g10
S'\xb8\x1e\x85\xebQ\xb8\xe6?'
p367
tp368
Rp369
ag6
(g10
S'\x14\xaeG\xe1z\x14\xe6?'
p370
tp371
Rp372
ag6
(g10
S'\n\xd7\xa3p=\n\xe7?'
p373
tp374
Rp375
ag6
(g10
S'\xa4p=\n\xd7\xa3\xe8?'
p376
tp377
Rp378
ag6
(g10
S'\n\xd7\xa3p=\n\xe7?'
p379
tp380
Rp381
ag6
(g10
S'\xc3\xf5(\\\x8f\xc2\xe5?'
p382
tp383
Rp384
ag6
(g10
S'q=\n\xd7\xa3p\xe5?'
p385
tp386
Rp387
ag6
(g10
S'\x00\x00\x00\x00\x00\x00\xe8?'
p388
tp389
Rp390
ag6
(g10
S'\xaeG\xe1z\x14\xae\xe7?'
p391
tp392
Rp393
ag6
(g10
S'\n\xd7\xa3p=\n\xe7?'
p394
tp395
Rp396
ag6
(g10
S'ffffff\xe6?'
p397
tp398
Rp399
ag6
(g10
S'\x00\x00\x00\x00\x00\x00\xe8?'
p400
tp401
Rp402
ag6
(g10
S'\x14\xaeG\xe1z\x14\xe6?'
p403
tp404
Rp405
ag6
(g10
S'\xecQ\xb8\x1e\x85\xeb\xe9?'
p406
tp407
Rp408
ag6
(g10
S'ffffff\xe6?'
p409
tp410
Rp411
ag6
(g10
S'\x9a\x99\x99\x99\x99\x99\xe9?'
p412
tp413
Rp414
ag6
(g10
S'ffffff\xe6?'
p415
tp416
Rp417
ag6
(g10
S'ffffff\xe6?'
p418
tp419
Rp420
ag6
(g10
S'ffffff\xe6?'
p421
tp422
Rp423
ag6
(g10
S'\n\xd7\xa3p=\n\xe7?'
p424
tp425
Rp426
ag6
(g10
S'ffffff\xe6?'
p427
tp428
Rp429
ag6
(g10
S'\xb8\x1e\x85\xebQ\xb8\xe6?'
p430
tp431
Rp432
ag6
(g10
S'\xa4p=\n\xd7\xa3\xe8?'
p433
tp434
Rp435
ag6
(g10
S'\\\x8f\xc2\xf5(\\\xe7?'
p436
tp437
Rp438
aa(lp439
(lp440
S'gini'
p441
aF0.21834938184183222
aI22
aI14
aI15
aa(lp442
S'entropy'
p443
aF0.27767519438908095
aI19
aI2
aI6
aa(lp444
g441
aF0.11246191123712626
aI15
aI5
aI4
aa(lp445
g443
aF0.9056362801197432
aI9
aI13
aI18
aa(lp446
g443
aF0.19356039404436315
aI7
aI17
aI4
aa(lp447
g443
aF0.711382927210799
aI10
aI19
aI17
aa(lp448
g441
aF0.24738559598708762
aI25
aI15
aI15
aa(lp449
g443
aF0.7607222545041243
aI11
aI8
aI19
aa(lp450
g443
aF0.2829908627695781
aI13
aI12
aI19
aa(lp451
g441
aF0.7896684671486209
aI2
aI12
aI21
aa(lp452
g441
aF0.28788072658906716
aI25
aI3
aI6
aa(lp453
g443
aF0.9362078467503977
aI13
aI20
aI19
aa(lp454
g443
aF0.8123958916323424
aI3
aI13
aI4
aa(lp455
g441
aF0.9965662511473147
aI15
aI2
aI17
aa(lp456
g441
aF0.69700079478625
aI16
aI1
aI16
aa(lp457
g443
aF0.723844032035511
aI2
aI16
aI18
aa(lp458
g443
aF0.32276691252575673
aI16
aI5
aI11
aa(lp459
g443
aF0.9901937706309348
aI3
aI19
aI12
aa(lp460
g441
aF0.49728053145575346
aI30
aI7
aI19
aa(lp461
g443
aF0.18885264153153064
aI13
aI2
aI15
aa(lp462
g443
aF0.31653755191996286
aI19
aI13
aI20
aa(lp463
g443
aF0.878688573904602
aI8
aI2
aI9
aa(lp464
g443
aF0.29437559700326393
aI21
aI21
aI12
aa(lp465
g441
aF0.15746147391078708
aI11
aI19
aI15
aa(lp466
g443
aF0.15991019141350576
aI18
aI19
aI9
aa(lp467
g443
aF0.29899336156401474
aI25
aI10
aI6
aa(lp468
g443
aF0.24574016765978351
aI29
aI16
aI16
aa(lp469
g441
aF0.6897411575806286
aI4
aI7
aI19
aa(lp470
g441
aF0.23691818882362375
aI27
aI20
aI5
aa(lp471
g443
aF0.6110976748191587
aI24
aI14
aI2
aa(lp472
g441
aF0.7575041361668549
aI19
aI4
aI21
aa(lp473
g441
aF0.607781749840622
aI23
aI5
aI6
aa(lp474
g443
aF0.17203378736358801
aI25
aI18
aI13
aa(lp475
g441
aF0.4180868928331768
aI22
aI5
aI11
aa(lp476
g441
aF0.15902959176094328
aI13
aI7
aI14
aa(lp477
g441
aF0.3003415630756119
aI12
aI21
aI20
aa(lp478
g443
aF0.9823554678409687
aI28
aI9
aI6
aa(lp479
g443
aF0.9716039998311485
aI6
aI20
aI7
aa(lp480
g443
aF0.4162517720948933
aI22
aI9
aI6
aa(lp481
g441
aF0.18397824032195642
aI7
aI18
aI8
aa(lp482
g441
aF0.7587036374033906
aI14
aI5
aI15
aa(lp483
g441
aF0.2921595116496765
aI25
aI8
aI14
aa(lp484
g443
aF0.17571736747313846
aI3
aI12
aI17
aa(lp485
g443
aF0.1700755546949664
aI28
aI4
aI11
aa(lp486
g443
aF0.528784604660842
aI6
aI7
aI6
aa(lp487
g441
aF0.6458037524318038
aI4
aI8
aI12
aa(lp488
g443
aF0.4619644290226037
aI12
aI15
aI12
aa(lp489
g441
aF0.1773454114510854
aI9
aI5
aI17
aa(lp490
g441
aF0.6483030692089132
aI21
aI21
aI20
aa(lp491
g443
aF0.8702562391653599
aI27
aI5
aI6
aa(lp492
g443
aF0.99324948571578
aI9
aI19
aI9
aa(lp493
g443
aF0.20470919716801295
aI30
aI16
aI14
aa(lp494
g443
aF0.7359135462287362
aI29
aI11
aI19
aa(lp495
g443
aF0.416689404942747
aI25
aI11
aI11
aa(lp496
g441
aF0.921647938103798
aI9
aI14
aI6
aa(lp497
g443
aF0.8862489456711243
aI7
aI2
aI5
aa(lp498
g441
aF0.42778613991335035
aI22
aI12
aI17
aa(lp499
g443
aF0.4935094323852248
aI25
aI9
aI11
aa(lp500
g443
aF0.1764742803137624
aI28
aI20
aI12
aa(lp501
g443
aF0.4436814766090893
aI12
aI14
aI5
aaaF1.5568759441375732
asS'RF'
p502
(lp503
(lp504
g6
(g10
S'\xf6(\\\x8f\xc2\xf5\xe8?'
p505
tp506
Rp507
ag6
(g10
S'H\xe1z\x14\xaeG\xe9?'
p508
tp509
Rp510
ag6
(g10
S'H\xe1z\x14\xaeG\xe9?'
p511
tp512
Rp513
ag6
(g10
S'H\xe1z\x14\xaeG\xe9?'
p514
tp515
Rp516
ag6
(g10
S'H\xe1z\x14\xaeG\xe9?'
p517
tp518
Rp519
ag6
(g10
S'H\xe1z\x14\xaeG\xe9?'
p520
tp521
Rp522
ag6
(g10
S'R\xb8\x1e\x85\xebQ\xe8?'
p523
tp524
Rp525
ag6
(g10
S'H\xe1z\x14\xaeG\xe9?'
p526
tp527
Rp528
ag6
(g10
S'\xf6(\\\x8f\xc2\xf5\xe8?'
p529
tp530
Rp531
ag6
(g10
S'R\xb8\x1e\x85\xebQ\xe8?'
p532
tp533
Rp534
ag6
(g10
S'\xf6(\\\x8f\xc2\xf5\xe8?'
p535
tp536
Rp537
ag6
(g10
S'\xf6(\\\x8f\xc2\xf5\xe8?'
p538
tp539
Rp540
ag6
(g10
S'\\\x8f\xc2\xf5(\\\xe7?'
p541
tp542
Rp543
ag6
(g10
S'H\xe1z\x14\xaeG\xe9?'
p544
tp545
Rp546
ag6
(g10
S'\xa4p=\n\xd7\xa3\xe8?'
p547
tp548
Rp549
ag6
(g10
S'\xf6(\\\x8f\xc2\xf5\xe8?'
p550
tp551
Rp552
ag6
(g10
S'\x00\x00\x00\x00\x00\x00\xe8?'
p553
tp554
Rp555
ag6
(g10
S'\\\x8f\xc2\xf5(\\\xe7?'
p556
tp557
Rp558
ag6
(g10
S'\xf6(\\\x8f\xc2\xf5\xe8?'
p559
tp560
Rp561
ag6
(g10
S'H\xe1z\x14\xaeG\xe9?'
p562
tp563
Rp564
ag6
(g10
S'H\xe1z\x14\xaeG\xe9?'
p565
tp566
Rp567
ag6
(g10
S'H\xe1z\x14\xaeG\xe9?'
p568
tp569
Rp570
ag6
(g10
S'R\xb8\x1e\x85\xebQ\xe8?'
p571
tp572
Rp573
ag6
(g10
S'\x00\x00\x00\x00\x00\x00\xe8?'
p574
tp575
Rp576
ag6
(g10
S'\xa4p=\n\xd7\xa3\xe8?'
p577
tp578
Rp579
ag6
(g10
S'H\xe1z\x14\xaeG\xe9?'
p580
tp581
Rp582
ag6
(g10
S'\xf6(\\\x8f\xc2\xf5\xe8?'
p583
tp584
Rp585
ag6
(g10
S'\xf6(\\\x8f\xc2\xf5\xe8?'
p586
tp587
Rp588
ag6
(g10
S'\xf6(\\\x8f\xc2\xf5\xe8?'
p589
tp590
Rp591
ag6
(g10
S'H\xe1z\x14\xaeG\xe9?'
p592
tp593
Rp594
ag6
(g10
S'\xf6(\\\x8f\xc2\xf5\xe8?'
p595
tp596
Rp597
ag6
(g10
S'\\\x8f\xc2\xf5(\\\xe7?'
p598
tp599
Rp600
ag6
(g10
S'R\xb8\x1e\x85\xebQ\xe8?'
p601
tp602
Rp603
ag6
(g10
S'H\xe1z\x14\xaeG\xe9?'
p604
tp605
Rp606
ag6
(g10
S'H\xe1z\x14\xaeG\xe9?'
p607
tp608
Rp609
ag6
(g10
S'=\n\xd7\xa3p=\xea?'
p610
tp611
Rp612
ag6
(g10
S'\xa4p=\n\xd7\xa3\xe8?'
p613
tp614
Rp615
ag6
(g10
S'\xa4p=\n\xd7\xa3\xe8?'
p616
tp617
Rp618
ag6
(g10
S'\x9a\x99\x99\x99\x99\x99\xe9?'
p619
tp620
Rp621
ag6
(g10
S'\xa4p=\n\xd7\xa3\xe8?'
p622
tp623
Rp624
ag6
(g10
S'\x00\x00\x00\x00\x00\x00\xe8?'
p625
tp626
Rp627
ag6
(g10
S'H\xe1z\x14\xaeG\xe9?'
p628
tp629
Rp630
ag6
(g10
S'\xf6(\\\x8f\xc2\xf5\xe8?'
p631
tp632
Rp633
ag6
(g10
S'\xf6(\\\x8f\xc2\xf5\xe8?'
p634
tp635
Rp636
ag6
(g10
S'H\xe1z\x14\xaeG\xe9?'
p637
tp638
Rp639
ag6
(g10
S'R\xb8\x1e\x85\xebQ\xe8?'
p640
tp641
Rp642
ag6
(g10
S'\xf6(\\\x8f\xc2\xf5\xe8?'
p643
tp644
Rp645
ag6
(g10
S'\xf6(\\\x8f\xc2\xf5\xe8?'
p646
tp647
Rp648
ag6
(g10
S'\xf6(\\\x8f\xc2\xf5\xe8?'
p649
tp650
Rp651
ag6
(g10
S'\xa4p=\n\xd7\xa3\xe8?'
p652
tp653
Rp654
ag6
(g10
S'H\xe1z\x14\xaeG\xe9?'
p655
tp656
Rp657
ag6
(g10
S'H\xe1z\x14\xaeG\xe9?'
p658
tp659
Rp660
ag6
(g10
S'H\xe1z\x14\xaeG\xe9?'
p661
tp662
Rp663
ag6
(g10
S'H\xe1z\x14\xaeG\xe9?'
p664
tp665
Rp666
ag6
(g10
S'H\xe1z\x14\xaeG\xe9?'
p667
tp668
Rp669
ag6
(g10
S'H\xe1z\x14\xaeG\xe9?'
p670
tp671
Rp672
ag6
(g10
S'H\xe1z\x14\xaeG\xe9?'
p673
tp674
Rp675
ag6
(g10
S'\xa4p=\n\xd7\xa3\xe8?'
p676
tp677
Rp678
ag6
(g10
S'\xecQ\xb8\x1e\x85\xeb\xe9?'
p679
tp680
Rp681
ag6
(g10
S'H\xe1z\x14\xaeG\xe9?'
p682
tp683
Rp684
aa(lp685
(lp686
g441
aF0.7025587117908639
aI7
aI2
aI90
aa(lp687
g441
aF0.8712639005907449
aI15
aI3
aI90
aa(lp688
g441
aF0.8208216902256312
aI5
aI4
aI100
aa(lp689
g441
aF0.20997698400197418
aI6
aI4
aI99
aa(lp690
g443
aF0.4223158194902462
aI8
aI13
aI85
aa(lp691
g443
aF0.8752134829844532
aI12
aI2
aI33
aa(lp692
g443
aF0.9173186038042928
aI19
aI7
aI16
aa(lp693
g443
aF0.1972760538969493
aI18
aI1
aI24
aa(lp694
g441
aF0.8536376699083087
aI8
aI3
aI49
aa(lp695
g443
aF0.6469159297066424
aI17
aI12
aI30
aa(lp696
g441
aF0.33563713035460585
aI16
aI3
aI61
aa(lp697
g441
aF0.489156277983291
aI8
aI1
aI67
aa(lp698
g441
aF0.5758552221572751
aI11
aI9
aI63
aa(lp699
g443
aF0.35704357366345585
aI8
aI5
aI71
aa(lp700
g441
aF0.7792988734682998
aI18
aI3
aI52
aa(lp701
g443
aF0.9505887795138669
aI4
aI4
aI27
aa(lp702
g443
aF0.4640626118015927
aI7
aI4
aI100
aa(lp703
g443
aF0.6495568095117843
aI8
aI8
aI54
aa(lp704
g443
aF0.48070181997478334
aI16
aI3
aI39
aa(lp705
g441
aF0.9506251668290863
aI16
aI4
aI11
aa(lp706
g441
aF0.43823030652759465
aI12
aI3
aI34
aa(lp707
g443
aF0.25650128710954523
aI22
aI2
aI92
aa(lp708
g443
aF0.300217641598708
aI7
aI10
aI40
aa(lp709
g443
aF0.7045969798911453
aI29
aI8
aI96
aa(lp710
g443
aF0.5476245054223179
aI17
aI11
aI80
aa(lp711
g441
aF0.3656304722162943
aI30
aI13
aI91
aa(lp712
g443
aF0.4328574574050926
aI14
aI5
aI24
aa(lp713
g443
aF0.51360190089206
aI19
aI2
aI78
aa(lp714
g443
aF0.770513498560325
aI12
aI5
aI85
aa(lp715
g441
aF0.8168561296590822
aI25
aI15
aI96
aa(lp716
g443
aF0.5017139884690229
aI24
aI7
aI37
aa(lp717
g441
aF0.556210806090776
aI11
aI9
aI60
aa(lp718
g443
aF0.9727207955256313
aI25
aI5
aI35
aa(lp719
g443
aF0.7813083647581907
aI25
aI10
aI24
aa(lp720
g443
aF0.8055000515175451
aI25
aI3
aI87
aa(lp721
g443
aF0.16883066910728967
aI26
aI21
aI41
aa(lp722
g443
aF0.8014362989836589
aI3
aI6
aI52
aa(lp723
g443
aF0.44032808866330886
aI8
aI2
aI31
aa(lp724
g441
aF0.993116109070709
aI4
aI15
aI93
aa(lp725
g443
aF0.534521499630491
aI2
aI4
aI31
aa(lp726
g443
aF0.8364376761181582
aI25
aI11
aI100
aa(lp727
g443
aF0.7412591281678454
aI28
aI10
aI13
aa(lp728
g441
aF0.4188216965669167
aI8
aI7
aI69
aa(lp729
g443
aF0.6573893521708482
aI22
aI14
aI78
aa(lp730
g441
aF0.11315504902574562
aI21
aI4
aI25
aa(lp731
g443
aF0.7377275592362591
aI17
aI10
aI83
aa(lp732
g443
aF0.6250956846624441
aI25
aI11
aI92
aa(lp733
g443
aF0.8056107979069992
aI26
aI8
aI16
aa(lp734
g441
aF0.26092406417892217
aI17
aI6
aI74
aa(lp735
g441
aF0.40164176196311496
aI27
aI11
aI53
aa(lp736
g441
aF0.9841008657868825
aI23
aI5
aI89
aa(lp737
g441
aF0.7148325645267928
aI11
aI2
aI33
aa(lp738
g443
aF0.23565239356103238
aI23
aI4
aI40
aa(lp739
g443
aF0.8955992269385704
aI30
aI21
aI48
aa(lp740
g441
aF0.2757707716596737
aI18
aI5
aI81
aa(lp741
g441
aF0.9280145179866013
aI4
aI4
aI38
aa(lp742
g443
aF0.3105370679653534
aI12
aI6
aI27
aa(lp743
g441
aF0.6710011844773578
aI12
aI7
aI30
aa(lp744
g443
aF0.12321013380823008
aI26
aI19
aI28
aa(lp745
g443
aF0.3344680075683689
aI11
aI4
aI29
aaaF615.6717050075531
asS'SVM'
p746
(lp747
(lp748
g6
(g10
S'H\xe1z\x14\xaeG\xe9?'
p749
tp750
Rp751
ag6
(g10
S'H\xe1z\x14\xaeG\xe9?'
p752
tp753
Rp754
ag6
(g10
S'\xf6(\\\x8f\xc2\xf5\xe8?'
p755
tp756
Rp757
ag6
(g10
S'H\xe1z\x14\xaeG\xe9?'
p758
tp759
Rp760
ag6
(g10
S'H\xe1z\x14\xaeG\xe9?'
p761
tp762
Rp763
ag6
(g10
S'\xf6(\\\x8f\xc2\xf5\xe8?'
p764
tp765
Rp766
ag6
(g10
S'H\xe1z\x14\xaeG\xe9?'
p767
tp768
Rp769
ag6
(g10
S'H\xe1z\x14\xaeG\xe9?'
p770
tp771
Rp772
ag6
(g10
S'H\xe1z\x14\xaeG\xe9?'
p773
tp774
Rp775
ag6
(g10
S'H\xe1z\x14\xaeG\xe9?'
p776
tp777
Rp778
ag6
(g10
S'H\xe1z\x14\xaeG\xe9?'
p779
tp780
Rp781
ag6
(g10
S'H\xe1z\x14\xaeG\xe9?'
p782
tp783
Rp784
ag6
(g10
S'H\xe1z\x14\xaeG\xe9?'
p785
tp786
Rp787
ag6
(g10
S'H\xe1z\x14\xaeG\xe9?'
p788
tp789
Rp790
ag6
(g10
S'\xf6(\\\x8f\xc2\xf5\xe8?'
p791
tp792
Rp793
ag6
(g10
S'\x9a\x99\x99\x99\x99\x99\xe9?'
p794
tp795
Rp796
ag6
(g10
S'\xf6(\\\x8f\xc2\xf5\xe8?'
p797
tp798
Rp799
ag6
(g10
S'H\xe1z\x14\xaeG\xe9?'
p800
tp801
Rp802
ag6
(g10
S'H\xe1z\x14\xaeG\xe9?'
p803
tp804
Rp805
ag6
(g10
S'H\xe1z\x14\xaeG\xe9?'
p806
tp807
Rp808
ag6
(g10
S'\xf6(\\\x8f\xc2\xf5\xe8?'
p809
tp810
Rp811
ag6
(g10
S'H\xe1z\x14\xaeG\xe9?'
p812
tp813
Rp814
ag6
(g10
S'H\xe1z\x14\xaeG\xe9?'
p815
tp816
Rp817
ag6
(g10
S'H\xe1z\x14\xaeG\xe9?'
p818
tp819
Rp820
ag6
(g10
S'H\xe1z\x14\xaeG\xe9?'
p821
tp822
Rp823
ag6
(g10
S'H\xe1z\x14\xaeG\xe9?'
p824
tp825
Rp826
ag6
(g10
S'\xf6(\\\x8f\xc2\xf5\xe8?'
p827
tp828
Rp829
ag6
(g10
S'H\xe1z\x14\xaeG\xe9?'
p830
tp831
Rp832
ag6
(g10
S'H\xe1z\x14\xaeG\xe9?'
p833
tp834
Rp835
ag6
(g10
S'\x9a\x99\x99\x99\x99\x99\xe9?'
p836
tp837
Rp838
ag6
(g10
S'H\xe1z\x14\xaeG\xe9?'
p839
tp840
Rp841
ag6
(g10
S'\xf6(\\\x8f\xc2\xf5\xe8?'
p842
tp843
Rp844
ag6
(g10
S'H\xe1z\x14\xaeG\xe9?'
p845
tp846
Rp847
ag6
(g10
S'H\xe1z\x14\xaeG\xe9?'
p848
tp849
Rp850
ag6
(g10
S'H\xe1z\x14\xaeG\xe9?'
p851
tp852
Rp853
ag6
(g10
S'\x9a\x99\x99\x99\x99\x99\xe9?'
p854
tp855
Rp856
ag6
(g10
S'H\xe1z\x14\xaeG\xe9?'
p857
tp858
Rp859
ag6
(g10
S'\xf6(\\\x8f\xc2\xf5\xe8?'
p860
tp861
Rp862
ag6
(g10
S'H\xe1z\x14\xaeG\xe9?'
p863
tp864
Rp865
ag6
(g10
S'\xf6(\\\x8f\xc2\xf5\xe8?'
p866
tp867
Rp868
ag6
(g10
S'\x9a\x99\x99\x99\x99\x99\xe9?'
p869
tp870
Rp871
ag6
(g10
S'\xf6(\\\x8f\xc2\xf5\xe8?'
p872
tp873
Rp874
ag6
(g10
S'H\xe1z\x14\xaeG\xe9?'
p875
tp876
Rp877
ag6
(g10
S'H\xe1z\x14\xaeG\xe9?'
p878
tp879
Rp880
ag6
(g10
S'H\xe1z\x14\xaeG\xe9?'
p881
tp882
Rp883
ag6
(g10
S'H\xe1z\x14\xaeG\xe9?'
p884
tp885
Rp886
ag6
(g10
S'\xf6(\\\x8f\xc2\xf5\xe8?'
p887
tp888
Rp889
ag6
(g10
S'\xf6(\\\x8f\xc2\xf5\xe8?'
p890
tp891
Rp892
ag6
(g10
S'H\xe1z\x14\xaeG\xe9?'
p893
tp894
Rp895
ag6
(g10
S'\xf6(\\\x8f\xc2\xf5\xe8?'
p896
tp897
Rp898
ag6
(g10
S'H\xe1z\x14\xaeG\xe9?'
p899
tp900
Rp901
ag6
(g10
S'\xf6(\\\x8f\xc2\xf5\xe8?'
p902
tp903
Rp904
ag6
(g10
S'H\xe1z\x14\xaeG\xe9?'
p905
tp906
Rp907
ag6
(g10
S'H\xe1z\x14\xaeG\xe9?'
p908
tp909
Rp910
ag6
(g10
S'\xf6(\\\x8f\xc2\xf5\xe8?'
p911
tp912
Rp913
ag6
(g10
S'\x9a\x99\x99\x99\x99\x99\xe9?'
p914
tp915
Rp916
ag6
(g10
S'H\xe1z\x14\xaeG\xe9?'
p917
tp918
Rp919
ag6
(g10
S'\x9a\x99\x99\x99\x99\x99\xe9?'
p920
tp921
Rp922
ag6
(g10
S'H\xe1z\x14\xaeG\xe9?'
p923
tp924
Rp925
ag6
(g10
S'H\xe1z\x14\xaeG\xe9?'
p926
tp927
Rp928
aa(lp929
(lp930
I91
aS'rbf'
p931
aF0.28371841330252956
aF0.6282911482075674
aa(lp932
I65
ag931
aF0.6199680779687483
aF0.3766616455823115
aa(lp933
I9
aS'sigmoid'
p934
aF0.5086166156185479
aF0.5383311424476621
aa(lp935
I78
ag931
aF0.7893832293689279
aF0.23030590403004458
aa(lp936
I36
ag931
aF0.34402404597553693
aF0.10014511577163993
aa(lp937
I21
ag934
aF0.4596659353256648
aF0.5045899235389268
aa(lp938
I38
ag931
aF0.4350646574151361
aF0.12882202477698093
aa(lp939
I35
ag931
aF0.5017704320297095
aF0.11776388813422833
aa(lp940
I2
ag931
aF0.9873920642782735
aF0.2591855067933749
aa(lp941
I60
ag931
aF0.8663691545237655
aF0.20036934006382037
aa(lp942
I80
ag931
aF0.8714744788248594
aF0.32868300706301334
aa(lp943
I18
ag931
aF0.6869507515601858
aF0.31520326356130035
aa(lp944
I40
ag931
aF0.6518742277681217
aF0.14469239641765852
aa(lp945
I52
ag931
aF0.6763498531948791
aF0.5034268380823321
aa(lp946
I22
ag934
aF0.8882396239318389
aF0.8394637776576995
aa(lp947
I47
ag931
aF0.27617607719674486
aF0.15833028078292105
aa(lp948
I28
ag934
aF0.8276358652877078
aF0.6285944852509332
aa(lp949
I87
ag931
aF0.5101927315278428
aF0.22097580924819962
aa(lp950
I56
ag931
aF0.3172965379775764
aF0.12248200426278723
aa(lp951
I10
ag931
aF0.9790994555741587
aF0.2954942841762116
aa(lp952
I31
ag934
aF0.9731853311125653
aF0.39267711375476044
aa(lp953
I39
ag931
aF0.38352660941495764
aF0.6008673195261544
aa(lp954
I88
ag931
aF0.33922391152175446
aF0.13221760579404468
aa(lp955
I73
ag931
aF0.5374452235973193
aF0.22794402177870232
aa(lp956
I72
ag931
aF0.690985292727453
aF0.10647239562804976
aa(lp957
I33
ag931
aF0.3122655575587958
aF0.1769498876946615
aa(lp958
I32
ag934
aF0.3009363216754627
aF0.9641933387442755
aa(lp959
I91
ag931
aF0.9009520120945145
aF0.29425878429352137
aa(lp960
I3
ag931
aF0.5890324482085463
aF0.2731569800530587
aa(lp961
I81
ag931
aF0.16616022568512517
aF0.16163991853159362
aa(lp962
I14
ag931
aF0.2807556157196529
aF0.10198411205988178
aa(lp963
I42
ag934
aF0.9014536691957713
aF0.7277789153928284
aa(lp964
I24
ag931
aF0.6911514008458302
aF0.2281010100410257
aa(lp965
I16
ag931
aF0.6163227827942184
aF0.11254264230737862
aa(lp966
I98
ag931
aF0.9253829637382198
aF0.26853531648545154
aa(lp967
I1
ag931
aF0.6497709486074901
aF0.10749187504088267
aa(lp968
I28
ag931
aF0.880990256784046
aF0.1130117851684091
aa(lp969
I35
ag934
aF0.33525962119595004
aF0.3444158161672628
aa(lp970
I91
ag931
aF0.9448652591182379
aF0.17267251359634703
aa(lp971
I83
ag934
aF0.301184737766626
aF0.3057085914154004
aa(lp972
I22
ag931
aF0.15702043087021447
aF0.15966470290157975
aa(lp973
I41
ag934
aF0.3912643828022071
aF0.7211611901946126
aa(lp974
I58
ag931
aF0.48735822763140535
aF0.10354349419363106
aa(lp975
I90
ag931
aF0.8268410416658998
aF0.10895315461244015
aa(lp976
I42
ag931
aF0.11159622931660354
aF0.1025793629750783
aa(lp977
I3
ag931
aF0.6808838741241827
aF0.1041841889600948
aa(lp978
I36
ag934
aF0.5692798412308144
aF0.18709704304360453
aa(lp979
I73
ag934
aF0.7432729315084374
aF0.5832846164100697
aa(lp980
I33
ag931
aF0.7802053201706614
aF0.2585696124311693
aa(lp981
I7
ag934
aF0.6206321514076991
aF0.3874581756474097
aa(lp982
I90
ag931
aF0.7543558003004948
aF0.21187642301619147
aa(lp983
I59
ag934
aF0.3362205347399464
aF0.7083342656627001
aa(lp984
I51
ag931
aF0.2969958836826262
aF0.33933145337197157
aa(lp985
I6
ag931
aF0.557590892901367
aF0.11787842167088143
aa(lp986
I93
ag934
aF0.5331617598355257
aF0.8411239887418716
aa(lp987
I82
ag931
aF0.18908811975720707
aF0.1690439146577751
aa(lp988
I9
ag931
aF0.6544872949548761
aF0.18013264727525138
aa(lp989
I74
ag931
aF0.8981258061633913
aF0.15321311303941804
aa(lp990
I60
ag931
aF0.34448216754058886
aF0.5303993303515013
aa(lp991
I1
ag931
aF0.6482374736544174
aF0.2716003461032188
aaaF3.699437141418457
ass.