(dp0
S'f1'
p1
(dp2
S'RF'
p3
(lp4
(lp5
cnumpy.core.multiarray
scalar
p6
(cnumpy
dtype
p7
(S'f8'
p8
I0
I1
tp9
Rp10
(I3
S'<'
p11
NNNI-1
I-1
I0
tp12
bS'\xc3\xf5(\\\x8f\xc2\xd5?'
p13
tp14
Rp15
ag6
(g10
S'\x1f\x85\xebQ\xb8\x1e\xd5?'
p16
tp17
Rp18
ag6
(g10
S'\n\xd7\xa3p=\n\xd7?'
p19
tp20
Rp21
ag6
(g10
S'R\xb8\x1e\x85\xebQ\xd8?'
p22
tp23
Rp24
ag6
(g10
S'\x1f\x85\xebQ\xb8\x1e\xd5?'
p25
tp26
Rp27
ag6
(g10
S'R\xb8\x1e\x85\xebQ\xd8?'
p28
tp29
Rp30
ag6
(g10
S'\x1f\x85\xebQ\xb8\x1e\xd5?'
p31
tp32
Rp33
ag6
(g10
S'\xaeG\xe1z\x14\xae\xd7?'
p34
tp35
Rp36
ag6
(g10
S'ffffff\xd6?'
p37
tp38
Rp39
ag6
(g10
S'{\x14\xaeG\xe1z\xd4?'
p40
tp41
Rp42
ag6
(g10
S'\n\xd7\xa3p=\n\xd7?'
p43
tp44
Rp45
ag6
(g10
S'\x9a\x99\x99\x99\x99\x99\xd9?'
p46
tp47
Rp48
ag6
(g10
S'ffffff\xd6?'
p49
tp50
Rp51
ag6
(g10
S'\xc3\xf5(\\\x8f\xc2\xd5?'
p52
tp53
Rp54
ag6
(g10
S'\xc3\xf5(\\\x8f\xc2\xd5?'
p55
tp56
Rp57
ag6
(g10
S'\xf6(\\\x8f\xc2\xf5\xd8?'
p58
tp59
Rp60
ag6
(g10
S'\n\xd7\xa3p=\n\xd7?'
p61
tp62
Rp63
ag6
(g10
S'\xaeG\xe1z\x14\xae\xd7?'
p64
tp65
Rp66
ag6
(g10
S'\x1f\x85\xebQ\xb8\x1e\xd5?'
p67
tp68
Rp69
ag6
(g10
S'\x1f\x85\xebQ\xb8\x1e\xd5?'
p70
tp71
Rp72
ag6
(g10
S'R\xb8\x1e\x85\xebQ\xd8?'
p73
tp74
Rp75
ag6
(g10
S'\xf6(\\\x8f\xc2\xf5\xd8?'
p76
tp77
Rp78
ag6
(g10
S'\xaeG\xe1z\x14\xae\xd7?'
p79
tp80
Rp81
ag6
(g10
S'\xf6(\\\x8f\xc2\xf5\xd8?'
p82
tp83
Rp84
ag6
(g10
S'ffffff\xd6?'
p85
tp86
Rp87
ag6
(g10
S'ffffff\xd6?'
p88
tp89
Rp90
ag6
(g10
S'ffffff\xd6?'
p91
tp92
Rp93
ag6
(g10
S'ffffff\xd6?'
p94
tp95
Rp96
ag6
(g10
S'333333\xd3?'
p97
tp98
Rp99
ag6
(g10
S'\xaeG\xe1z\x14\xae\xd7?'
p100
tp101
Rp102
ag6
(g10
S'\x1f\x85\xebQ\xb8\x1e\xd5?'
p103
tp104
Rp105
ag6
(g10
S'\xc3\xf5(\\\x8f\xc2\xd5?'
p106
tp107
Rp108
ag6
(g10
S'\xc3\xf5(\\\x8f\xc2\xd5?'
p109
tp110
Rp111
ag6
(g10
S'R\xb8\x1e\x85\xebQ\xd8?'
p112
tp113
Rp114
ag6
(g10
S'ffffff\xd6?'
p115
tp116
Rp117
ag6
(g10
S'ffffff\xd6?'
p118
tp119
Rp120
ag6
(g10
S'\x1f\x85\xebQ\xb8\x1e\xd5?'
p121
tp122
Rp123
ag6
(g10
S'\xf6(\\\x8f\xc2\xf5\xd8?'
p124
tp125
Rp126
ag6
(g10
S'ffffff\xd6?'
p127
tp128
Rp129
ag6
(g10
S'ffffff\xd6?'
p130
tp131
Rp132
ag6
(g10
S'\n\xd7\xa3p=\n\xd7?'
p133
tp134
Rp135
ag6
(g10
S'\xf6(\\\x8f\xc2\xf5\xd8?'
p136
tp137
Rp138
ag6
(g10
S'ffffff\xd6?'
p139
tp140
Rp141
ag6
(g10
S'\xaeG\xe1z\x14\xae\xd7?'
p142
tp143
Rp144
ag6
(g10
S'\x1f\x85\xebQ\xb8\x1e\xd5?'
p145
tp146
Rp147
ag6
(g10
S'\x1f\x85\xebQ\xb8\x1e\xd5?'
p148
tp149
Rp150
ag6
(g10
S'\xc3\xf5(\\\x8f\xc2\xd5?'
p151
tp152
Rp153
ag6
(g10
S'\xaeG\xe1z\x14\xae\xd7?'
p154
tp155
Rp156
ag6
(g10
S'\n\xd7\xa3p=\n\xd7?'
p157
tp158
Rp159
ag6
(g10
S'\xaeG\xe1z\x14\xae\xd7?'
p160
tp161
Rp162
ag6
(g10
S'\xaeG\xe1z\x14\xae\xd7?'
p163
tp164
Rp165
ag6
(g10
S'\xaeG\xe1z\x14\xae\xd7?'
p166
tp167
Rp168
ag6
(g10
S'R\xb8\x1e\x85\xebQ\xd8?'
p169
tp170
Rp171
ag6
(g10
S'\xf6(\\\x8f\xc2\xf5\xd8?'
p172
tp173
Rp174
ag6
(g10
S'R\xb8\x1e\x85\xebQ\xd8?'
p175
tp176
Rp177
ag6
(g10
S'\n\xd7\xa3p=\n\xd7?'
p178
tp179
Rp180
ag6
(g10
S'\xaeG\xe1z\x14\xae\xd7?'
p181
tp182
Rp183
ag6
(g10
S'\n\xd7\xa3p=\n\xd7?'
p184
tp185
Rp186
ag6
(g10
S'R\xb8\x1e\x85\xebQ\xd8?'
p187
tp188
Rp189
ag6
(g10
S'\xc3\xf5(\\\x8f\xc2\xd5?'
p190
tp191
Rp192
aa(lp193
(lp194
S'gini'
p195
aF0.11864944799112527
aI3
aI4
aI56
aa(lp196
S'entropy'
p197
aF0.5530200370642626
aI16
aI7
aI12
aa(lp198
g197
aF0.7575617999601055
aI16
aI3
aI81
aa(lp199
g197
aF0.2133840732652053
aI8
aI1
aI48
aa(lp200
g197
aF0.6204362626473617
aI20
aI4
aI31
aa(lp201
g197
aF0.4621579863050257
aI7
aI1
aI71
aa(lp202
g195
aF0.9983855323908538
aI23
aI2
aI26
aa(lp203
g197
aF0.424337394474425
aI14
aI2
aI39
aa(lp204
g197
aF0.4332764253692828
aI5
aI4
aI48
aa(lp205
g195
aF0.9316224746869245
aI27
aI1
aI77
aa(lp206
g197
aF0.6545515448731068
aI14
aI4
aI82
aa(lp207
g195
aF0.8892705643935025
aI11
aI2
aI29
aa(lp208
g197
aF0.3727743910152931
aI25
aI4
aI62
aa(lp209
g195
aF0.7431429859134449
aI24
aI1
aI73
aa(lp210
g195
aF0.9767737839700408
aI4
aI7
aI61
aa(lp211
g197
aF0.2979214655986021
aI3
aI1
aI94
aa(lp212
g195
aF0.7266909708034318
aI11
aI5
aI48
aa(lp213
g197
aF0.38733354346778304
aI14
aI6
aI16
aa(lp214
g195
aF0.9495931775626001
aI27
aI1
aI55
aa(lp215
g195
aF0.6550360767590032
aI28
aI6
aI88
aa(lp216
g195
aF0.9264927315416377
aI4
aI1
aI83
aa(lp217
g197
aF0.512972582012134
aI3
aI2
aI86
aa(lp218
g195
aF0.9438450210489566
aI21
aI1
aI86
aa(lp219
g197
aF0.6997307870520039
aI8
aI1
aI95
aa(lp220
g195
aF0.6701283339989419
aI12
aI1
aI44
aa(lp221
g195
aF0.4495972683934333
aI9
aI5
aI30
aa(lp222
g197
aF0.33430609005294276
aI4
aI3
aI99
aa(lp223
g195
aF0.40607251164679803
aI23
aI2
aI18
aa(lp224
g197
aF0.43223480960894567
aI8
aI12
aI20
aa(lp225
g197
aF0.4727532078491753
aI8
aI1
aI46
aa(lp226
g197
aF0.5192560593723373
aI20
aI4
aI49
aa(lp227
g195
aF0.4372378460245754
aI14
aI2
aI36
aa(lp228
g195
aF0.24105294496864824
aI11
aI4
aI26
aa(lp229
g195
aF0.46997439477278924
aI18
aI2
aI12
aa(lp230
g197
aF0.8433557738881874
aI11
aI8
aI94
aa(lp231
g197
aF0.1318366850178396
aI21
aI3
aI99
aa(lp232
g195
aF0.8769164530105193
aI13
aI6
aI24
aa(lp233
g197
aF0.7416767854396017
aI7
aI2
aI68
aa(lp234
g195
aF0.9097192728499559
aI16
aI1
aI29
aa(lp235
g197
aF0.8050894656223516
aI10
aI4
aI41
aa(lp236
g195
aF0.5752647075709392
aI13
aI1
aI84
aa(lp237
g195
aF0.3628610641891358
aI4
aI1
aI33
aa(lp238
g195
aF0.45467910770139397
aI8
aI4
aI11
aa(lp239
g197
aF0.6384011504910898
aI10
aI3
aI75
aa(lp240
g195
aF0.46264452271068257
aI3
aI7
aI80
aa(lp241
g195
aF0.7657175302394643
aI25
aI4
aI100
aa(lp242
g195
aF0.7412629668164057
aI24
aI1
aI93
aa(lp243
g195
aF0.43804173589982853
aI10
aI2
aI93
aa(lp244
g197
aF0.9661973854227742
aI22
aI1
aI70
aa(lp245
g195
aF0.28899879068835355
aI8
aI4
aI71
aa(lp246
g197
aF0.5028096294746931
aI2
aI4
aI60
aa(lp247
g195
aF0.9389453143955045
aI4
aI2
aI17
aa(lp248
g195
aF0.9666750128783725
aI5
aI2
aI40
aa(lp249
g195
aF0.9901664406870873
aI3
aI2
aI65
aa(lp250
g197
aF0.6917399652601682
aI10
aI2
aI66
aa(lp251
g197
aF0.549824408466214
aI20
aI1
aI72
aa(lp252
g197
aF0.8352622124424706
aI7
aI1
aI59
aa(lp253
g197
aF0.4527263672551646
aI11
aI3
aI59
aa(lp254
g197
aF0.3548629833778896
aI9
aI2
aI31
aa(lp255
g195
aF0.4902286141008765
aI19
aI1
aI49
aaaF572.3494758605957
ass.