(dp0
S'f1'
p1
(dp2
S'KNN'
p3
(lp4
(lp5
cnumpy.core.multiarray
scalar
p6
(cnumpy
dtype
p7
(S'f8'
p8
I0
I1
tp9
Rp10
(I3
S'<'
p11
NNNI-1
I-1
I0
tp12
bS'\xc3\xf5(\\\x8f\xc2\xd5?'
p13
tp14
Rp15
ag6
(g10
S'q=\n\xd7\xa3p\xcd?'
p16
tp17
Rp18
ag6
(g10
S'\x8f\xc2\xf5(\\\x8f\xd2?'
p19
tp20
Rp21
ag6
(g10
S'\xd7\xa3p=\n\xd7\xd3?'
p22
tp23
Rp24
ag6
(g10
S'\xd7\xa3p=\n\xd7\xd3?'
p25
tp26
Rp27
ag6
(g10
S'\xc3\xf5(\\\x8f\xc2\xd5?'
p28
tp29
Rp30
ag6
(g10
S'\n\xd7\xa3p=\n\xd7?'
p31
tp32
Rp33
ag6
(g10
S'\xaeG\xe1z\x14\xae\xd7?'
p34
tp35
Rp36
ag6
(g10
S'\xaeG\xe1z\x14\xae\xd7?'
p37
tp38
Rp39
ag6
(g10
S'H\xe1z\x14\xaeG\xd1?'
p40
tp41
Rp42
ag6
(g10
S'\n\xd7\xa3p=\n\xd7?'
p43
tp44
Rp45
ag6
(g10
S'\n\xd7\xa3p=\n\xd7?'
p46
tp47
Rp48
ag6
(g10
S'\n\xd7\xa3p=\n\xd7?'
p49
tp50
Rp51
ag6
(g10
S'\n\xd7\xa3p=\n\xd7?'
p52
tp53
Rp54
ag6
(g10
S'\xaeG\xe1z\x14\xae\xd7?'
p55
tp56
Rp57
ag6
(g10
S'H\xe1z\x14\xaeG\xd1?'
p58
tp59
Rp60
ag6
(g10
S'\x8f\xc2\xf5(\\\x8f\xd2?'
p61
tp62
Rp63
ag6
(g10
S'ffffff\xd6?'
p64
tp65
Rp66
ag6
(g10
S'\xaeG\xe1z\x14\xae\xd7?'
p67
tp68
Rp69
ag6
(g10
S'\n\xd7\xa3p=\n\xd7?'
p70
tp71
Rp72
ag6
(g10
S'\n\xd7\xa3p=\n\xd7?'
p73
tp74
Rp75
ag6
(g10
S'\x8f\xc2\xf5(\\\x8f\xd2?'
p76
tp77
Rp78
ag6
(g10
S'\n\xd7\xa3p=\n\xd7?'
p79
tp80
Rp81
ag6
(g10
S'ffffff\xd6?'
p82
tp83
Rp84
ag6
(g10
S'\xd7\xa3p=\n\xd7\xd3?'
p85
tp86
Rp87
ag6
(g10
S'\xaeG\xe1z\x14\xae\xd7?'
p88
tp89
Rp90
ag6
(g10
S'ffffff\xd6?'
p91
tp92
Rp93
ag6
(g10
S'ffffff\xd6?'
p94
tp95
Rp96
ag6
(g10
S'\xc3\xf5(\\\x8f\xc2\xd5?'
p97
tp98
Rp99
ag6
(g10
S'ffffff\xd6?'
p100
tp101
Rp102
ag6
(g10
S'ffffff\xd6?'
p103
tp104
Rp105
ag6
(g10
S'\n\xd7\xa3p=\n\xd7?'
p106
tp107
Rp108
ag6
(g10
S'\n\xd7\xa3p=\n\xd7?'
p109
tp110
Rp111
ag6
(g10
S'\x8f\xc2\xf5(\\\x8f\xd2?'
p112
tp113
Rp114
ag6
(g10
S'ffffff\xd6?'
p115
tp116
Rp117
ag6
(g10
S'{\x14\xaeG\xe1z\xd4?'
p118
tp119
Rp120
ag6
(g10
S'\xaeG\xe1z\x14\xae\xd7?'
p121
tp122
Rp123
ag6
(g10
S'\n\xd7\xa3p=\n\xd7?'
p124
tp125
Rp126
ag6
(g10
S'\n\xd7\xa3p=\n\xd7?'
p127
tp128
Rp129
ag6
(g10
S'H\xe1z\x14\xaeG\xd1?'
p130
tp131
Rp132
ag6
(g10
S'{\x14\xaeG\xe1z\xd4?'
p133
tp134
Rp135
ag6
(g10
S'\n\xd7\xa3p=\n\xd7?'
p136
tp137
Rp138
ag6
(g10
S'\x8f\xc2\xf5(\\\x8f\xd2?'
p139
tp140
Rp141
ag6
(g10
S'ffffff\xd6?'
p142
tp143
Rp144
ag6
(g10
S'\n\xd7\xa3p=\n\xd7?'
p145
tp146
Rp147
ag6
(g10
S'\xc3\xf5(\\\x8f\xc2\xd5?'
p148
tp149
Rp150
ag6
(g10
S'ffffff\xd6?'
p151
tp152
Rp153
ag6
(g10
S'ffffff\xd6?'
p154
tp155
Rp156
ag6
(g10
S'\xc3\xf5(\\\x8f\xc2\xd5?'
p157
tp158
Rp159
ag6
(g10
S'\xaeG\xe1z\x14\xae\xd7?'
p160
tp161
Rp162
ag6
(g10
S'\xaeG\xe1z\x14\xae\xd7?'
p163
tp164
Rp165
ag6
(g10
S'\xaeG\xe1z\x14\xae\xd7?'
p166
tp167
Rp168
ag6
(g10
S'\n\xd7\xa3p=\n\xd7?'
p169
tp170
Rp171
ag6
(g10
S'\xc3\xf5(\\\x8f\xc2\xd5?'
p172
tp173
Rp174
ag6
(g10
S'\n\xd7\xa3p=\n\xd7?'
p175
tp176
Rp177
ag6
(g10
S'\xaeG\xe1z\x14\xae\xd7?'
p178
tp179
Rp180
ag6
(g10
S'{\x14\xaeG\xe1z\xd4?'
p181
tp182
Rp183
ag6
(g10
S'\n\xd7\xa3p=\n\xd7?'
p184
tp185
Rp186
ag6
(g10
S'\xaeG\xe1z\x14\xae\xd7?'
p187
tp188
Rp189
ag6
(g10
S'\xd7\xa3p=\n\xd7\xd3?'
p190
tp191
Rp192
aa(lp193
(lp194
I4
aS'distance'
p195
aa(lp196
I4
aS'uniform'
p197
aa(lp198
I9
ag197
aa(lp199
I6
ag195
aa(lp200
I6
ag195
aa(lp201
I4
ag195
aa(lp202
I2
ag195
aa(lp203
I3
ag197
aa(lp204
I3
ag197
aa(lp205
I9
ag195
aa(lp206
I3
ag195
aa(lp207
I2
ag195
aa(lp208
I3
ag195
aa(lp209
I3
ag195
aa(lp210
I3
ag197
aa(lp211
I6
ag197
aa(lp212
I9
ag197
aa(lp213
I5
ag195
aa(lp214
I3
ag197
aa(lp215
I2
ag195
aa(lp216
I2
ag195
aa(lp217
I9
ag197
aa(lp218
I3
ag195
aa(lp219
I5
ag197
aa(lp220
I6
ag195
aa(lp221
I3
ag197
aa(lp222
I5
ag195
aa(lp223
I5
ag197
aa(lp224
I4
ag195
aa(lp225
I5
ag197
aa(lp226
I5
ag195
aa(lp227
I3
ag195
aa(lp228
I3
ag195
aa(lp229
I9
ag197
aa(lp230
I5
ag195
aa(lp231
I7
ag197
aa(lp232
I3
ag197
aa(lp233
I3
ag195
aa(lp234
I3
ag195
aa(lp235
I10
ag195
aa(lp236
I7
ag197
aa(lp237
I3
ag195
aa(lp238
I9
ag197
aa(lp239
I5
ag195
aa(lp240
I2
ag195
aa(lp241
I4
ag195
aa(lp242
I5
ag195
aa(lp243
I5
ag195
aa(lp244
I4
ag195
aa(lp245
I3
ag197
aa(lp246
I3
ag197
aa(lp247
I3
ag197
aa(lp248
I2
ag195
aa(lp249
I4
ag195
aa(lp250
I3
ag195
aa(lp251
I3
ag197
aa(lp252
I7
ag197
aa(lp253
I3
ag195
aa(lp254
I3
ag197
aa(lp255
I6
ag195
aaaF1.7588388919830322
asS'DTC'
p256
(lp257
(lp258
g6
(g10
S'ffffff\xd6?'
p259
tp260
Rp261
ag6
(g10
S'\x9a\x99\x99\x99\x99\x99\xe1?'
p262
tp263
Rp264
ag6
(g10
S'q=\n\xd7\xa3p\xe5?'
p265
tp266
Rp267
ag6
(g10
S'\xf6(\\\x8f\xc2\xf5\xd8?'
p268
tp269
Rp270
ag6
(g10
S'q=\n\xd7\xa3p\xe5?'
p271
tp272
Rp273
ag6
(g10
S'\x85\xebQ\xb8\x1e\x85\xdb?'
p274
tp275
Rp276
ag6
(g10
S'\xf6(\\\x8f\xc2\xf5\xd8?'
p277
tp278
Rp279
ag6
(g10
S'q=\n\xd7\xa3p\xe5?'
p280
tp281
Rp282
ag6
(g10
S'\xa4p=\n\xd7\xa3\xe0?'
p283
tp284
Rp285
ag6
(g10
S'\xcd\xcc\xcc\xcc\xcc\xcc\xdc?'
p286
tp287
Rp288
ag6
(g10
S'q=\n\xd7\xa3p\xe5?'
p289
tp290
Rp291
ag6
(g10
S'\xa4p=\n\xd7\xa3\xe0?'
p292
tp293
Rp294
ag6
(g10
S'\xf6(\\\x8f\xc2\xf5\xd8?'
p295
tp296
Rp297
ag6
(g10
S'\xcd\xcc\xcc\xcc\xcc\xcc\xdc?'
p298
tp299
Rp300
ag6
(g10
S'\xe1z\x14\xaeG\xe1\xda?'
p301
tp302
Rp303
ag6
(g10
S'q=\n\xd7\xa3p\xdd?'
p304
tp305
Rp306
ag6
(g10
S'\n\xd7\xa3p=\n\xd7?'
p307
tp308
Rp309
ag6
(g10
S'ffffff\xd6?'
p310
tp311
Rp312
ag6
(g10
S'R\xb8\x1e\x85\xebQ\xd8?'
p313
tp314
Rp315
ag6
(g10
S'=\n\xd7\xa3p=\xda?'
p316
tp317
Rp318
ag6
(g10
S'\x9a\x99\x99\x99\x99\x99\xe1?'
p319
tp320
Rp321
ag6
(g10
S'\xcd\xcc\xcc\xcc\xcc\xcc\xdc?'
p322
tp323
Rp324
ag6
(g10
S'\x85\xebQ\xb8\x1e\x85\xdb?'
p325
tp326
Rp327
ag6
(g10
S'=\n\xd7\xa3p=\xda?'
p328
tp329
Rp330
ag6
(g10
S'=\n\xd7\xa3p=\xda?'
p331
tp332
Rp333
ag6
(g10
S'\n\xd7\xa3p=\n\xd7?'
p334
tp335
Rp336
ag6
(g10
S'=\n\xd7\xa3p=\xda?'
p337
tp338
Rp339
ag6
(g10
S'ffffff\xd6?'
p340
tp341
Rp342
ag6
(g10
S'=\n\xd7\xa3p=\xda?'
p343
tp344
Rp345
ag6
(g10
S'\xf6(\\\x8f\xc2\xf5\xd8?'
p346
tp347
Rp348
ag6
(g10
S'=\n\xd7\xa3p=\xda?'
p349
tp350
Rp351
ag6
(g10
S'\x9a\x99\x99\x99\x99\x99\xd9?'
p352
tp353
Rp354
ag6
(g10
S'H\xe1z\x14\xaeG\xd1?'
p355
tp356
Rp357
ag6
(g10
S'ffffff\xd6?'
p358
tp359
Rp360
ag6
(g10
S'\x9a\x99\x99\x99\x99\x99\xd9?'
p361
tp362
Rp363
ag6
(g10
S'333333\xd3?'
p364
tp365
Rp366
ag6
(g10
S'R\xb8\x1e\x85\xebQ\xd8?'
p367
tp368
Rp369
ag6
(g10
S'\xb8\x1e\x85\xebQ\xb8\xde?'
p370
tp371
Rp372
ag6
(g10
S'\xecQ\xb8\x1e\x85\xeb\xe1?'
p373
tp374
Rp375
ag6
(g10
S'q=\n\xd7\xa3p\xe5?'
p376
tp377
Rp378
ag6
(g10
S'=\n\xd7\xa3p=\xda?'
p379
tp380
Rp381
ag6
(g10
S'=\n\xd7\xa3p=\xda?'
p382
tp383
Rp384
ag6
(g10
S'\xf6(\\\x8f\xc2\xf5\xd8?'
p385
tp386
Rp387
ag6
(g10
S'=\n\xd7\xa3p=\xda?'
p388
tp389
Rp390
ag6
(g10
S'\x14\xaeG\xe1z\x14\xde?'
p391
tp392
Rp393
ag6
(g10
S'\x00\x00\x00\x00\x00\x00\xe0?'
p394
tp395
Rp396
ag6
(g10
S'=\n\xd7\xa3p=\xda?'
p397
tp398
Rp399
ag6
(g10
S'\xf6(\\\x8f\xc2\xf5\xd8?'
p400
tp401
Rp402
ag6
(g10
S'\xcd\xcc\xcc\xcc\xcc\xcc\xdc?'
p403
tp404
Rp405
ag6
(g10
S'ffffff\xd6?'
p406
tp407
Rp408
ag6
(g10
S'=\n\xd7\xa3p=\xda?'
p409
tp410
Rp411
ag6
(g10
S'R\xb8\x1e\x85\xebQ\xe0?'
p412
tp413
Rp414
ag6
(g10
S'\x00\x00\x00\x00\x00\x00\x00\x00'
p415
tp416
Rp417
ag6
(g10
S'\xaeG\xe1z\x14\xae\xd7?'
p418
tp419
Rp420
ag6
(g10
S'\n\xd7\xa3p=\n\xd7?'
p421
tp422
Rp423
ag6
(g10
S'\xe1z\x14\xaeG\xe1\xda?'
p424
tp425
Rp426
ag6
(g10
S'R\xb8\x1e\x85\xebQ\xe0?'
p427
tp428
Rp429
ag6
(g10
S'q=\n\xd7\xa3p\xe5?'
p430
tp431
Rp432
ag6
(g10
S'\xaeG\xe1z\x14\xae\xd7?'
p433
tp434
Rp435
ag6
(g10
S'\xcd\xcc\xcc\xcc\xcc\xcc\xdc?'
p436
tp437
Rp438
aa(lp439
(lp440
S'entropy'
p441
aF0.13091668729109066
aI28
aI14
aI14
aa(lp442
g441
aF0.6065905212864832
aI22
aI9
aI20
aa(lp443
S'gini'
p444
aF0.790366341566578
aI7
aI13
aI1
aa(lp445
g444
aF0.7234102854834692
aI18
aI11
aI3
aa(lp446
g441
aF0.7122645361694511
aI17
aI11
aI1
aa(lp447
g444
aF0.82868901481506
aI23
aI1
aI8
aa(lp448
g441
aF0.7173755822001224
aI11
aI17
aI12
aa(lp449
g441
aF0.9680419201391256
aI2
aI14
aI1
aa(lp450
g441
aF0.3915526454615804
aI8
aI5
aI10
aa(lp451
g441
aF0.6887724148877216
aI13
aI2
aI8
aa(lp452
g441
aF0.740441123890637
aI24
aI12
aI1
aa(lp453
g441
aF0.718526784877151
aI18
aI13
aI7
aa(lp454
g441
aF0.9963845743108404
aI23
aI4
aI12
aa(lp455
g441
aF0.8906161974520586
aI9
aI9
aI18
aa(lp456
g441
aF0.6090918581120501
aI8
aI20
aI9
aa(lp457
g441
aF0.723844032035511
aI2
aI16
aI18
aa(lp458
g441
aF0.3914165245946549
aI28
aI19
aI15
aa(lp459
g441
aF0.8236607021585064
aI15
aI21
aI20
aa(lp460
g441
aF0.8678939733758537
aI7
aI2
aI21
aa(lp461
g444
aF0.7960831322004759
aI10
aI14
aI8
aa(lp462
g444
aF0.4222765617880163
aI10
aI5
aI4
aa(lp463
g441
aF0.7608623568734851
aI13
aI20
aI11
aa(lp464
g444
aF0.43683794228328865
aI16
aI9
aI7
aa(lp465
g441
aF0.966350896061906
aI19
aI21
aI18
aa(lp466
g444
aF0.8595232998993926
aI11
aI16
aI9
aa(lp467
g444
aF0.8360023990301337
aI14
aI1
aI17
aa(lp468
g444
aF0.7967604792654938
aI5
aI13
aI20
aa(lp469
g444
aF0.7888911486714204
aI25
aI3
aI12
aa(lp470
g441
aF0.2186073922193969
aI17
aI21
aI8
aa(lp471
g444
aF0.7103079575554213
aI28
aI19
aI20
aa(lp472
g444
aF0.7575041361668549
aI19
aI4
aI21
aa(lp473
g444
aF0.9398500121645544
aI19
aI12
aI10
aa(lp474
g444
aF0.535483032922549
aI14
aI17
aI9
aa(lp475
g444
aF0.23188853569832832
aI15
aI10
aI14
aa(lp476
g441
aF0.7612540270507552
aI21
aI1
aI5
aa(lp477
g444
aF0.1582529895554889
aI21
aI17
aI20
aa(lp478
g444
aF0.8791756291731594
aI19
aI2
aI8
aa(lp479
g444
aF0.847760246088226
aI28
aI15
aI8
aa(lp480
g441
aF0.4162517720948933
aI22
aI9
aI6
aa(lp481
g441
aF0.984600632357828
aI22
aI4
aI1
aa(lp482
g444
aF0.7560718667263896
aI25
aI17
aI11
aa(lp483
g441
aF0.16875582050087784
aI15
aI14
aI4
aa(lp484
g441
aF0.7077386644593392
aI10
aI20
aI5
aa(lp485
g441
aF0.8521191453077009
aI25
aI17
aI5
aa(lp486
g444
aF0.1551754402137723
aI24
aI21
aI2
aa(lp487
g441
aF0.7701870254054308
aI21
aI21
aI2
aa(lp488
g441
aF0.17228466423406497
aI20
aI1
aI20
aa(lp489
g441
aF0.6233316002806502
aI11
aI17
aI5
aa(lp490
g444
aF0.7772118778368543
aI12
aI19
aI13
aa(lp491
g444
aF0.9721191530609298
aI23
aI2
aI3
aa(lp492
g444
aF0.7534466988397092
aI15
aI17
aI7
aa(lp493
g441
aF0.8066214122420705
aI30
aI9
aI21
aa(lp494
g441
aF0.47480040184180083
aI30
aI16
aI1
aa(lp495
g441
aF0.30447015703334074
aI15
aI9
aI12
aa(lp496
g444
aF0.8113125214460857
aI3
aI14
aI19
aa(lp497
g441
aF0.43630354508222746
aI14
aI8
aI18
aa(lp498
g444
aF0.8674121122904062
aI5
aI8
aI6
aa(lp499
g444
aF0.9311816251564399
aI4
aI14
aI1
aa(lp500
g444
aF0.41604900891625896
aI13
aI7
aI15
aa(lp501
g441
aF0.8683833819390642
aI29
aI11
aI15
aaaF1.2289369106292725
asS'RF'
p502
(lp503
(lp504
g6
(g10
S'\x9a\x99\x99\x99\x99\x99\xd9?'
p505
tp506
Rp507
ag6
(g10
S'=\n\xd7\xa3p=\xda?'
p508
tp509
Rp510
ag6
(g10
S'\xf6(\\\x8f\xc2\xf5\xd8?'
p511
tp512
Rp513
ag6
(g10
S'=\n\xd7\xa3p=\xda?'
p514
tp515
Rp516
ag6
(g10
S'\n\xd7\xa3p=\n\xd7?'
p517
tp518
Rp519
ag6
(g10
S'\xaeG\xe1z\x14\xae\xd7?'
p520
tp521
Rp522
ag6
(g10
S'\xf6(\\\x8f\xc2\xf5\xd8?'
p523
tp524
Rp525
ag6
(g10
S'=\n\xd7\xa3p=\xda?'
p526
tp527
Rp528
ag6
(g10
S'\xaeG\xe1z\x14\xae\xd7?'
p529
tp530
Rp531
ag6
(g10
S'\n\xd7\xa3p=\n\xd7?'
p532
tp533
Rp534
ag6
(g10
S'\n\xd7\xa3p=\n\xd7?'
p535
tp536
Rp537
ag6
(g10
S'\xf6(\\\x8f\xc2\xf5\xd8?'
p538
tp539
Rp540
ag6
(g10
S'\xe1z\x14\xaeG\xe1\xda?'
p541
tp542
Rp543
ag6
(g10
S'\xe1z\x14\xaeG\xe1\xda?'
p544
tp545
Rp546
ag6
(g10
S'\n\xd7\xa3p=\n\xd7?'
p547
tp548
Rp549
ag6
(g10
S'\n\xd7\xa3p=\n\xd7?'
p550
tp551
Rp552
ag6
(g10
S'\n\xd7\xa3p=\n\xd7?'
p553
tp554
Rp555
ag6
(g10
S'\xaeG\xe1z\x14\xae\xd7?'
p556
tp557
Rp558
ag6
(g10
S'R\xb8\x1e\x85\xebQ\xd8?'
p559
tp560
Rp561
ag6
(g10
S'=\n\xd7\xa3p=\xda?'
p562
tp563
Rp564
ag6
(g10
S'\n\xd7\xa3p=\n\xd7?'
p565
tp566
Rp567
ag6
(g10
S'=\n\xd7\xa3p=\xda?'
p568
tp569
Rp570
ag6
(g10
S'R\xb8\x1e\x85\xebQ\xd8?'
p571
tp572
Rp573
ag6
(g10
S'\xf6(\\\x8f\xc2\xf5\xd8?'
p574
tp575
Rp576
ag6
(g10
S'\x9a\x99\x99\x99\x99\x99\xd9?'
p577
tp578
Rp579
ag6
(g10
S'=\n\xd7\xa3p=\xda?'
p580
tp581
Rp582
ag6
(g10
S'\xf6(\\\x8f\xc2\xf5\xd8?'
p583
tp584
Rp585
ag6
(g10
S'R\xb8\x1e\x85\xebQ\xd8?'
p586
tp587
Rp588
ag6
(g10
S'R\xb8\x1e\x85\xebQ\xd8?'
p589
tp590
Rp591
ag6
(g10
S'\xf6(\\\x8f\xc2\xf5\xd8?'
p592
tp593
Rp594
ag6
(g10
S')\\\x8f\xc2\xf5(\xdc?'
p595
tp596
Rp597
ag6
(g10
S'\x9a\x99\x99\x99\x99\x99\xd9?'
p598
tp599
Rp600
ag6
(g10
S')\\\x8f\xc2\xf5(\xdc?'
p601
tp602
Rp603
ag6
(g10
S'\xe1z\x14\xaeG\xe1\xda?'
p604
tp605
Rp606
ag6
(g10
S'\xc3\xf5(\\\x8f\xc2\xd5?'
p607
tp608
Rp609
ag6
(g10
S'\xf6(\\\x8f\xc2\xf5\xd8?'
p610
tp611
Rp612
ag6
(g10
S'R\xb8\x1e\x85\xebQ\xd8?'
p613
tp614
Rp615
ag6
(g10
S'\x85\xebQ\xb8\x1e\x85\xdb?'
p616
tp617
Rp618
ag6
(g10
S'\x9a\x99\x99\x99\x99\x99\xd9?'
p619
tp620
Rp621
ag6
(g10
S'R\xb8\x1e\x85\xebQ\xd8?'
p622
tp623
Rp624
ag6
(g10
S'\xaeG\xe1z\x14\xae\xd7?'
p625
tp626
Rp627
ag6
(g10
S'\xf6(\\\x8f\xc2\xf5\xd8?'
p628
tp629
Rp630
ag6
(g10
S'R\xb8\x1e\x85\xebQ\xd8?'
p631
tp632
Rp633
ag6
(g10
S'\xf6(\\\x8f\xc2\xf5\xd8?'
p634
tp635
Rp636
ag6
(g10
S'R\xb8\x1e\x85\xebQ\xd8?'
p637
tp638
Rp639
ag6
(g10
S'\xaeG\xe1z\x14\xae\xd7?'
p640
tp641
Rp642
ag6
(g10
S'=\n\xd7\xa3p=\xda?'
p643
tp644
Rp645
ag6
(g10
S'\xaeG\xe1z\x14\xae\xd7?'
p646
tp647
Rp648
ag6
(g10
S'\xe1z\x14\xaeG\xe1\xda?'
p649
tp650
Rp651
ag6
(g10
S'\xe1z\x14\xaeG\xe1\xda?'
p652
tp653
Rp654
ag6
(g10
S'\x9a\x99\x99\x99\x99\x99\xd9?'
p655
tp656
Rp657
ag6
(g10
S'\xf6(\\\x8f\xc2\xf5\xd8?'
p658
tp659
Rp660
ag6
(g10
S'\xf6(\\\x8f\xc2\xf5\xd8?'
p661
tp662
Rp663
ag6
(g10
S'\x85\xebQ\xb8\x1e\x85\xdb?'
p664
tp665
Rp666
ag6
(g10
S'R\xb8\x1e\x85\xebQ\xd8?'
p667
tp668
Rp669
ag6
(g10
S'=\n\xd7\xa3p=\xda?'
p670
tp671
Rp672
ag6
(g10
S'R\xb8\x1e\x85\xebQ\xd8?'
p673
tp674
Rp675
ag6
(g10
S'\xf6(\\\x8f\xc2\xf5\xd8?'
p676
tp677
Rp678
ag6
(g10
S'\x9a\x99\x99\x99\x99\x99\xd9?'
p679
tp680
Rp681
ag6
(g10
S'R\xb8\x1e\x85\xebQ\xd8?'
p682
tp683
Rp684
aa(lp685
(lp686
g441
aF0.5883586890579574
aI16
aI2
aI59
aa(lp687
g441
aF0.21066969723834666
aI16
aI12
aI29
aa(lp688
g441
aF0.7783530999792269
aI12
aI3
aI80
aa(lp689
g444
aF0.9531977547142619
aI17
aI15
aI84
aa(lp690
g444
aF0.13536793049297285
aI5
aI1
aI62
aa(lp691
g441
aF0.8752134829844532
aI12
aI2
aI33
aa(lp692
g444
aF0.7600676095775721
aI29
aI21
aI46
aa(lp693
g441
aF0.8114776828216812
aI4
aI2
aI43
aa(lp694
g441
aF0.16636097276351114
aI5
aI2
aI93
aa(lp695
g444
aF0.1951151759848777
aI20
aI7
aI82
aa(lp696
g441
aF0.182169080146254
aI12
aI1
aI44
aa(lp697
g444
aF0.489156277983291
aI8
aI1
aI67
aa(lp698
g444
aF0.981790967694534
aI17
aI11
aI44
aa(lp699
g444
aF0.7065846729517434
aI11
aI7
aI58
aa(lp700
g444
aF0.18817319670783403
aI8
aI2
aI90
aa(lp701
g444
aF0.17693340538567692
aI4
aI7
aI35
aa(lp702
g444
aF0.3250956121762416
aI4
aI3
aI67
aa(lp703
g441
aF0.6088595316570365
aI15
aI1
aI55
aa(lp704
g441
aF0.47845252162602825
aI4
aI19
aI79
aa(lp705
g444
aF0.4456393725944665
aI26
aI7
aI17
aa(lp706
g441
aF0.19664918360518344
aI9
aI2
aI20
aa(lp707
g444
aF0.726798064953374
aI7
aI2
aI13
aa(lp708
g441
aF0.2804025922636485
aI9
aI2
aI96
aa(lp709
g441
aF0.34016618519143016
aI22
aI6
aI50
aa(lp710
g444
aF0.9190366920360338
aI30
aI1
aI38
aa(lp711
g444
aF0.8097041013464897
aI10
aI16
aI37
aa(lp712
g441
aF0.2352344275837028
aI4
aI10
aI15
aa(lp713
g441
aF0.51360190089206
aI19
aI2
aI78
aa(lp714
g444
aF0.23045551456834826
aI13
aI6
aI86
aa(lp715
g444
aF0.8168561296590822
aI25
aI15
aI96
aa(lp716
g444
aF0.9766097778855694
aI28
aI4
aI24
aa(lp717
g441
aF0.2603539202736357
aI2
aI4
aI27
aa(lp718
g441
aF0.9091576868792545
aI4
aI3
aI57
aa(lp719
g444
aF0.6576463249485985
aI15
aI5
aI44
aa(lp720
g441
aF0.1342309897773555
aI25
aI2
aI97
aa(lp721
g441
aF0.45792004098892003
aI9
aI4
aI22
aa(lp722
g441
aF0.12833711715080975
aI9
aI5
aI55
aa(lp723
g444
aF0.6472731341711158
aI8
aI1
aI51
aa(lp724
g444
aF0.7450135472165784
aI18
aI14
aI73
aa(lp725
g444
aF0.7047628134193318
aI9
aI2
aI52
aa(lp726
g444
aF0.5894128935477946
aI3
aI21
aI26
aa(lp727
g441
aF0.7412591281678454
aI28
aI10
aI13
aa(lp728
g441
aF0.3622209324125767
aI22
aI20
aI54
aa(lp729
g444
aF0.570298813947129
aI21
aI1
aI88
aa(lp730
g441
aF0.498858312716005
aI17
aI1
aI77
aa(lp731
g444
aF0.7869557366656272
aI26
aI1
aI13
aa(lp732
g444
aF0.4648458868770985
aI3
aI16
aI50
aa(lp733
g441
aF0.49928735069839514
aI7
aI4
aI10
aa(lp734
g444
aF0.7608816132144616
aI19
aI9
aI39
aa(lp735
g441
aF0.4601118125521788
aI7
aI3
aI84
aa(lp736
g441
aF0.8114430622391601
aI9
aI1
aI85
aa(lp737
g441
aF0.5655785584852536
aI14
aI18
aI72
aa(lp738
g444
aF0.41879058321378027
aI18
aI6
aI84
aa(lp739
g444
aF0.6560583197533053
aI2
aI2
aI14
aa(lp740
g444
aF0.2757707716596737
aI18
aI5
aI81
aa(lp741
g444
aF0.5987506797156908
aI2
aI3
aI68
aa(lp742
g444
aF0.14709344755762074
aI5
aI1
aI25
aa(lp743
g441
aF0.5696072394054864
aI4
aI1
aI29
aa(lp744
g444
aF0.4840397471049611
aI28
aI5
aI20
aa(lp745
g441
aF0.9106503605056591
aI14
aI1
aI71
aaaF581.5771749019623
asS'SVM'
p746
(lp747
(lp748
g6
(g10
S'{\x14\xaeG\xe1z\x84?'
p749
tp750
Rp751
ag6
(g10
S'{\x14\xaeG\xe1z\x84?'
p752
tp753
Rp754
ag6
(g10
S'{\x14\xaeG\xe1z\x84?'
p755
tp756
Rp757
ag6
(g10
S'\xb8\x1e\x85\xebQ\xb8\x9e?'
p758
tp759
Rp760
ag6
(g10
S'\xb8\x1e\x85\xebQ\xb8\x9e?'
p761
tp762
Rp763
ag6
(g10
S'\xb8\x1e\x85\xebQ\xb8\x9e?'
p764
tp765
Rp766
ag6
(g10
S'\x00\x00\x00\x00\x00\x00\x00\x00'
p767
tp768
Rp769
ag6
(g10
S'{\x14\xaeG\xe1z\x84?'
p770
tp771
Rp772
ag6
(g10
S'{\x14\xaeG\xe1z\x84?'
p773
tp774
Rp775
ag6
(g10
S'{\x14\xaeG\xe1z\x84?'
p776
tp777
Rp778
ag6
(g10
S'\xb8\x1e\x85\xebQ\xb8\x9e?'
p779
tp780
Rp781
ag6
(g10
S'\xb8\x1e\x85\xebQ\xb8\x9e?'
p782
tp783
Rp784
ag6
(g10
S'{\x14\xaeG\xe1z\x84?'
p785
tp786
Rp787
ag6
(g10
S'{\x14\xaeG\xe1z\x84?'
p788
tp789
Rp790
ag6
(g10
S'\xb8\x1e\x85\xebQ\xb8\x9e?'
p791
tp792
Rp793
ag6
(g10
S'\x9a\x99\x99\x99\x99\x99\xa9?'
p794
tp795
Rp796
ag6
(g10
S'{\x14\xaeG\xe1z\x84?'
p797
tp798
Rp799
ag6
(g10
S'\xb8\x1e\x85\xebQ\xb8\x9e?'
p800
tp801
Rp802
ag6
(g10
S'\xb8\x1e\x85\xebQ\xb8\x9e?'
p803
tp804
Rp805
ag6
(g10
S'{\x14\xaeG\xe1z\x84?'
p806
tp807
Rp808
ag6
(g10
S'{\x14\xaeG\xe1z\x84?'
p809
tp810
Rp811
ag6
(g10
S'\xb8\x1e\x85\xebQ\xb8\x9e?'
p812
tp813
Rp814
ag6
(g10
S'\xb8\x1e\x85\xebQ\xb8\x9e?'
p815
tp816
Rp817
ag6
(g10
S'\xb8\x1e\x85\xebQ\xb8\x9e?'
p818
tp819
Rp820
ag6
(g10
S'\xb8\x1e\x85\xebQ\xb8\x9e?'
p821
tp822
Rp823
ag6
(g10
S'\xb8\x1e\x85\xebQ\xb8\x9e?'
p824
tp825
Rp826
ag6
(g10
S'\xb8\x1e\x85\xebQ\xb8\x9e?'
p827
tp828
Rp829
ag6
(g10
S'\xb8\x1e\x85\xebQ\xb8\x9e?'
p830
tp831
Rp832
ag6
(g10
S'\xb8\x1e\x85\xebQ\xb8\x9e?'
p833
tp834
Rp835
ag6
(g10
S'{\x14\xaeG\xe1z\x84?'
p836
tp837
Rp838
ag6
(g10
S'\xb8\x1e\x85\xebQ\xb8\x9e?'
p839
tp840
Rp841
ag6
(g10
S'\xb8\x1e\x85\xebQ\xb8\x9e?'
p842
tp843
Rp844
ag6
(g10
S'{\x14\xaeG\xe1z\x84?'
p845
tp846
Rp847
ag6
(g10
S'\xb8\x1e\x85\xebQ\xb8\x9e?'
p848
tp849
Rp850
ag6
(g10
S'{\x14\xaeG\xe1z\x84?'
p851
tp852
Rp853
ag6
(g10
S'{\x14\xaeG\xe1z\x84?'
p854
tp855
Rp856
ag6
(g10
S'\x9a\x99\x99\x99\x99\x99\xa9?'
p857
tp858
Rp859
ag6
(g10
S'\xb8\x1e\x85\xebQ\xb8\x9e?'
p860
tp861
Rp862
ag6
(g10
S'\xb8\x1e\x85\xebQ\xb8\x9e?'
p863
tp864
Rp865
ag6
(g10
S'\xb8\x1e\x85\xebQ\xb8\x9e?'
p866
tp867
Rp868
ag6
(g10
S'{\x14\xaeG\xe1z\x84?'
p869
tp870
Rp871
ag6
(g10
S'\x9a\x99\x99\x99\x99\x99\xa9?'
p872
tp873
Rp874
ag6
(g10
S'\xb8\x1e\x85\xebQ\xb8\x9e?'
p875
tp876
Rp877
ag6
(g10
S'\x9a\x99\x99\x99\x99\x99\xa9?'
p878
tp879
Rp880
ag6
(g10
S'\xb8\x1e\x85\xebQ\xb8\x9e?'
p881
tp882
Rp883
ag6
(g10
S'{\x14\xaeG\xe1z\x84?'
p884
tp885
Rp886
ag6
(g10
S'\xb8\x1e\x85\xebQ\xb8\x9e?'
p887
tp888
Rp889
ag6
(g10
S'\xb8\x1e\x85\xebQ\xb8\x9e?'
p890
tp891
Rp892
ag6
(g10
S'{\x14\xaeG\xe1z\x84?'
p893
tp894
Rp895
ag6
(g10
S'\x00\x00\x00\x00\x00\x00\x00\x00'
p896
tp897
Rp898
ag6
(g10
S'\xb8\x1e\x85\xebQ\xb8\x9e?'
p899
tp900
Rp901
ag6
(g10
S'\xb8\x1e\x85\xebQ\xb8\x9e?'
p902
tp903
Rp904
ag6
(g10
S'\xb8\x1e\x85\xebQ\xb8\x9e?'
p905
tp906
Rp907
ag6
(g10
S'\xb8\x1e\x85\xebQ\xb8\x9e?'
p908
tp909
Rp910
ag6
(g10
S'\xb8\x1e\x85\xebQ\xb8\x9e?'
p911
tp912
Rp913
ag6
(g10
S'\xb8\x1e\x85\xebQ\xb8\x9e?'
p914
tp915
Rp916
ag6
(g10
S'\x00\x00\x00\x00\x00\x00\x00\x00'
p917
tp918
Rp919
ag6
(g10
S'\xb8\x1e\x85\xebQ\xb8\x9e?'
p920
tp921
Rp922
ag6
(g10
S'\xb8\x1e\x85\xebQ\xb8\x9e?'
p923
tp924
Rp925
ag6
(g10
S'\xb8\x1e\x85\xebQ\xb8\x9e?'
p926
tp927
Rp928
aa(lp929
(lp930
I74
aS'rbf'
p931
aF0.6967688795557608
aF0.9063282874119536
aa(lp932
I39
ag931
aF0.45186822202299426
aF0.7912848707864185
aa(lp933
I9
ag931
aF0.7660341584388578
aF0.8022786868208694
aa(lp934
I39
ag931
aF0.7443924136060546
aF0.39116148428088104
aa(lp935
I58
ag931
aF0.8100018067287591
aF0.2602829323752459
aa(lp936
I68
ag931
aF0.22896395961280208
aF0.6200685791908273
aa(lp937
I16
aS'sigmoid'
p938
aF0.2600382344259873
aF0.46682223027682945
aa(lp939
I78
ag931
aF0.6496676817691772
aF0.9121499210095373
aa(lp940
I13
ag931
aF0.4179043316775569
aF0.9673725670258079
aa(lp941
I47
ag931
aF0.6840643462799825
aF0.9960295493143416
aa(lp942
I80
ag931
aF0.8714744788248594
aF0.32868300706301334
aa(lp943
I58
ag931
aF0.26944206880790644
aF0.20954227959099037
aa(lp944
I39
ag931
aF0.9938597313170923
aF0.8114960879826875
aa(lp945
I30
ag931
aF0.5576875472203603
aF0.9734980188640513
aa(lp946
I5
ag931
aF0.8384650088230237
aF0.5032973829387011
aa(lp947
I47
ag931
aF0.27617607719674486
aF0.15833028078292105
aa(lp948
I86
ag931
aF0.9486230293568865
aF0.9635363196109673
aa(lp949
I19
ag931
aF0.9073055123824421
aF0.535724204068458
aa(lp950
I66
ag931
aF0.2555791791477373
aF0.5862717157668146
aa(lp951
I35
ag931
aF0.8749641197956105
aF0.9631266210663917
aa(lp952
I42
ag931
aF0.9533047400137274
aF0.9763868903416538
aa(lp953
I69
ag931
aF0.49873967294645516
aF0.23117605966220284
aa(lp954
I68
ag931
aF0.5333137580643326
aF0.28027685030543925
aa(lp955
I62
ag931
aF0.5133713600656249
aF0.3290414822233147
aa(lp956
I7
ag931
aF0.672299938903355
aF0.4459279273519008
aa(lp957
I32
ag931
aF0.7116108309595529
aF0.7642660689074547
aa(lp958
I54
ag931
aF0.9088382252969642
aF0.3873581178581922
aa(lp959
I91
ag931
aF0.7409031174516941
aF0.3156303223255397
aa(lp960
I82
ag931
aF0.5738943816489176
aF0.5525284654061693
aa(lp961
I51
ag931
aF0.7167272421518667
aF0.852093920543581
aa(lp962
I4
ag931
aF0.5552278746367768
aF0.3446551339628868
aa(lp963
I55
ag931
aF0.4324211335313818
aF0.3251594693236513
aa(lp964
I86
ag931
aF0.8939449092639883
aF0.7789899895615701
aa(lp965
I31
ag931
aF0.22735449949837105
aF0.7230708790607002
aa(lp966
I89
ag931
aF0.14370663752172447
aF0.8433327522562881
aa(lp967
I1
ag931
aF0.8596087716555338
aF0.5950224036075212
aa(lp968
I86
ag931
aF0.9363047995158625
aF0.19053720728105572
aa(lp969
I33
ag931
aF0.5165587261873141
aF0.510074670055197
aa(lp970
I89
ag931
aF0.8515050583032221
aF0.4803018571072605
aa(lp971
I73
ag931
aF0.3333757426952134
aF0.6362743713168073
aa(lp972
I9
ag931
aF0.19179817575392788
aF0.7810404704331922
aa(lp973
I23
ag931
aF0.36095989789044003
aF0.14670129971588203
aa(lp974
I67
ag931
aF0.8471996619033436
aF0.5831095155442244
aa(lp975
I61
ag938
aF0.8180001035826306
aF0.14454141943251267
aa(lp976
I9
ag931
aF0.9484702017412382
aF0.5130329343867371
aa(lp977
I85
ag931
aF0.51038538269491
aF0.8271032095324646
aa(lp978
I95
ag931
aF0.2280233509007024
aF0.35270855370260634
aa(lp979
I39
ag931
aF0.7117589026316373
aF0.5666695034628572
aa(lp980
I68
ag931
aF0.8030402261577471
aF0.9566898462266031
aa(lp981
I7
ag938
aF0.6206321514076991
aF0.3874581756474097
aa(lp982
I20
ag931
aF0.25052279537276184
aF0.3887566767381784
aa(lp983
I62
ag931
aF0.36299135758194345
aF0.3692202749490098
aa(lp984
I78
ag931
aF0.8628788202230848
aF0.26289176799495095
aa(lp985
I92
ag931
aF0.6915446749796749
aF0.6987376084074244
aa(lp986
I40
ag931
aF0.6984647376469172
aF0.6835458009077352
aa(lp987
I19
ag931
aF0.9892889145730906
aF0.4919592815924032
aa(lp988
I81
ag938
aF0.12367845618351371
aF0.7250710126923572
aa(lp989
I22
ag931
aF0.1964726398273563
aF0.46718380537519866
aa(lp990
I60
ag931
aF0.34448216754058886
aF0.5303993303515013
aa(lp991
I29
ag931
aF0.5933018310847707
aF0.7488779964923132
aaaF3.034677028656006
ass.