(dp0
S'f1'
p1
(dp2
S'RF'
p3
(lp4
(lp5
cnumpy.core.multiarray
scalar
p6
(cnumpy
dtype
p7
(S'f8'
p8
I0
I1
tp9
Rp10
(I3
S'<'
p11
NNNI-1
I-1
I0
tp12
bS'\x85\xebQ\xb8\x1e\x85\xdb?'
p13
tp14
Rp15
ag6
(g10
S')\\\x8f\xc2\xf5(\xdc?'
p16
tp17
Rp18
ag6
(g10
S'\xe1z\x14\xaeG\xe1\xda?'
p19
tp20
Rp21
ag6
(g10
S')\\\x8f\xc2\xf5(\xdc?'
p22
tp23
Rp24
ag6
(g10
S'q=\n\xd7\xa3p\xdd?'
p25
tp26
Rp27
ag6
(g10
S'=\n\xd7\xa3p=\xda?'
p28
tp29
Rp30
ag6
(g10
S'\xe1z\x14\xaeG\xe1\xda?'
p31
tp32
Rp33
ag6
(g10
S')\\\x8f\xc2\xf5(\xdc?'
p34
tp35
Rp36
ag6
(g10
S'\xcd\xcc\xcc\xcc\xcc\xcc\xdc?'
p37
tp38
Rp39
ag6
(g10
S'\xcd\xcc\xcc\xcc\xcc\xcc\xdc?'
p40
tp41
Rp42
ag6
(g10
S'\xcd\xcc\xcc\xcc\xcc\xcc\xdc?'
p43
tp44
Rp45
ag6
(g10
S')\\\x8f\xc2\xf5(\xdc?'
p46
tp47
Rp48
ag6
(g10
S'q=\n\xd7\xa3p\xdd?'
p49
tp50
Rp51
ag6
(g10
S'\x85\xebQ\xb8\x1e\x85\xdb?'
p52
tp53
Rp54
ag6
(g10
S'q=\n\xd7\xa3p\xdd?'
p55
tp56
Rp57
ag6
(g10
S'\xe1z\x14\xaeG\xe1\xda?'
p58
tp59
Rp60
ag6
(g10
S'\xe1z\x14\xaeG\xe1\xda?'
p61
tp62
Rp63
ag6
(g10
S'\xcd\xcc\xcc\xcc\xcc\xcc\xdc?'
p64
tp65
Rp66
ag6
(g10
S')\\\x8f\xc2\xf5(\xdc?'
p67
tp68
Rp69
ag6
(g10
S')\\\x8f\xc2\xf5(\xdc?'
p70
tp71
Rp72
ag6
(g10
S'=\n\xd7\xa3p=\xda?'
p73
tp74
Rp75
ag6
(g10
S'\x85\xebQ\xb8\x1e\x85\xdb?'
p76
tp77
Rp78
ag6
(g10
S'\xcd\xcc\xcc\xcc\xcc\xcc\xdc?'
p79
tp80
Rp81
ag6
(g10
S')\\\x8f\xc2\xf5(\xdc?'
p82
tp83
Rp84
ag6
(g10
S'\xcd\xcc\xcc\xcc\xcc\xcc\xdc?'
p85
tp86
Rp87
ag6
(g10
S'=\n\xd7\xa3p=\xda?'
p88
tp89
Rp90
ag6
(g10
S'\xe1z\x14\xaeG\xe1\xda?'
p91
tp92
Rp93
ag6
(g10
S'=\n\xd7\xa3p=\xda?'
p94
tp95
Rp96
ag6
(g10
S'\xcd\xcc\xcc\xcc\xcc\xcc\xdc?'
p97
tp98
Rp99
ag6
(g10
S')\\\x8f\xc2\xf5(\xdc?'
p100
tp101
Rp102
ag6
(g10
S'\xe1z\x14\xaeG\xe1\xda?'
p103
tp104
Rp105
ag6
(g10
S'\xe1z\x14\xaeG\xe1\xda?'
p106
tp107
Rp108
ag6
(g10
S'\xe1z\x14\xaeG\xe1\xda?'
p109
tp110
Rp111
ag6
(g10
S'q=\n\xd7\xa3p\xdd?'
p112
tp113
Rp114
ag6
(g10
S')\\\x8f\xc2\xf5(\xdc?'
p115
tp116
Rp117
ag6
(g10
S'\x85\xebQ\xb8\x1e\x85\xdb?'
p118
tp119
Rp120
ag6
(g10
S')\\\x8f\xc2\xf5(\xdc?'
p121
tp122
Rp123
ag6
(g10
S'\xcd\xcc\xcc\xcc\xcc\xcc\xdc?'
p124
tp125
Rp126
ag6
(g10
S'=\n\xd7\xa3p=\xda?'
p127
tp128
Rp129
ag6
(g10
S'=\n\xd7\xa3p=\xda?'
p130
tp131
Rp132
ag6
(g10
S'\xcd\xcc\xcc\xcc\xcc\xcc\xdc?'
p133
tp134
Rp135
ag6
(g10
S'\xcd\xcc\xcc\xcc\xcc\xcc\xdc?'
p136
tp137
Rp138
ag6
(g10
S'\xcd\xcc\xcc\xcc\xcc\xcc\xdc?'
p139
tp140
Rp141
ag6
(g10
S'\x9a\x99\x99\x99\x99\x99\xd9?'
p142
tp143
Rp144
ag6
(g10
S')\\\x8f\xc2\xf5(\xdc?'
p145
tp146
Rp147
ag6
(g10
S'=\n\xd7\xa3p=\xda?'
p148
tp149
Rp150
ag6
(g10
S')\\\x8f\xc2\xf5(\xdc?'
p151
tp152
Rp153
ag6
(g10
S')\\\x8f\xc2\xf5(\xdc?'
p154
tp155
Rp156
ag6
(g10
S'q=\n\xd7\xa3p\xdd?'
p157
tp158
Rp159
ag6
(g10
S'q=\n\xd7\xa3p\xdd?'
p160
tp161
Rp162
ag6
(g10
S'\xe1z\x14\xaeG\xe1\xda?'
p163
tp164
Rp165
ag6
(g10
S')\\\x8f\xc2\xf5(\xdc?'
p166
tp167
Rp168
ag6
(g10
S'\x85\xebQ\xb8\x1e\x85\xdb?'
p169
tp170
Rp171
ag6
(g10
S'q=\n\xd7\xa3p\xdd?'
p172
tp173
Rp174
ag6
(g10
S'q=\n\xd7\xa3p\xdd?'
p175
tp176
Rp177
ag6
(g10
S'q=\n\xd7\xa3p\xdd?'
p178
tp179
Rp180
ag6
(g10
S'\xb8\x1e\x85\xebQ\xb8\xde?'
p181
tp182
Rp183
ag6
(g10
S')\\\x8f\xc2\xf5(\xdc?'
p184
tp185
Rp186
ag6
(g10
S'\xe1z\x14\xaeG\xe1\xda?'
p187
tp188
Rp189
ag6
(g10
S')\\\x8f\xc2\xf5(\xdc?'
p190
tp191
Rp192
aa(lp193
(lp194
S'entropy'
p195
aF0.8196531757626184
aI19
aI14
aI28
aa(lp196
g195
aF0.8693491739048277
aI23
aI8
aI41
aa(lp197
S'gini'
p198
aF0.9281513126776139
aI21
aI17
aI16
aa(lp199
g195
aF0.2133840732652053
aI8
aI1
aI48
aa(lp200
g198
aF0.19120818788005722
aI27
aI14
aI63
aa(lp201
g195
aF0.4621579863050257
aI7
aI1
aI71
aa(lp202
g198
aF0.6507228275176825
aI3
aI7
aI13
aa(lp203
g198
aF0.36567997134041796
aI29
aI19
aI60
aa(lp204
g198
aF0.6143004992165098
aI27
aI10
aI21
aa(lp205
g195
aF0.6448482375471932
aI6
aI7
aI50
aa(lp206
g195
aF0.37538027160824095
aI19
aI4
aI39
aa(lp207
g198
aF0.9489536640461436
aI25
aI15
aI85
aa(lp208
g195
aF0.6288898078280196
aI13
aI18
aI48
aa(lp209
g195
aF0.6349985888500322
aI25
aI13
aI71
aa(lp210
g198
aF0.548073181409706
aI29
aI12
aI66
aa(lp211
g195
aF0.2979214655986021
aI3
aI1
aI94
aa(lp212
g195
aF0.5021642837039758
aI21
aI8
aI67
aa(lp213
g195
aF0.9445744958835204
aI4
aI20
aI100
aa(lp214
g198
aF0.9705286315735169
aI21
aI16
aI84
aa(lp215
g195
aF0.8302329632393546
aI21
aI14
aI17
aa(lp216
g195
aF0.9647721393822528
aI23
aI11
aI21
aa(lp217
g195
aF0.3465954676796221
aI4
aI4
aI47
aa(lp218
g195
aF0.33208849641270066
aI7
aI12
aI74
aa(lp219
g198
aF0.7752669189543254
aI5
aI20
aI37
aa(lp220
g195
aF0.5736564677960345
aI9
aI18
aI77
aa(lp221
g198
aF0.8083612259777734
aI30
aI1
aI38
aa(lp222
g198
aF0.9373162124627972
aI19
aI7
aI25
aa(lp223
g195
aF0.8146495738827991
aI7
aI7
aI13
aa(lp224
g195
aF0.4797906413765318
aI18
aI8
aI90
aa(lp225
g195
aF0.29707713340112707
aI17
aI5
aI63
aa(lp226
g198
aF0.8127281367467722
aI26
aI3
aI93
aa(lp227
g195
aF0.6843596662362325
aI19
aI21
aI30
aa(lp228
g198
aF0.9236262192028549
aI21
aI3
aI97
aa(lp229
g198
aF0.5002833112283903
aI26
aI19
aI19
aa(lp230
g198
aF0.16271274570094535
aI16
aI2
aI73
aa(lp231
g198
aF0.3123700733629582
aI19
aI6
aI19
aa(lp232
g195
aF0.36584369198967936
aI27
aI3
aI74
aa(lp233
g195
aF0.9700482664569124
aI10
aI16
aI49
aa(lp234
g195
aF0.7352398568443533
aI14
aI1
aI74
aa(lp235
g195
aF0.770942670434279
aI11
aI3
aI47
aa(lp236
g195
aF0.8342139056518438
aI29
aI15
aI57
aa(lp237
g198
aF0.355828725487104
aI23
aI19
aI19
aa(lp238
g198
aF0.7060142773535002
aI21
aI16
aI85
aa(lp239
g195
aF0.888717897810977
aI16
aI1
aI46
aa(lp240
g198
aF0.9204406165982038
aI11
aI21
aI56
aa(lp241
g198
aF0.6162878661094772
aI6
aI8
aI24
aa(lp242
g198
aF0.3039690329695253
aI18
aI8
aI27
aa(lp243
g195
aF0.447077118812077
aI17
aI2
aI79
aa(lp244
g195
aF0.46939081517686876
aI25
aI16
aI58
aa(lp245
g198
aF0.5612390941051401
aI4
aI7
aI14
aa(lp246
g195
aF0.5028096294746931
aI2
aI4
aI60
aa(lp247
g195
aF0.5247416066967165
aI6
aI10
aI49
aa(lp248
g195
aF0.7155310898184312
aI10
aI10
aI16
aa(lp249
g198
aF0.63105338546429
aI28
aI15
aI100
aa(lp250
g195
aF0.45886423645734165
aI12
aI11
aI19
aa(lp251
g195
aF0.30468404342885763
aI25
aI18
aI58
aa(lp252
g195
aF0.27935154222307734
aI8
aI21
aI18
aa(lp253
g195
aF0.8069987258171032
aI17
aI10
aI89
aa(lp254
g195
aF0.9831828150848789
aI20
aI2
aI66
aa(lp255
g195
aF0.3800121735680907
aI18
aI3
aI23
aaaF209.56887793540955
ass.