(dp0
S'f1'
p1
(dp2
S'KNN'
p3
(lp4
(lp5
cnumpy.core.multiarray
scalar
p6
(cnumpy
dtype
p7
(S'f8'
p8
I0
I1
tp9
Rp10
(I3
S'<'
p11
NNNI-1
I-1
I0
tp12
bS'\x9a\x99\x99\x99\x99\x99\xc9?'
p13
tp14
Rp15
ag6
(g10
S'\xe1z\x14\xaeG\xe1\xca?'
p16
tp17
Rp18
ag6
(g10
S'\x9a\x99\x99\x99\x99\x99\xc9?'
p19
tp20
Rp21
ag6
(g10
S'\x9a\x99\x99\x99\x99\x99\xc9?'
p22
tp23
Rp24
ag6
(g10
S'\x9a\x99\x99\x99\x99\x99\xc9?'
p25
tp26
Rp27
ag6
(g10
S'\x9a\x99\x99\x99\x99\x99\xc9?'
p28
tp29
Rp30
ag6
(g10
S'\x9a\x99\x99\x99\x99\x99\xc9?'
p31
tp32
Rp33
ag6
(g10
S'\x9a\x99\x99\x99\x99\x99\xc9?'
p34
tp35
Rp36
ag6
(g10
S'\x9a\x99\x99\x99\x99\x99\xc9?'
p37
tp38
Rp39
ag6
(g10
S'\xe1z\x14\xaeG\xe1\xca?'
p40
tp41
Rp42
ag6
(g10
S'\x9a\x99\x99\x99\x99\x99\xc9?'
p43
tp44
Rp45
ag6
(g10
S'\xe1z\x14\xaeG\xe1\xca?'
p46
tp47
Rp48
ag6
(g10
S'\n\xd7\xa3p=\n\xc7?'
p49
tp50
Rp51
ag6
(g10
S'\xe1z\x14\xaeG\xe1\xca?'
p52
tp53
Rp54
ag6
(g10
S'\x9a\x99\x99\x99\x99\x99\xc9?'
p55
tp56
Rp57
ag6
(g10
S'\x9a\x99\x99\x99\x99\x99\xc9?'
p58
tp59
Rp60
ag6
(g10
S'\x9a\x99\x99\x99\x99\x99\xc9?'
p61
tp62
Rp63
ag6
(g10
S'\xe1z\x14\xaeG\xe1\xca?'
p64
tp65
Rp66
ag6
(g10
S'\x9a\x99\x99\x99\x99\x99\xc9?'
p67
tp68
Rp69
ag6
(g10
S'R\xb8\x1e\x85\xebQ\xc8?'
p70
tp71
Rp72
aa(lp73
(lp74
I2
aS'distance'
p75
aa(lp76
I3
ag75
aa(lp77
I5
ag75
aa(lp78
I2
ag75
aa(lp79
I6
ag75
aa(lp80
I6
ag75
aa(lp81
I2
ag75
aa(lp82
I6
ag75
aa(lp83
I2
ag75
aa(lp84
I3
ag75
aa(lp85
I2
ag75
aa(lp86
I3
ag75
aa(lp87
I9
ag75
aa(lp88
I4
ag75
aa(lp89
I2
ag75
aa(lp90
I5
ag75
aa(lp91
I2
ag75
aa(lp92
I3
ag75
aa(lp93
I6
ag75
aa(lp94
I8
ag75
aaa(lp95
I9
aI13
aI15
aI12
aI13
aI13
aI10
aI10
aI13
aI13
aI14
aI14
aI12
aI13
aI13
aI8
aI9
aI14
aI13
aI8
aa(lp96
F0.12639379501342773
aF0.1538708209991455
aF0.16837096214294434
aF0.1485910415649414
aF0.15512895584106445
aF0.15802407264709473
aF0.1361989974975586
aF0.13476800918579102
aF0.15566778182983398
aF0.15529513359069824
aF0.1601700782775879
aF0.16208696365356445
aF0.15260100364685059
aF0.15407299995422363
aF0.15392303466796875
aF0.12137508392333984
aF0.127655029296875
aF0.16196203231811523
aF0.1574420928955078
aF0.12011909484863281
aasS'DTC'
p97
(lp98
(lp99
g6
(g10
S'\xa4p=\n\xd7\xa3\xc0?'
p100
tp101
Rp102
ag6
(g10
S'\n\xd7\xa3p=\n\xc7?'
p103
tp104
Rp105
ag6
(g10
S'\x9a\x99\x99\x99\x99\x99\xc9?'
p106
tp107
Rp108
ag6
(g10
S'\xe1z\x14\xaeG\xe1\xca?'
p109
tp110
Rp111
ag6
(g10
S'\x00\x00\x00\x00\x00\x00\x00\x00'
p112
tp113
Rp114
ag6
(g10
S'{\x14\xaeG\xe1z\xb4?'
p115
tp116
Rp117
ag6
(g10
S'\xc3\xf5(\\\x8f\xc2\xc5?'
p118
tp119
Rp120
ag6
(g10
S'\xa4p=\n\xd7\xa3\xc0?'
p121
tp122
Rp123
ag6
(g10
S'\xb8\x1e\x85\xebQ\xb8\xbe?'
p124
tp125
Rp126
ag6
(g10
S'\xa4p=\n\xd7\xa3\xc0?'
p127
tp128
Rp129
ag6
(g10
S'\xa4p=\n\xd7\xa3\xc0?'
p130
tp131
Rp132
ag6
(g10
S'\xa4p=\n\xd7\xa3\xc0?'
p133
tp134
Rp135
ag6
(g10
S'{\x14\xaeG\xe1z\xb4?'
p136
tp137
Rp138
ag6
(g10
S'\xa4p=\n\xd7\xa3\xc0?'
p139
tp140
Rp141
ag6
(g10
S'{\x14\xaeG\xe1z\xc4?'
p142
tp143
Rp144
ag6
(g10
S'{\x14\xaeG\xe1z\xc4?'
p145
tp146
Rp147
ag6
(g10
S'\xa4p=\n\xd7\xa3\xc0?'
p148
tp149
Rp150
ag6
(g10
S'R\xb8\x1e\x85\xebQ\xc8?'
p151
tp152
Rp153
ag6
(g10
S'R\xb8\x1e\x85\xebQ\xc8?'
p154
tp155
Rp156
ag6
(g10
S'\xc3\xf5(\\\x8f\xc2\xc5?'
p157
tp158
Rp159
aa(lp160
(lp161
S'gini'
p162
aF0.8258379526391577
aI12
aI8
aI9
aa(lp163
g162
aF0.8552310518683747
aI18
aI3
aI12
aa(lp164
S'entropy'
p165
aF0.3290889261369597
aI27
aI12
aI12
aa(lp166
g165
aF0.42642544328588694
aI14
aI5
aI10
aa(lp167
g165
aF0.21572402008967817
aI22
aI15
aI21
aa(lp168
g162
aF0.716361040721789
aI18
aI2
aI6
aa(lp169
g165
aF0.5960592318200614
aI3
aI9
aI14
aa(lp170
g165
aF0.357126349590003
aI3
aI13
aI2
aa(lp171
g162
aF0.6425652849449536
aI17
aI1
aI5
aa(lp172
g162
aF0.6260011401949359
aI9
aI1
aI6
aa(lp173
g162
aF0.35519040852329176
aI7
aI5
aI1
aa(lp174
g162
aF0.9683136872885821
aI30
aI8
aI10
aa(lp175
g162
aF0.9469120866246132
aI6
aI9
aI4
aa(lp176
g162
aF0.9864462348962043
aI18
aI14
aI3
aa(lp177
g162
aF0.6970065164953058
aI7
aI12
aI13
aa(lp178
g165
aF0.3518157346850268
aI21
aI9
aI6
aa(lp179
g165
aF0.4916899282845836
aI22
aI13
aI16
aa(lp180
g162
aF0.8161345944232764
aI22
aI1
aI13
aa(lp181
g162
aF0.8912980515311208
aI23
aI4
aI6
aa(lp182
g162
aF0.5582151321650792
aI19
aI12
aI11
aaa(lp183
I10
aI9
aI9
aI6
aI14
aI10
aI10
aI14
aI16
aI8
aI9
aI8
aI9
aI8
aI9
aI10
aI12
aI12
aI10
aI10
aa(lp184
F0.11204195022583008
aF0.10914301872253418
aF0.10864996910095215
aF0.09077692031860352
aF0.1376969814300537
aF0.11451601982116699
aF0.11798596382141113
aF0.13799691200256348
aF0.1507120132446289
aF0.10279393196105957
aF0.10687899589538574
aF0.09943699836730957
aF0.10804915428161621
aF0.10624313354492188
aF0.10872101783752441
aF0.12178611755371094
aF0.1355609893798828
aF0.12522602081298828
aF0.12258791923522949
aF0.11763787269592285
aasS'RF'
p185
(lp186
(lp187
g6
(g10
S'\xc3\xf5(\\\x8f\xc2\xc5?'
p188
tp189
Rp190
ag6
(g10
S'{\x14\xaeG\xe1z\xb4?'
p191
tp192
Rp193
ag6
(g10
S'{\x14\xaeG\xe1z\xb4?'
p194
tp195
Rp196
ag6
(g10
S')\\\x8f\xc2\xf5(\xbc?'
p197
tp198
Rp199
ag6
(g10
S'{\x14\xaeG\xe1z\xb4?'
p200
tp201
Rp202
ag6
(g10
S'{\x14\xaeG\xe1z\xb4?'
p203
tp204
Rp205
ag6
(g10
S'\xecQ\xb8\x1e\x85\xeb\xc1?'
p206
tp207
Rp208
ag6
(g10
S'{\x14\xaeG\xe1z\xb4?'
p209
tp210
Rp211
ag6
(g10
S'\x9a\x99\x99\x99\x99\x99\xa9?'
p212
tp213
Rp214
ag6
(g10
S'{\x14\xaeG\xe1z\xb4?'
p215
tp216
Rp217
ag6
(g10
S'\xb8\x1e\x85\xebQ\xb8\xae?'
p218
tp219
Rp220
ag6
(g10
S'{\x14\xaeG\xe1z\xb4?'
p221
tp222
Rp223
ag6
(g10
S'{\x14\xaeG\xe1z\xc4?'
p224
tp225
Rp226
ag6
(g10
S'\x9a\x99\x99\x99\x99\x99\xa9?'
p227
tp228
Rp229
ag6
(g10
S'\n\xd7\xa3p=\n\xb7?'
p230
tp231
Rp232
ag6
(g10
S'{\x14\xaeG\xe1z\xb4?'
p233
tp234
Rp235
ag6
(g10
S'\xecQ\xb8\x1e\x85\xeb\xb1?'
p236
tp237
Rp238
ag6
(g10
S'\x9a\x99\x99\x99\x99\x99\xa9?'
p239
tp240
Rp241
ag6
(g10
S'{\x14\xaeG\xe1z\xb4?'
p242
tp243
Rp244
ag6
(g10
S'\xecQ\xb8\x1e\x85\xeb\xb1?'
p245
tp246
Rp247
aa(lp248
(lp249
g162
aF0.283106394072425
aI8
aI1
aI66
aa(lp250
g162
aF0.6239691531381949
aI6
aI6
aI89
aa(lp251
g162
aF0.7812815321363162
aI15
aI8
aI79
aa(lp252
g165
aF0.8958057566702141
aI15
aI3
aI58
aa(lp253
g162
aF0.8785035920729044
aI26
aI6
aI45
aa(lp254
g165
aF0.9509100318388349
aI20
aI6
aI91
aa(lp255
g162
aF0.8290542467549532
aI16
aI1
aI11
aa(lp256
g162
aF0.9763315858575055
aI5
aI9
aI46
aa(lp257
g165
aF0.35001359568777746
aI15
aI10
aI77
aa(lp258
g162
aF0.4895910735372224
aI20
aI5
aI27
aa(lp259
g165
aF0.9166282914296938
aI17
aI10
aI43
aa(lp260
g162
aF0.8805618957094488
aI30
aI4
aI45
aa(lp261
g162
aF0.5428922063820201
aI8
aI1
aI81
aa(lp262
g162
aF0.3885216860784213
aI18
aI12
aI45
aa(lp263
g165
aF0.755228799004885
aI16
aI5
aI71
aa(lp264
g162
aF0.4766979953838989
aI6
aI5
aI76
aa(lp265
g165
aF0.9231260170623996
aI25
aI3
aI43
aa(lp266
g162
aF0.8706213498224954
aI8
aI9
aI20
aa(lp267
g162
aF0.7109668411358265
aI18
aI3
aI50
aa(lp268
g162
aF0.32992204773073436
aI10
aI7
aI71
aaa(lp269
I12
aI8
aI9
aI10
aI10
aI13
aI9
aI12
aI14
aI13
aI10
aI10
aI9
aI12
aI10
aI10
aI9
aI9
aI9
aI10
aa(lp270
F23.65220284461975
aF18.922916889190674
aF20.13811492919922
aF20.802572011947632
aF21.449608087539673
aF23.522853136062622
aF20.037643909454346
aF23.485005140304565
aF25.7448570728302
aF24.763269901275635
aF21.33547592163086
aF21.741740942001343
aF21.31520700454712
aF24.2541720867157
aF21.820852041244507
aF21.498398065567017
aF21.358839988708496
aF20.397814989089966
aF20.546533823013306
aF21.0489661693573
aasS'SVM'
p271
(lp272
(lp273
g6
(g10
S'\xecQ\xb8\x1e\x85\xeb\xc1?'
p274
tp275
Rp276
ag6
(g10
S'\xecQ\xb8\x1e\x85\xeb\xc1?'
p277
tp278
Rp279
ag6
(g10
S'\xecQ\xb8\x1e\x85\xeb\xc1?'
p280
tp281
Rp282
ag6
(g10
S'\xa4p=\n\xd7\xa3\xc0?'
p283
tp284
Rp285
ag6
(g10
S'\xa4p=\n\xd7\xa3\xc0?'
p286
tp287
Rp288
ag6
(g10
S'\xa4p=\n\xd7\xa3\xc0?'
p289
tp290
Rp291
ag6
(g10
S'\xecQ\xb8\x1e\x85\xeb\xc1?'
p292
tp293
Rp294
ag6
(g10
S'\xa4p=\n\xd7\xa3\xc0?'
p295
tp296
Rp297
ag6
(g10
S'\xecQ\xb8\x1e\x85\xeb\xc1?'
p298
tp299
Rp300
ag6
(g10
S'\xecQ\xb8\x1e\x85\xeb\xc1?'
p301
tp302
Rp303
ag6
(g10
S'\xecQ\xb8\x1e\x85\xeb\xc1?'
p304
tp305
Rp306
ag6
(g10
S'\xa4p=\n\xd7\xa3\xc0?'
p307
tp308
Rp309
ag6
(g10
S'\xecQ\xb8\x1e\x85\xeb\xc1?'
p310
tp311
Rp312
ag6
(g10
S'\xa4p=\n\xd7\xa3\xc0?'
p313
tp314
Rp315
ag6
(g10
S'\xa4p=\n\xd7\xa3\xc0?'
p316
tp317
Rp318
ag6
(g10
S'\xecQ\xb8\x1e\x85\xeb\xc1?'
p319
tp320
Rp321
ag6
(g10
S'\xa4p=\n\xd7\xa3\xc0?'
p322
tp323
Rp324
ag6
(g10
S'\xa4p=\n\xd7\xa3\xc0?'
p325
tp326
Rp327
ag6
(g10
S'\xa4p=\n\xd7\xa3\xc0?'
p328
tp329
Rp330
ag6
(g10
S'\xecQ\xb8\x1e\x85\xeb\xc1?'
p331
tp332
Rp333
aa(lp334
(lp335
I48
aS'rbf'
p336
aF0.3621915219888331
aF0.2255301043177195
aa(lp337
I41
ag336
aF0.2486286457300505
aF0.2212207505016507
aa(lp338
I95
ag336
aF0.27888733785174985
aF0.2098029152767788
aa(lp339
I43
ag336
aF0.3124231473425624
aF0.4936688628232596
aa(lp340
I47
ag336
aF0.48186263135409035
aF0.6262397800543859
aa(lp341
I10
ag336
aF0.3923525266464176
aF0.5119562085613442
aa(lp342
I99
ag336
aF0.30875676951281966
aF0.3780234635187476
aa(lp343
I51
ag336
aF0.5601187829667649
aF0.6605691839157748
aa(lp344
I15
ag336
aF0.7944166782825666
aF0.21629903446465543
aa(lp345
I11
ag336
aF0.8753587675654704
aF0.39579089786042154
aa(lp346
I71
ag336
aF0.17540239667624524
aF0.3058721315972629
aa(lp347
I49
ag336
aF0.5959598565591001
aF0.47810832619095855
aa(lp348
I81
ag336
aF0.26478043161555276
aF0.15512024161709734
aa(lp349
I98
ag336
aF0.4736682290568568
aF0.8302280050093764
aa(lp350
I15
ag336
aF0.21896567610381185
aF0.5177749591185079
aa(lp351
I78
ag336
aF0.45761560550371616
aF0.3977329612907179
aa(lp352
I1
ag336
aF0.23634258125297078
aF0.6960086535027976
aa(lp353
I61
ag336
aF0.5736955364991245
aF0.895437192210243
aa(lp354
I16
ag336
aF0.3434300408037987
aF0.9768194082314878
aa(lp355
I46
ag336
aF0.8586167038002536
aF0.4149506368819732
aaa(lp356
I9
aI8
aI9
aI13
aI9
aI10
aI9
aI8
aI8
aI9
aI10
aI9
aI10
aI8
aI9
aI9
aI8
aI7
aI9
aI8
aa(lp357
F0.18269586563110352
aF0.17137908935546875
aF0.17284393310546875
aF0.22508502006530762
aF0.17161297798156738
aF0.18772101402282715
aF0.17122197151184082
aF0.14894604682922363
aF0.16347813606262207
aF0.1738739013671875
aF0.1918179988861084
aF0.16503286361694336
aF0.2069838047027588
aF0.16858291625976562
aF0.18407702445983887
aF0.14885687828063965
aF0.15746593475341797
aF0.16876602172851562
aF0.1762220859527588
aF0.16044902801513672
aassS'popt20'
p358
(dp359
g3
(lp360
(lp361
F0.169
aF0.157
aF0.225
aF0.348
aF0.146
aF0.045
aF0.067
aF0.067
aF0.348
aF0.022
aF0.348
aF0.112
aF0.225
aF0.348
aF0.146
aF0.225
aF0.225
aF0.169
aF0.169
aF0.348
aa(lp362
(lp363
I5
ag75
aa(lp364
I8
ag75
aa(lp365
I8
aS'uniform'
p366
aa(lp367
I10
ag366
aa(lp368
I9
ag75
aa(lp369
I5
ag366
aa(lp370
I6
ag366
aa(lp371
I6
ag366
aa(lp372
I10
ag366
aa(lp373
I7
ag366
aa(lp374
I10
ag366
aa(lp375
I9
ag366
aa(lp376
I8
ag366
aa(lp377
I10
ag366
aa(lp378
I9
ag75
aa(lp379
I8
ag366
aa(lp380
I8
ag366
aa(lp381
I7
ag75
aa(lp382
I7
ag75
aa(lp383
I10
ag366
aaa(lp384
I12
aI13
aI10
aI16
aI8
aI8
aI16
aI8
aI9
aI12
aI15
aI14
aI9
aI9
aI15
aI13
aI14
aI12
aI12
aI14
aa(lp385
F0.3229188919067383
aF0.3416929244995117
aF0.2957899570465088
aF0.3844771385192871
aF0.26686906814575195
aF0.2673020362854004
aF0.38173890113830566
aF0.2650771141052246
aF0.28167295455932617
aF0.3230440616607666
aF0.3660449981689453
aF0.3547520637512207
aF0.30007004737854004
aF0.28054380416870117
aF0.37168216705322266
aF0.33629393577575684
aF0.35552406311035156
aF0.3236539363861084
aF0.32213807106018066
aF0.3574709892272949
aasg97
(lp386
(lp387
F0.09
aF0.09
aF0.09
aF0.202
aF0.09
aF0.09
aF0.09
aF0.157
aF0.09
aF0.169
aF0.09
aF0.09
aF0.09
aF0.09
aF0.09
aF0.056
aF0.09
aF0.09
aF0.157
aF0.09
aa(lp388
(lp389
g165
aF0.7069344171874865
aI19
aI14
aI19
aa(lp390
g165
aF0.5999876425175281
aI6
aI21
aI8
aa(lp391
g165
aF0.28528898315821505
aI8
aI20
aI19
aa(lp392
g165
aF0.69939845989672
aI17
aI5
aI4
aa(lp393
g162
aF0.6315980589447541
aI7
aI14
aI6
aa(lp394
g162
aF0.4629268420876075
aI13
aI17
aI2
aa(lp395
g162
aF0.5070187986926928
aI26
aI19
aI3
aa(lp396
g162
aF0.9093103924512361
aI25
aI5
aI19
aa(lp397
g162
aF0.48432709571101995
aI25
aI14
aI14
aa(lp398
g165
aF0.9877163362948806
aI10
aI14
aI21
aa(lp399
g165
aF0.8659778780728754
aI9
aI21
aI5
aa(lp400
g165
aF0.95104887309721
aI16
aI21
aI3
aa(lp401
g165
aF0.8108568001176761
aI15
aI21
aI5
aa(lp402
g165
aF0.3021647870695794
aI6
aI18
aI16
aa(lp403
g162
aF0.45824818110817245
aI21
aI19
aI13
aa(lp404
g162
aF0.11668654934121592
aI7
aI11
aI6
aa(lp405
g165
aF0.5497889666575416
aI2
aI9
aI1
aa(lp406
g162
aF0.8409168090253113
aI30
aI19
aI7
aa(lp407
g165
aF0.5810644742921071
aI29
aI7
aI7
aa(lp408
g165
aF0.9449355600029087
aI5
aI20
aI6
aaa(lp409
I12
aI17
aI12
aI13
aI10
aI10
aI16
aI12
aI19
aI13
aI10
aI12
aI15
aI10
aI12
aI9
aI14
aI15
aI15
aI12
aa(lp410
F0.3039419651031494
aF0.3697969913482666
aF0.2981908321380615
aF0.3247861862182617
aF0.27399611473083496
aF0.28043603897094727
aF0.35248303413391113
aF0.3169069290161133
aF0.4061548709869385
aF0.3305630683898926
aF0.2802581787109375
aF0.2989931106567383
aF0.34182310104370117
aF0.2741739749908447
aF0.30420708656311035
aF0.2624220848083496
aF0.33427906036376953
aF0.34754490852355957
aF0.3455190658569336
aF0.29625988006591797
aasg185
(lp411
(lp412
F0.809
aF0.427
aF0.169
aF0.809
aF0.809
aF0.809
aF0.809
aF0.809
aF0.809
aF0.202
aF0.27
aF0.809
aF0.809
aF0.809
aF0.292
aF0.191
aF0.135
aF0.809
aF0.809
aF0.202
aa(lp413
(lp414
g162
aF0.2914463677948469
aI22
aI19
aI44
aa(lp415
g162
aF0.23315234204098614
aI29
aI12
aI13
aa(lp416
g162
aF0.3954478083324081
aI14
aI9
aI100
aa(lp417
g165
aF0.8815113223350262
aI22
aI20
aI64
aa(lp418
g165
aF0.9379388925299899
aI24
aI21
aI13
aa(lp419
g165
aF0.719390354114151
aI22
aI21
aI81
aa(lp420
g162
aF0.6874170617222539
aI12
aI21
aI93
aa(lp421
g165
aF0.2706234148345149
aI4
aI20
aI96
aa(lp422
g162
aF0.575487052138644
aI19
aI18
aI58
aa(lp423
g165
aF0.8211500808430816
aI13
aI13
aI94
aa(lp424
g162
aF0.32111406596699577
aI5
aI11
aI90
aa(lp425
g165
aF0.8520600288111555
aI3
aI20
aI44
aa(lp426
g162
aF0.4234157487845187
aI17
aI18
aI72
aa(lp427
g165
aF0.3229421361619613
aI25
aI16
aI99
aa(lp428
g165
aF0.144017183478384
aI24
aI7
aI98
aa(lp429
g162
aF0.6664691866181318
aI3
aI14
aI25
aa(lp430
g165
aF0.9381781463507021
aI18
aI8
aI98
aa(lp431
g162
aF0.6256459541972815
aI16
aI17
aI15
aa(lp432
g162
aF0.7232948070199685
aI20
aI20
aI37
aa(lp433
g165
aF0.7354182614159999
aI2
aI14
aI46
aaa(lp434
I10
aI12
aI24
aI12
aI10
aI10
aI12
aI10
aI14
aI12
aI8
aI17
aI13
aI14
aI8
aI9
aI9
aI14
aI9
aI10
aa(lp435
F21.001065015792847
aF23.84724998474121
aF37.57908296585083
aF23.946749925613403
aF21.073076963424683
aF21.647644996643066
aF23.147303104400635
aF22.630836009979248
aF26.25638699531555
aF25.375653982162476
aF19.287896156311035
aF30.26043391227722
aF26.204087018966675
aF26.488970041275024
aF20.447643041610718
aF20.161314010620117
aF20.25309991836548
aF25.883915901184082
aF21.294250965118408
aF22.45071315765381
aasg271
(lp436
(lp437
F0.809
aF0.764
aF0.539
aF0.775
aF0.539
aF0.764
aF0.809
aF0.517
aF0.517
aF0.64
aF0.764
aF0.517
aF0.517
aF0.517
aF0.517
aF0.764
aF0.764
aF0.539
aF0.517
aF0.539
aa(lp438
(lp439
I49
aS'sigmoid'
p440
aF0.9256634006957717
aF0.9088645211161656
aa(lp441
I71
ag440
aF0.5421285771462631
aF0.600869562826784
aa(lp442
I1
ag336
aF0.16550759452709957
aF0.45020158738403815
aa(lp443
I34
ag440
aF0.15311110019932828
aF0.9778383002355725
aa(lp444
I56
ag336
aF0.9037578931954864
aF0.5176338722696328
aa(lp445
I9
ag440
aF0.697846733748112
aF0.32112698714877497
aa(lp446
I3
ag440
aF0.5586073888410681
aF0.9091711076444254
aa(lp447
I74
ag336
aF0.2684735799066057
aF0.14131602616275277
aa(lp448
I62
ag336
aF0.37600585161084443
aF0.13414248670162507
aa(lp449
I95
ag440
aF0.5994213571112725
aF0.2987850024297488
aa(lp450
I33
ag440
aF0.7640095192060689
aF0.33639860439882996
aa(lp451
I94
ag336
aF0.35244769778635565
aF0.2321784881060634
aa(lp452
I96
ag336
aF0.9981345989683791
aF0.1606732182564803
aa(lp453
I30
ag336
aF0.6253847072804504
aF0.39756188929030145
aa(lp454
I82
ag336
aF0.43352687351310104
aF0.25341645827807435
aa(lp455
I71
ag440
aF0.6679714568685288
aF0.7060521529237647
aa(lp456
I76
ag440
aF0.5735989738037356
aF0.8308148626661633
aa(lp457
I55
ag336
aF0.807451382322217
aF0.6349985888500322
aa(lp458
I62
ag336
aF0.9922673181894826
aF0.29381922778932135
aa(lp459
I96
ag336
aF0.4588896001498174
aF0.47973139399413167
aaa(lp460
I19
aI12
aI14
aI12
aI13
aI15
aI10
aI8
aI10
aI14
aI10
aI8
aI10
aI16
aI9
aI12
aI10
aI13
aI12
aI12
aa(lp461
F0.49121594429016113
aF0.37024497985839844
aF0.4149329662322998
aF0.3681509494781494
aF0.4911818504333496
aF0.40036892890930176
aF0.3428919315338135
aF0.2967040538787842
aF0.3515009880065918
aF0.3951098918914795
aF0.31789302825927734
aF0.3191499710083008
aF0.352694034576416
aF0.42784905433654785
aF0.33276796340942383
aF0.37691283226013184
aF0.35730981826782227
aF0.39206790924072266
aF0.39229798316955566
aF0.3748769760131836
aass.