(dp0
S'f1'
p1
(dp2
S'KNN'
p3
(lp4
(lp5
cnumpy.core.multiarray
scalar
p6
(cnumpy
dtype
p7
(S'f8'
p8
I0
I1
tp9
Rp10
(I3
S'<'
p11
NNNI-1
I-1
I0
tp12
bS'R\xb8\x1e\x85\xebQ\xe8?'
p13
tp14
Rp15
ag6
(g10
S'\xaeG\xe1z\x14\xae\xe7?'
p16
tp17
Rp18
ag6
(g10
S'\xaeG\xe1z\x14\xae\xe7?'
p19
tp20
Rp21
ag6
(g10
S'H\xe1z\x14\xaeG\xe9?'
p22
tp23
Rp24
ag6
(g10
S'\xaeG\xe1z\x14\xae\xe7?'
p25
tp26
Rp27
ag6
(g10
S'\xaeG\xe1z\x14\xae\xe7?'
p28
tp29
Rp30
ag6
(g10
S'R\xb8\x1e\x85\xebQ\xe8?'
p31
tp32
Rp33
ag6
(g10
S'H\xe1z\x14\xaeG\xe9?'
p34
tp35
Rp36
ag6
(g10
S'H\xe1z\x14\xaeG\xe9?'
p37
tp38
Rp39
ag6
(g10
S'H\xe1z\x14\xaeG\xe9?'
p40
tp41
Rp42
ag6
(g10
S'\xaeG\xe1z\x14\xae\xe7?'
p43
tp44
Rp45
ag6
(g10
S'\\\x8f\xc2\xf5(\\\xe7?'
p46
tp47
Rp48
ag6
(g10
S'\x00\x00\x00\x00\x00\x00\xe8?'
p49
tp50
Rp51
ag6
(g10
S'\xaeG\xe1z\x14\xae\xe7?'
p52
tp53
Rp54
ag6
(g10
S'R\xb8\x1e\x85\xebQ\xe8?'
p55
tp56
Rp57
ag6
(g10
S'\xaeG\xe1z\x14\xae\xe7?'
p58
tp59
Rp60
ag6
(g10
S'H\xe1z\x14\xaeG\xe9?'
p61
tp62
Rp63
ag6
(g10
S'\xf6(\\\x8f\xc2\xf5\xe8?'
p64
tp65
Rp66
ag6
(g10
S'\xaeG\xe1z\x14\xae\xe7?'
p67
tp68
Rp69
ag6
(g10
S'\\\x8f\xc2\xf5(\\\xe7?'
p70
tp71
Rp72
aa(lp73
(lp74
I7
aS'uniform'
p75
aa(lp76
I9
aS'distance'
p77
aa(lp78
I9
ag77
aa(lp79
I9
ag75
aa(lp80
I8
ag77
aa(lp81
I8
ag77
aa(lp82
I7
ag75
aa(lp83
I9
ag75
aa(lp84
I9
ag75
aa(lp85
I9
ag75
aa(lp86
I10
ag77
aa(lp87
I7
ag77
aa(lp88
I5
ag75
aa(lp89
I8
ag77
aa(lp90
I7
ag75
aa(lp91
I9
ag77
aa(lp92
I9
ag75
aa(lp93
I10
ag75
aa(lp94
I10
ag77
aa(lp95
I4
ag77
aaa(lp96
I9
aI14
aI10
aI8
aI9
aI10
aI13
aI9
aI8
aI10
aI9
aI9
aI10
aI7
aI10
aI12
aI13
aI14
aI9
aI13
aa(lp97
F0.1375439167022705
aF0.17438888549804688
aF0.14546489715576172
aF0.12972092628479004
aF0.15778183937072754
aF0.14335894584655762
aF0.1673731803894043
aF0.14411091804504395
aF0.12989091873168945
aF0.14450407028198242
aF0.13747906684875488
aF0.13704681396484375
aF0.14289212226867676
aF0.12653183937072754
aF0.14743304252624512
aF0.15881013870239258
aF0.16639113426208496
aF0.17337608337402344
aF0.13641691207885742
aF0.16995811462402344
aasS'DTC'
p98
(lp99
(lp100
g6
(g10
S'\x1f\x85\xebQ\xb8\x1e\xe5?'
p101
tp102
Rp103
ag6
(g10
S'\x9a\x99\x99\x99\x99\x99\xe1?'
p104
tp105
Rp106
ag6
(g10
S'\xcd\xcc\xcc\xcc\xcc\xcc\xe4?'
p107
tp108
Rp109
ag6
(g10
S'\xa4p=\n\xd7\xa3\xe8?'
p110
tp111
Rp112
ag6
(g10
S'\xf6(\\\x8f\xc2\xf5\xe0?'
p113
tp114
Rp115
ag6
(g10
S'\xa4p=\n\xd7\xa3\xe8?'
p116
tp117
Rp118
ag6
(g10
S'\x8f\xc2\xf5(\\\x8f\xe2?'
p119
tp120
Rp121
ag6
(g10
S'\xd7\xa3p=\n\xd7\xe3?'
p122
tp123
Rp124
ag6
(g10
S'\x00\x00\x00\x00\x00\x00\xe8?'
p125
tp126
Rp127
ag6
(g10
S')\\\x8f\xc2\xf5(\xe4?'
p128
tp129
Rp130
ag6
(g10
S'\xd7\xa3p=\n\xd7\xe3?'
p131
tp132
Rp133
ag6
(g10
S'\xaeG\xe1z\x14\xae\xe7?'
p134
tp135
Rp136
ag6
(g10
S'\xa4p=\n\xd7\xa3\xe8?'
p137
tp138
Rp139
ag6
(g10
S'\xc3\xf5(\\\x8f\xc2\xe5?'
p140
tp141
Rp142
ag6
(g10
S'H\xe1z\x14\xaeG\xe9?'
p143
tp144
Rp145
ag6
(g10
S'333333\xe3?'
p146
tp147
Rp148
ag6
(g10
S'ffffff\xe6?'
p149
tp150
Rp151
ag6
(g10
S'\\\x8f\xc2\xf5(\\\xdf?'
p152
tp153
Rp154
ag6
(g10
S'\xa4p=\n\xd7\xa3\xe8?'
p155
tp156
Rp157
ag6
(g10
S'\\\x8f\xc2\xf5(\\\xdf?'
p158
tp159
Rp160
aa(lp161
(lp162
S'entropy'
p163
aF0.3483816516644785
aI29
aI13
aI16
aa(lp164
g163
aF0.7149320123752019
aI18
aI3
aI20
aa(lp165
g163
aF0.331569164383416
aI24
aI13
aI12
aa(lp166
g163
aF0.10703422709018018
aI23
aI20
aI10
aa(lp167
g163
aF0.9148366772285126
aI14
aI7
aI6
aa(lp168
g163
aF0.10291010735025347
aI22
aI20
aI15
aa(lp169
S'gini'
p170
aF0.3882076859541064
aI14
aI5
aI10
aa(lp171
g163
aF0.14031341812974915
aI20
aI18
aI11
aa(lp172
g170
aF0.1297869063121688
aI4
aI13
aI11
aa(lp173
g163
aF0.35442058229868645
aI9
aI3
aI14
aa(lp174
g163
aF0.11453273534366644
aI22
aI18
aI11
aa(lp175
g170
aF0.26824808973635816
aI21
aI21
aI14
aa(lp176
g170
aF0.4572351315235714
aI20
aI15
aI5
aa(lp177
g170
aF0.9334994259492421
aI10
aI5
aI5
aa(lp178
g170
aF0.11874044269757147
aI28
aI4
aI18
aa(lp179
g170
aF0.9942799015696528
aI3
aI1
aI11
aa(lp180
g163
aF0.3828075746536681
aI21
aI7
aI6
aa(lp181
g163
aF0.35235860273563224
aI15
aI2
aI18
aa(lp182
g170
aF0.13371340764858064
aI11
aI18
aI8
aa(lp183
g163
aF0.9892656195345627
aI28
aI2
aI14
aaa(lp184
I12
aI12
aI10
aI14
aI13
aI7
aI13
aI9
aI12
aI9
aI8
aI9
aI14
aI12
aI9
aI8
aI8
aI13
aI10
aI8
aa(lp185
F0.13138198852539062
aF0.14188909530639648
aF0.12168693542480469
aF0.15221500396728516
aF0.13099312782287598
aF0.10016107559204102
aF0.13802194595336914
aF0.11317586898803711
aF0.14066410064697266
aF0.11130309104919434
aF0.11244797706604004
aF0.117095947265625
aF0.14725494384765625
aF0.141463041305542
aF0.11699581146240234
aF0.11905097961425781
aF0.1158759593963623
aF0.14190196990966797
aF0.12445211410522461
aF0.10931110382080078
aasS'RF'
p186
(lp187
(lp188
g6
(g10
S'\xaeG\xe1z\x14\xae\xe7?'
p189
tp190
Rp191
ag6
(g10
S'\x00\x00\x00\x00\x00\x00\xe8?'
p192
tp193
Rp194
ag6
(g10
S'\x00\x00\x00\x00\x00\x00\xe8?'
p195
tp196
Rp197
ag6
(g10
S'\xa4p=\n\xd7\xa3\xe8?'
p198
tp199
Rp200
ag6
(g10
S'\xaeG\xe1z\x14\xae\xe7?'
p201
tp202
Rp203
ag6
(g10
S'\\\x8f\xc2\xf5(\\\xe7?'
p204
tp205
Rp206
ag6
(g10
S'R\xb8\x1e\x85\xebQ\xe8?'
p207
tp208
Rp209
ag6
(g10
S'\n\xd7\xa3p=\n\xe7?'
p210
tp211
Rp212
ag6
(g10
S'R\xb8\x1e\x85\xebQ\xe8?'
p213
tp214
Rp215
ag6
(g10
S'\xa4p=\n\xd7\xa3\xe8?'
p216
tp217
Rp218
ag6
(g10
S'R\xb8\x1e\x85\xebQ\xe8?'
p219
tp220
Rp221
ag6
(g10
S'\x00\x00\x00\x00\x00\x00\xe8?'
p222
tp223
Rp224
ag6
(g10
S'\x00\x00\x00\x00\x00\x00\xe8?'
p225
tp226
Rp227
ag6
(g10
S'R\xb8\x1e\x85\xebQ\xe8?'
p228
tp229
Rp230
ag6
(g10
S'\x00\x00\x00\x00\x00\x00\xe8?'
p231
tp232
Rp233
ag6
(g10
S'R\xb8\x1e\x85\xebQ\xe8?'
p234
tp235
Rp236
ag6
(g10
S'R\xb8\x1e\x85\xebQ\xe8?'
p237
tp238
Rp239
ag6
(g10
S'\x00\x00\x00\x00\x00\x00\xe8?'
p240
tp241
Rp242
ag6
(g10
S'\xa4p=\n\xd7\xa3\xe8?'
p243
tp244
Rp245
ag6
(g10
S'\xb8\x1e\x85\xebQ\xb8\xe6?'
p246
tp247
Rp248
aa(lp249
(lp250
g170
aF0.26581408102694043
aI13
aI5
aI32
aa(lp251
g163
aF0.5123962852277332
aI5
aI9
aI89
aa(lp252
g170
aF0.8912980515311208
aI23
aI4
aI34
aa(lp253
g170
aF0.6860434391086367
aI29
aI18
aI22
aa(lp254
g170
aF0.4544569764094819
aI11
aI5
aI30
aa(lp255
g170
aF0.6419462448001232
aI11
aI3
aI78
aa(lp256
g170
aF0.6569961008671996
aI2
aI12
aI52
aa(lp257
g170
aF0.9677478590810435
aI6
aI10
aI14
aa(lp258
g170
aF0.8084022171190908
aI20
aI6
aI100
aa(lp259
g170
aF0.8755416180583557
aI10
aI14
aI45
aa(lp260
g170
aF0.8565171714171302
aI21
aI14
aI73
aa(lp261
g163
aF0.9160605778428034
aI30
aI7
aI76
aa(lp262
g170
aF0.8085079008396744
aI30
aI9
aI58
aa(lp263
g163
aF0.44096889835512487
aI17
aI10
aI38
aa(lp264
g170
aF0.6266322942849059
aI23
aI5
aI58
aa(lp265
g163
aF0.9476361171289974
aI18
aI18
aI19
aa(lp266
g170
aF0.5253753272450328
aI19
aI7
aI74
aa(lp267
g170
aF0.8165404533495588
aI3
aI6
aI65
aa(lp268
g163
aF0.31915585376318484
aI9
aI14
aI37
aa(lp269
g163
aF0.7595470636523799
aI14
aI4
aI13
aaa(lp270
I8
aI12
aI7
aI10
aI9
aI14
aI9
aI9
aI15
aI8
aI7
aI9
aI10
aI10
aI10
aI10
aI8
aI10
aI10
aI14
aa(lp271
F19.28584313392639
aF23.22421097755432
aF18.131293058395386
aF20.58525586128235
aF21.11523199081421
aF26.361122846603394
aF21.3537380695343
aF20.605644941329956
aF27.936388969421387
aF19.815190076828003
aF17.922516107559204
aF20.51950192451477
aF22.38507080078125
aF21.72802495956421
aF21.462462186813354
aF20.629387140274048
aF18.32325792312622
aF21.53936004638672
aF20.70370388031006
aF25.42703104019165
aasS'SVM'
p272
(lp273
(lp274
g6
(g10
S'R\xb8\x1e\x85\xebQ\xe8?'
p275
tp276
Rp277
ag6
(g10
S'R\xb8\x1e\x85\xebQ\xe8?'
p278
tp279
Rp280
ag6
(g10
S'\xaeG\xe1z\x14\xae\xe7?'
p281
tp282
Rp283
ag6
(g10
S'\x00\x00\x00\x00\x00\x00\xe8?'
p284
tp285
Rp286
ag6
(g10
S'\x00\x00\x00\x00\x00\x00\xe8?'
p287
tp288
Rp289
ag6
(g10
S'\x00\x00\x00\x00\x00\x00\xe8?'
p290
tp291
Rp292
ag6
(g10
S'\x00\x00\x00\x00\x00\x00\xe8?'
p293
tp294
Rp295
ag6
(g10
S'R\xb8\x1e\x85\xebQ\xe8?'
p296
tp297
Rp298
ag6
(g10
S'\xaeG\xe1z\x14\xae\xe7?'
p299
tp300
Rp301
ag6
(g10
S'\x00\x00\x00\x00\x00\x00\xe8?'
p302
tp303
Rp304
ag6
(g10
S'R\xb8\x1e\x85\xebQ\xe8?'
p305
tp306
Rp307
ag6
(g10
S'R\xb8\x1e\x85\xebQ\xe8?'
p308
tp309
Rp310
ag6
(g10
S'R\xb8\x1e\x85\xebQ\xe8?'
p311
tp312
Rp313
ag6
(g10
S'\xaeG\xe1z\x14\xae\xe7?'
p314
tp315
Rp316
ag6
(g10
S'\xaeG\xe1z\x14\xae\xe7?'
p317
tp318
Rp319
ag6
(g10
S'\xaeG\xe1z\x14\xae\xe7?'
p320
tp321
Rp322
ag6
(g10
S'\xaeG\xe1z\x14\xae\xe7?'
p323
tp324
Rp325
ag6
(g10
S'\xa4p=\n\xd7\xa3\xe8?'
p326
tp327
Rp328
ag6
(g10
S'\xaeG\xe1z\x14\xae\xe7?'
p329
tp330
Rp331
ag6
(g10
S'\xaeG\xe1z\x14\xae\xe7?'
p332
tp333
Rp334
aa(lp335
(lp336
I13
aS'rbf'
p337
aF0.2789412510548046
aF0.7430141504942355
aa(lp338
I73
ag337
aF0.9048558876348591
aF0.7269267824560821
aa(lp339
I30
ag337
aF0.12661314412170677
aF0.1813136636732633
aa(lp340
I53
ag337
aF0.4109586199070636
aF0.33822547832620226
aa(lp341
I24
ag337
aF0.9046797170836747
aF0.3359041163431846
aa(lp342
I33
ag337
aF0.3641884623042875
aF0.32178262535678187
aa(lp343
I49
ag337
aF0.2255301043177195
aF0.23852959918606084
aa(lp344
I53
ag337
aF0.6445364534909855
aF0.4572220721478574
aa(lp345
I16
ag337
aF0.2857814748691674
aF0.10200031468782372
aa(lp346
I47
ag337
aF0.6905046824665788
aF0.2146467828995137
aa(lp347
I98
ag337
aF0.2748226356581215
aF0.5381564284331366
aa(lp348
I39
ag337
aF0.1964475715628356
aF0.6343967265746168
aa(lp349
I7
ag337
aF0.31650706345429985
aF0.3157944881503113
aa(lp350
I41
ag337
aF0.4614436743116903
aF0.16279359941285554
aa(lp351
I35
ag337
aF0.3532893674186206
aF0.16214505574408072
aa(lp352
I49
ag337
aF0.47688518125126056
aF0.19176031801864613
aa(lp353
I8
ag337
aF0.7357208759931178
aF0.17904736755843856
aa(lp354
I92
ag337
aF0.9187036187042548
aF0.8277150196521046
aa(lp355
I48
ag337
aF0.1696618980563684
aF0.1831487249760848
aa(lp356
I35
ag337
aF0.41182816250953513
aF0.10418629558459985
aaa(lp357
I8
aI8
aI10
aI8
aI7
aI6
aI9
aI12
aI10
aI7
aI14
aI12
aI9
aI10
aI10
aI10
aI8
aI13
aI14
aI13
aa(lp358
F0.2243509292602539
aF0.21236300468444824
aF0.2438349723815918
aF0.22508883476257324
aF0.22087717056274414
aF0.20608901977539062
aF0.2642481327056885
aF0.25345492362976074
aF0.2761077880859375
aF0.22127413749694824
aF0.2991809844970703
aF0.27917909622192383
aF0.21447300910949707
aF0.2645759582519531
aF0.25671982765197754
aF0.25922489166259766
aF0.24191999435424805
aF0.28214502334594727
aF0.31360912322998047
aF0.28891897201538086
aassS'popt20'
p359
(dp360
g3
(lp361
(lp362
F0.64
aF0.651
aF0.651
aF0.651
aF0.651
aF0.651
aF0.663
aF0.64
aF0.663
aF0.651
aF0.663
aF0.663
aF0.651
aF0.651
aF0.663
aF0.663
aF0.651
aF0.64
aF0.651
aF0.651
aa(lp363
(lp364
I9
ag77
aa(lp365
I8
ag75
aa(lp366
I5
ag75
aa(lp367
I8
ag77
aa(lp368
I8
ag75
aa(lp369
I4
ag77
aa(lp370
I6
ag75
aa(lp371
I9
ag77
aa(lp372
I6
ag75
aa(lp373
I7
ag77
aa(lp374
I5
ag77
aa(lp375
I5
ag77
aa(lp376
I7
ag77
aa(lp377
I7
ag77
aa(lp378
I5
ag77
aa(lp379
I5
ag77
aa(lp380
I7
ag77
aa(lp381
I9
ag77
aa(lp382
I4
ag77
aa(lp383
I4
ag77
aaa(lp384
I7
aI10
aI9
aI9
aI10
aI9
aI16
aI9
aI10
aI9
aI13
aI13
aI12
aI12
aI10
aI10
aI9
aI14
aI9
aI13
aa(lp385
F0.26802587509155273
aF0.3141782283782959
aF0.3038628101348877
aF0.3032240867614746
aF0.3179938793182373
aF0.3010101318359375
aF0.40921497344970703
aF0.29893994331359863
aF0.31581997871398926
aF0.29970407485961914
aF0.36173319816589355
aF0.36006999015808105
aF0.3454310894012451
aF0.3462090492248535
aF0.31659507751464844
aF0.3118729591369629
aF0.29859399795532227
aF0.3793928623199463
aF0.303088903427124
aF0.37198591232299805
aasg98
(lp386
(lp387
F0.686
aF0.477
aF0.663
aF0.349
aF0.616
aF0.698
aF0.442
aF0.628
aF0.36
aF0.686
aF0.651
aF0.674
aF0.616
aF0.663
aF0.698
aF0.616
aF0.407
aF0.535
aF0.395
aF0.628
aa(lp388
(lp389
g170
aF0.6645427495688612
aI16
aI15
aI6
aa(lp390
g163
aF0.6551080416501329
aI11
aI4
aI6
aa(lp391
g170
aF0.4861548522379733
aI26
aI17
aI6
aa(lp392
g163
aF0.5401813587661707
aI8
aI2
aI13
aa(lp393
g170
aF0.8906073702117591
aI5
aI4
aI7
aa(lp394
g163
aF0.463993541790917
aI28
aI3
aI3
aa(lp395
g170
aF0.25277301419613063
aI27
aI11
aI5
aa(lp396
g170
aF0.6809327699131883
aI14
aI3
aI8
aa(lp397
g170
aF0.5486517795092618
aI14
aI16
aI3
aa(lp398
g170
aF0.13109414643991946
aI4
aI5
aI4
aa(lp399
g163
aF0.47895504370181563
aI18
aI21
aI13
aa(lp400
g170
aF0.1394343392686734
aI20
aI9
aI11
aa(lp401
g163
aF0.3435610580475238
aI3
aI2
aI10
aa(lp402
g170
aF0.8930220227154871
aI12
aI7
aI5
aa(lp403
g163
aF0.10649450433383517
aI12
aI7
aI4
aa(lp404
g170
aF0.3996813163219255
aI19
aI8
aI6
aa(lp405
g163
aF0.9951576690728478
aI23
aI8
aI13
aa(lp406
g170
aF0.24543514062432764
aI17
aI4
aI11
aa(lp407
g163
aF0.8779471312224322
aI19
aI12
aI13
aa(lp408
g163
aF0.442998740753072
aI22
aI15
aI14
aaa(lp409
I8
aI10
aI10
aI8
aI15
aI15
aI13
aI9
aI8
aI10
aI9
aI12
aI12
aI13
aI10
aI10
aI9
aI14
aI10
aI10
aa(lp410
F0.2714059352874756
aF0.29810404777526855
aF0.29439806938171387
aF0.2616300582885742
aF0.38397693634033203
aF0.3643300533294678
aF0.3416628837585449
aF0.28319406509399414
aF0.26152777671813965
aF0.285336971282959
aF0.2858281135559082
aF0.32390785217285156
aF0.3328099250793457
aF0.3433530330657959
aF0.28956103324890137
aF0.2932620048522949
aF0.2802560329437256
aF0.3490869998931885
aF0.302980899810791
aF0.2937760353088379
aasg186
(lp411
(lp412
F0.663
aF0.651
aF0.628
aF0.64
aF0.651
aF0.64
aF0.616
aF0.651
aF0.64
aF0.651
aF0.64
aF0.64
aF0.651
aF0.64
aF0.488
aF0.651
aF0.628
aF0.651
aF0.64
aF0.628
aa(lp413
(lp414
g170
aF0.9855819031659048
aI15
aI12
aI59
aa(lp415
g170
aF0.9683169651830899
aI27
aI1
aI82
aa(lp416
g163
aF0.8861812057640961
aI10
aI2
aI31
aa(lp417
g170
aF0.8923401684357408
aI14
aI2
aI31
aa(lp418
g163
aF0.9764807675861407
aI23
aI18
aI37
aa(lp419
g163
aF0.7407369007363879
aI8
aI10
aI70
aa(lp420
g163
aF0.6404989569477127
aI20
aI10
aI12
aa(lp421
g163
aF0.7643490849411878
aI13
aI9
aI81
aa(lp422
g163
aF0.9338470367429923
aI19
aI4
aI87
aa(lp423
g163
aF0.6071154826587627
aI10
aI1
aI98
aa(lp424
g163
aF0.7451315405834427
aI14
aI8
aI71
aa(lp425
g163
aF0.9325269447047013
aI29
aI13
aI44
aa(lp426
g163
aF0.5852068748772709
aI10
aI18
aI17
aa(lp427
g163
aF0.33253019641896375
aI25
aI9
aI65
aa(lp428
g163
aF0.550599926686217
aI5
aI6
aI12
aa(lp429
g170
aF0.28709007852725127
aI25
aI7
aI59
aa(lp430
g170
aF0.7918365142274431
aI15
aI1
aI88
aa(lp431
g170
aF0.37781422639579754
aI9
aI12
aI87
aa(lp432
g163
aF0.5665090909759042
aI20
aI1
aI92
aa(lp433
g163
aF0.25480122585272597
aI6
aI7
aI20
aaa(lp434
I13
aI14
aI13
aI8
aI16
aI9
aI8
aI10
aI9
aI20
aI14
aI14
aI9
aI12
aI13
aI13
aI10
aI12
aI14
aI10
aa(lp435
F24.969018936157227
aF27.183761835098267
aF25.057793855667114
aF20.015635013580322
aF26.50025701522827
aF20.08283805847168
aF18.050589084625244
aF21.76563000679016
aF21.4539852142334
aF32.023353099823
aF26.45053195953369
aF26.12709903717041
aF21.214890003204346
aF23.80022406578064
aF26.636001110076904
aF24.77519416809082
aF21.943538904190063
aF24.268310070037842
aF26.798074960708618
aF21.449564933776855
aasg272
(lp436
(lp437
F0.744
aF0.709
aF0.698
aF0.698
aF0.709
aF0.686
aF0.709
aF0.744
aF0.709
aF0.744
aF0.698
aF0.709
aF0.744
aF0.698
aF0.698
aF0.744
aF0.744
aF0.709
aF0.744
aF0.744
aa(lp438
(lp439
I49
aS'sigmoid'
p440
aF0.9256634006957717
aF0.9088645211161656
aa(lp441
I68
ag337
aF0.7373672505802782
aF0.8186283421262643
aa(lp442
I17
ag337
aF0.18836723121883547
aF0.5135231170484995
aa(lp443
I97
ag337
aF0.5487091096358032
aF0.4953226703159407
aa(lp444
I54
ag337
aF0.14416465416328142
aF0.9445326915806064
aa(lp445
I11
ag337
aF0.14372972732838843
aF0.29680652872209323
aa(lp446
I93
ag337
aF0.8912941873629658
aF0.9296418439890511
aa(lp447
I16
ag440
aF0.2027965197833707
aF0.6328200106677866
aa(lp448
I22
ag337
aF0.5976001402304926
aF0.7818871921049928
aa(lp449
I75
ag440
aF0.37815664130687976
aF0.2696467009986896
aa(lp450
I37
ag337
aF0.17914795105432574
aF0.3966293769681346
aa(lp451
I76
ag337
aF0.15657301590772316
aF0.7587762398950859
aa(lp452
I98
ag440
aF0.1868548434797766
aF0.8329198599053548
aa(lp453
I26
ag337
aF0.5118482673538458
aF0.5339793612036648
aa(lp454
I63
ag337
aF0.15057504935582172
aF0.3908224992896283
aa(lp455
I37
ag440
aF0.49416580971371826
aF0.19567002275551382
aa(lp456
I81
ag440
aF0.8474706518908703
aF0.9903711212098854
aa(lp457
I5
ag337
aF0.6086274371113479
aF0.8323175576976746
aa(lp458
I51
ag440
aF0.5705126170852473
aF0.230052085332565
aa(lp459
I5
ag440
aF0.20070879384874393
aF0.8788354358291511
aaa(lp460
I9
aI7
aI13
aI9
aI12
aI14
aI8
aI14
aI8
aI12
aI10
aI15
aI9
aI7
aI10
aI15
aI10
aI8
aI12
aI9
aa(lp461
F0.4073150157928467
aF0.36621809005737305
aF0.5064089298248291
aF0.4048459529876709
aF0.45322608947753906
aF0.5060970783233643
aF0.38425397872924805
aF0.469498872756958
aF0.41295814514160156
aF0.44631004333496094
aF0.43450093269348145
aF0.5226619243621826
aF0.4253518581390381
aF0.353640079498291
aF0.40910887718200684
aF0.5192580223083496
aF0.40316200256347656
aF0.39850711822509766
aF0.44577479362487793
aF0.4249899387359619
aass.