(dp0
S'f1'
p1
(dp2
S'KNN'
p3
(lp4
(lp5
cnumpy.core.multiarray
scalar
p6
(cnumpy
dtype
p7
(S'f8'
p8
I0
I1
tp9
Rp10
(I3
S'<'
p11
NNNI-1
I-1
I0
tp12
bS'333333\xc3?'
p13
tp14
Rp15
ag6
(g10
S'\xa4p=\n\xd7\xa3\xc0?'
p16
tp17
Rp18
ag6
(g10
S'\n\xd7\xa3p=\n\xc7?'
p19
tp20
Rp21
ag6
(g10
S'\xa4p=\n\xd7\xa3\xc0?'
p22
tp23
Rp24
ag6
(g10
S'\n\xd7\xa3p=\n\xc7?'
p25
tp26
Rp27
ag6
(g10
S'\xa4p=\n\xd7\xa3\xc0?'
p28
tp29
Rp30
ag6
(g10
S'\n\xd7\xa3p=\n\xc7?'
p31
tp32
Rp33
ag6
(g10
S'\xb8\x1e\x85\xebQ\xb8\xbe?'
p34
tp35
Rp36
ag6
(g10
S'\xa4p=\n\xd7\xa3\xc0?'
p37
tp38
Rp39
ag6
(g10
S'\xb8\x1e\x85\xebQ\xb8\xbe?'
p40
tp41
Rp42
ag6
(g10
S'333333\xc3?'
p43
tp44
Rp45
ag6
(g10
S'\xb8\x1e\x85\xebQ\xb8\xbe?'
p46
tp47
Rp48
ag6
(g10
S'333333\xc3?'
p49
tp50
Rp51
ag6
(g10
S'333333\xc3?'
p52
tp53
Rp54
ag6
(g10
S'333333\xc3?'
p55
tp56
Rp57
ag6
(g10
S'\xa4p=\n\xd7\xa3\xc0?'
p58
tp59
Rp60
ag6
(g10
S'333333\xc3?'
p61
tp62
Rp63
ag6
(g10
S'\n\xd7\xa3p=\n\xc7?'
p64
tp65
Rp66
ag6
(g10
S'333333\xc3?'
p67
tp68
Rp69
ag6
(g10
S'333333\xc3?'
p70
tp71
Rp72
ag6
(g10
S'\xa4p=\n\xd7\xa3\xc0?'
p73
tp74
Rp75
ag6
(g10
S'\xa4p=\n\xd7\xa3\xc0?'
p76
tp77
Rp78
ag6
(g10
S'333333\xc3?'
p79
tp80
Rp81
ag6
(g10
S'\xb8\x1e\x85\xebQ\xb8\xbe?'
p82
tp83
Rp84
ag6
(g10
S'R\xb8\x1e\x85\xebQ\xc8?'
p85
tp86
Rp87
ag6
(g10
S'\xa4p=\n\xd7\xa3\xc0?'
p88
tp89
Rp90
ag6
(g10
S'\xa4p=\n\xd7\xa3\xc0?'
p91
tp92
Rp93
ag6
(g10
S'q=\n\xd7\xa3p\xcd?'
p94
tp95
Rp96
ag6
(g10
S'\xa4p=\n\xd7\xa3\xc0?'
p97
tp98
Rp99
ag6
(g10
S'\xa4p=\n\xd7\xa3\xc0?'
p100
tp101
Rp102
ag6
(g10
S'333333\xc3?'
p103
tp104
Rp105
ag6
(g10
S'\xa4p=\n\xd7\xa3\xc0?'
p106
tp107
Rp108
ag6
(g10
S'\xa4p=\n\xd7\xa3\xc0?'
p109
tp110
Rp111
ag6
(g10
S'\xa4p=\n\xd7\xa3\xc0?'
p112
tp113
Rp114
ag6
(g10
S'\xb8\x1e\x85\xebQ\xb8\xbe?'
p115
tp116
Rp117
ag6
(g10
S')\\\x8f\xc2\xf5(\xbc?'
p118
tp119
Rp120
ag6
(g10
S'q=\n\xd7\xa3p\xcd?'
p121
tp122
Rp123
ag6
(g10
S'q=\n\xd7\xa3p\xcd?'
p124
tp125
Rp126
ag6
(g10
S'\xa4p=\n\xd7\xa3\xc0?'
p127
tp128
Rp129
ag6
(g10
S'333333\xc3?'
p130
tp131
Rp132
ag6
(g10
S'\xb8\x1e\x85\xebQ\xb8\xbe?'
p133
tp134
Rp135
ag6
(g10
S'\xa4p=\n\xd7\xa3\xc0?'
p136
tp137
Rp138
ag6
(g10
S'\xa4p=\n\xd7\xa3\xc0?'
p139
tp140
Rp141
ag6
(g10
S'q=\n\xd7\xa3p\xcd?'
p142
tp143
Rp144
ag6
(g10
S'333333\xc3?'
p145
tp146
Rp147
ag6
(g10
S'333333\xc3?'
p148
tp149
Rp150
ag6
(g10
S'\xa4p=\n\xd7\xa3\xc0?'
p151
tp152
Rp153
ag6
(g10
S'\xa4p=\n\xd7\xa3\xc0?'
p154
tp155
Rp156
ag6
(g10
S'\n\xd7\xa3p=\n\xc7?'
p157
tp158
Rp159
ag6
(g10
S'\x9a\x99\x99\x99\x99\x99\xc9?'
p160
tp161
Rp162
ag6
(g10
S'\xa4p=\n\xd7\xa3\xc0?'
p163
tp164
Rp165
ag6
(g10
S'\xb8\x1e\x85\xebQ\xb8\xbe?'
p166
tp167
Rp168
ag6
(g10
S'q=\n\xd7\xa3p\xcd?'
p169
tp170
Rp171
ag6
(g10
S'333333\xc3?'
p172
tp173
Rp174
ag6
(g10
S'333333\xc3?'
p175
tp176
Rp177
ag6
(g10
S'q=\n\xd7\xa3p\xcd?'
p178
tp179
Rp180
ag6
(g10
S'333333\xc3?'
p181
tp182
Rp183
ag6
(g10
S'333333\xc3?'
p184
tp185
Rp186
ag6
(g10
S'\xb8\x1e\x85\xebQ\xb8\xbe?'
p187
tp188
Rp189
ag6
(g10
S'\xb8\x1e\x85\xebQ\xb8\xbe?'
p190
tp191
Rp192
aa(lp193
(lp194
I3
aS'distance'
p195
aa(lp196
I2
ag195
aa(lp197
I6
ag195
aa(lp198
I2
ag195
aa(lp199
I6
ag195
aa(lp200
I2
ag195
aa(lp201
I6
ag195
aa(lp202
I4
ag195
aa(lp203
I2
ag195
aa(lp204
I4
ag195
aa(lp205
I3
ag195
aa(lp206
I4
ag195
aa(lp207
I3
ag195
aa(lp208
I3
ag195
aa(lp209
I3
ag195
aa(lp210
I8
ag195
aa(lp211
I3
ag195
aa(lp212
I6
ag195
aa(lp213
I3
ag195
aa(lp214
I3
ag195
aa(lp215
I2
ag195
aa(lp216
I2
ag195
aa(lp217
I3
ag195
aa(lp218
I4
ag195
aa(lp219
I7
ag195
aa(lp220
I3
aS'uniform'
p221
aa(lp222
I3
ag221
aa(lp223
I5
ag195
aa(lp224
I2
ag195
aa(lp225
I3
ag221
aa(lp226
I3
ag195
aa(lp227
I2
ag195
aa(lp228
I2
ag195
aa(lp229
I2
ag195
aa(lp230
I4
ag195
aa(lp231
I10
ag221
aa(lp232
I5
ag195
aa(lp233
I5
ag195
aa(lp234
I2
ag195
aa(lp235
I3
ag195
aa(lp236
I4
ag195
aa(lp237
I2
ag195
aa(lp238
I2
ag195
aa(lp239
I5
ag195
aa(lp240
I3
ag195
aa(lp241
I3
ag195
aa(lp242
I2
ag195
aa(lp243
I2
ag195
aa(lp244
I6
ag195
aa(lp245
I5
ag221
aa(lp246
I3
ag221
aa(lp247
I4
ag195
aa(lp248
I5
ag195
aa(lp249
I3
ag195
aa(lp250
I3
ag195
aa(lp251
I5
ag195
aa(lp252
I3
ag195
aa(lp253
I3
ag195
aa(lp254
I4
ag195
aa(lp255
I4
ag195
aaaF6.491114139556885
asS'DTC'
p256
(lp257
(lp258
g6
(g10
S'\xc3\xf5(\\\x8f\xc2\xc5?'
p259
tp260
Rp261
ag6
(g10
S'\xe1z\x14\xaeG\xe1\xca?'
p262
tp263
Rp264
ag6
(g10
S'{\x14\xaeG\xe1z\xc4?'
p265
tp266
Rp267
ag6
(g10
S'q=\n\xd7\xa3p\xcd?'
p268
tp269
Rp270
ag6
(g10
S'\n\xd7\xa3p=\n\xc7?'
p271
tp272
Rp273
ag6
(g10
S'{\x14\xaeG\xe1z\xc4?'
p274
tp275
Rp276
ag6
(g10
S'\x9a\x99\x99\x99\x99\x99\xc9?'
p277
tp278
Rp279
ag6
(g10
S'\n\xd7\xa3p=\n\xc7?'
p280
tp281
Rp282
ag6
(g10
S'\x9a\x99\x99\x99\x99\x99\xc9?'
p283
tp284
Rp285
ag6
(g10
S'\xa4p=\n\xd7\xa3\xc0?'
p286
tp287
Rp288
ag6
(g10
S'\xecQ\xb8\x1e\x85\xeb\xc1?'
p289
tp290
Rp291
ag6
(g10
S'\x8f\xc2\xf5(\\\x8f\xd2?'
p292
tp293
Rp294
ag6
(g10
S'\xecQ\xb8\x1e\x85\xeb\xc1?'
p295
tp296
Rp297
ag6
(g10
S'\n\xd7\xa3p=\n\xc7?'
p298
tp299
Rp300
ag6
(g10
S'{\x14\xaeG\xe1z\xc4?'
p301
tp302
Rp303
ag6
(g10
S'333333\xc3?'
p304
tp305
Rp306
ag6
(g10
S'333333\xc3?'
p307
tp308
Rp309
ag6
(g10
S'\x9a\x99\x99\x99\x99\x99\xb9?'
p310
tp311
Rp312
ag6
(g10
S'\xc3\xf5(\\\x8f\xc2\xc5?'
p313
tp314
Rp315
ag6
(g10
S'\xa4p=\n\xd7\xa3\xd0?'
p316
tp317
Rp318
ag6
(g10
S'R\xb8\x1e\x85\xebQ\xc8?'
p319
tp320
Rp321
ag6
(g10
S'\x9a\x99\x99\x99\x99\x99\xc9?'
p322
tp323
Rp324
ag6
(g10
S'\n\xd7\xa3p=\n\xc7?'
p325
tp326
Rp327
ag6
(g10
S')\\\x8f\xc2\xf5(\xcc?'
p328
tp329
Rp330
ag6
(g10
S'{\x14\xaeG\xe1z\xb4?'
p331
tp332
Rp333
ag6
(g10
S'\x00\x00\x00\x00\x00\x00\xd0?'
p334
tp335
Rp336
ag6
(g10
S')\\\x8f\xc2\xf5(\xbc?'
p337
tp338
Rp339
ag6
(g10
S'q=\n\xd7\xa3p\xcd?'
p340
tp341
Rp342
ag6
(g10
S'\n\xd7\xa3p=\n\xc7?'
p343
tp344
Rp345
ag6
(g10
S'H\xe1z\x14\xaeG\xd1?'
p346
tp347
Rp348
ag6
(g10
S'\x1f\x85\xebQ\xb8\x1e\xd5?'
p349
tp350
Rp351
ag6
(g10
S'R\xb8\x1e\x85\xebQ\xc8?'
p352
tp353
Rp354
ag6
(g10
S'333333\xc3?'
p355
tp356
Rp357
ag6
(g10
S'{\x14\xaeG\xe1z\xc4?'
p358
tp359
Rp360
ag6
(g10
S'R\xb8\x1e\x85\xebQ\xc8?'
p361
tp362
Rp363
ag6
(g10
S')\\\x8f\xc2\xf5(\xcc?'
p364
tp365
Rp366
ag6
(g10
S'\xecQ\xb8\x1e\x85\xeb\xc1?'
p367
tp368
Rp369
ag6
(g10
S')\\\x8f\xc2\xf5(\xcc?'
p370
tp371
Rp372
ag6
(g10
S'333333\xc3?'
p373
tp374
Rp375
ag6
(g10
S')\\\x8f\xc2\xf5(\xcc?'
p376
tp377
Rp378
ag6
(g10
S'\xc3\xf5(\\\x8f\xc2\xc5?'
p379
tp380
Rp381
ag6
(g10
S'\n\xd7\xa3p=\n\xb7?'
p382
tp383
Rp384
ag6
(g10
S'\xb8\x1e\x85\xebQ\xb8\xce?'
p385
tp386
Rp387
ag6
(g10
S')\\\x8f\xc2\xf5(\xcc?'
p388
tp389
Rp390
ag6
(g10
S')\\\x8f\xc2\xf5(\xbc?'
p391
tp392
Rp393
ag6
(g10
S'\xecQ\xb8\x1e\x85\xeb\xc1?'
p394
tp395
Rp396
ag6
(g10
S'\xc3\xf5(\\\x8f\xc2\xc5?'
p397
tp398
Rp399
ag6
(g10
S'q=\n\xd7\xa3p\xcd?'
p400
tp401
Rp402
ag6
(g10
S'\xe1z\x14\xaeG\xe1\xca?'
p403
tp404
Rp405
ag6
(g10
S'333333\xc3?'
p406
tp407
Rp408
ag6
(g10
S'\n\xd7\xa3p=\n\xc7?'
p409
tp410
Rp411
ag6
(g10
S'\n\xd7\xa3p=\n\xc7?'
p412
tp413
Rp414
ag6
(g10
S'{\x14\xaeG\xe1z\xc4?'
p415
tp416
Rp417
ag6
(g10
S'\xe1z\x14\xaeG\xe1\xca?'
p418
tp419
Rp420
ag6
(g10
S'\xecQ\xb8\x1e\x85\xeb\xc1?'
p421
tp422
Rp423
ag6
(g10
S'\xecQ\xb8\x1e\x85\xeb\xd1?'
p424
tp425
Rp426
ag6
(g10
S'q=\n\xd7\xa3p\xcd?'
p427
tp428
Rp429
ag6
(g10
S'\xc3\xf5(\\\x8f\xc2\xc5?'
p430
tp431
Rp432
ag6
(g10
S')\\\x8f\xc2\xf5(\xcc?'
p433
tp434
Rp435
ag6
(g10
S'\x8f\xc2\xf5(\\\x8f\xd2?'
p436
tp437
Rp438
aa(lp439
(lp440
S'entropy'
p441
aF0.9807578458655657
aI27
aI3
aI17
aa(lp442
g441
aF0.553039071044466
aI11
aI4
aI17
aa(lp443
g441
aF0.7199729651382853
aI17
aI4
aI21
aa(lp444
S'gini'
p445
aF0.5646638965019802
aI25
aI11
aI8
aa(lp446
g445
aF0.7974027136641677
aI4
aI12
aI18
aa(lp447
g445
aF0.9271773332170032
aI22
aI13
aI11
aa(lp448
g441
aF0.5164714143070289
aI2
aI16
aI11
aa(lp449
g445
aF0.18513000152206982
aI30
aI8
aI20
aa(lp450
g441
aF0.2336433362537236
aI29
aI15
aI12
aa(lp451
g445
aF0.3952151177262099
aI5
aI1
aI11
aa(lp452
g445
aF0.48871815342631686
aI27
aI1
aI15
aa(lp453
g441
aF0.4541914715155456
aI23
aI1
aI3
aa(lp454
g441
aF0.7563113663963479
aI13
aI1
aI14
aa(lp455
g441
aF0.9889467893208581
aI30
aI5
aI20
aa(lp456
g441
aF0.537284181164872
aI27
aI16
aI7
aa(lp457
g445
aF0.15843753122511495
aI8
aI11
aI8
aa(lp458
g445
aF0.5556224496833747
aI11
aI9
aI14
aa(lp459
g441
aF0.2617899575656884
aI3
aI7
aI6
aa(lp460
g441
aF0.7179145856959376
aI7
aI17
aI8
aa(lp461
g441
aF0.37180217431667884
aI23
aI2
aI18
aa(lp462
g445
aF0.37741328441489397
aI24
aI11
aI13
aa(lp463
g441
aF0.5313173986450174
aI20
aI1
aI17
aa(lp464
g441
aF0.6572261817530031
aI15
aI1
aI11
aa(lp465
g441
aF0.6594886462147136
aI12
aI12
aI8
aa(lp466
g441
aF0.24759011613915616
aI23
aI2
aI18
aa(lp467
g441
aF0.9891506833232356
aI4
aI6
aI6
aa(lp468
g445
aF0.6365595634842981
aI10
aI4
aI8
aa(lp469
g445
aF0.4008010690141681
aI15
aI2
aI21
aa(lp470
g441
aF0.6764402301962628
aI20
aI2
aI13
aa(lp471
g441
aF0.7102095057327769
aI21
aI7
aI17
aa(lp472
g441
aF0.27267371713396027
aI4
aI10
aI7
aa(lp473
g441
aF0.15479707152134334
aI4
aI1
aI16
aa(lp474
g441
aF0.6347619465896386
aI23
aI11
aI16
aa(lp475
g441
aF0.9446603241099814
aI28
aI1
aI13
aa(lp476
g445
aF0.8498993187286179
aI9
aI17
aI8
aa(lp477
g441
aF0.7251784990433612
aI13
aI15
aI11
aa(lp478
g441
aF0.7691445859683581
aI7
aI13
aI18
aa(lp479
g445
aF0.8265984323445911
aI11
aI14
aI16
aa(lp480
g441
aF0.8739239773121374
aI12
aI9
aI21
aa(lp481
g441
aF0.46129338106158857
aI28
aI1
aI10
aa(lp482
g441
aF0.8032871634550232
aI22
aI4
aI16
aa(lp483
g445
aF0.2310481492975897
aI18
aI5
aI21
aa(lp484
g441
aF0.3065762645146928
aI12
aI1
aI13
aa(lp485
g441
aF0.9841972939723929
aI25
aI13
aI18
aa(lp486
g441
aF0.6482243069509653
aI2
aI5
aI16
aa(lp487
g441
aF0.7586252238739604
aI17
aI8
aI11
aa(lp488
g445
aF0.5699056355172405
aI5
aI13
aI14
aa(lp489
g441
aF0.8319035803011643
aI24
aI4
aI12
aa(lp490
g445
aF0.5452396327088781
aI21
aI3
aI11
aa(lp491
g445
aF0.777468434807205
aI2
aI1
aI19
aa(lp492
g445
aF0.5461759846868661
aI18
aI7
aI13
aa(lp493
g441
aF0.8500252763645051
aI5
aI10
aI19
aa(lp494
g441
aF0.8010404194683929
aI8
aI11
aI19
aa(lp495
g441
aF0.8532717557047946
aI7
aI18
aI9
aa(lp496
g445
aF0.2380505807408853
aI20
aI4
aI9
aa(lp497
g441
aF0.17643884820115646
aI5
aI1
aI21
aa(lp498
g441
aF0.5345772293681896
aI9
aI9
aI15
aa(lp499
g445
aF0.8711632021661648
aI4
aI2
aI15
aa(lp500
g441
aF0.1517100441365056
aI7
aI6
aI7
aa(lp501
g445
aF0.6902288449704713
aI24
aI15
aI9
aaaF5.139885187149048
asS'RF'
p502
(lp503
(lp504
g6
(g10
S'\x9a\x99\x99\x99\x99\x99\xc9?'
p505
tp506
Rp507
ag6
(g10
S'\xa4p=\n\xd7\xa3\xd0?'
p508
tp509
Rp510
ag6
(g10
S'333333\xd3?'
p511
tp512
Rp513
ag6
(g10
S'\xe1z\x14\xaeG\xe1\xca?'
p514
tp515
Rp516
ag6
(g10
S'R\xb8\x1e\x85\xebQ\xc8?'
p517
tp518
Rp519
ag6
(g10
S')\\\x8f\xc2\xf5(\xcc?'
p520
tp521
Rp522
ag6
(g10
S'\xe1z\x14\xaeG\xe1\xca?'
p523
tp524
Rp525
ag6
(g10
S'\n\xd7\xa3p=\n\xc7?'
p526
tp527
Rp528
ag6
(g10
S'q=\n\xd7\xa3p\xcd?'
p529
tp530
Rp531
ag6
(g10
S'\xe1z\x14\xaeG\xe1\xca?'
p532
tp533
Rp534
ag6
(g10
S'\xa4p=\n\xd7\xa3\xc0?'
p535
tp536
Rp537
ag6
(g10
S')\\\x8f\xc2\xf5(\xcc?'
p538
tp539
Rp540
ag6
(g10
S'\xe1z\x14\xaeG\xe1\xca?'
p541
tp542
Rp543
ag6
(g10
S'\xecQ\xb8\x1e\x85\xeb\xc1?'
p544
tp545
Rp546
ag6
(g10
S'q=\n\xd7\xa3p\xcd?'
p547
tp548
Rp549
ag6
(g10
S')\\\x8f\xc2\xf5(\xcc?'
p550
tp551
Rp552
ag6
(g10
S'\xb8\x1e\x85\xebQ\xb8\xce?'
p553
tp554
Rp555
ag6
(g10
S'R\xb8\x1e\x85\xebQ\xc8?'
p556
tp557
Rp558
ag6
(g10
S'\xe1z\x14\xaeG\xe1\xca?'
p559
tp560
Rp561
ag6
(g10
S'{\x14\xaeG\xe1z\xd4?'
p562
tp563
Rp564
ag6
(g10
S'\xe1z\x14\xaeG\xe1\xca?'
p565
tp566
Rp567
ag6
(g10
S'\xe1z\x14\xaeG\xe1\xca?'
p568
tp569
Rp570
ag6
(g10
S'\x00\x00\x00\x00\x00\x00\xd0?'
p571
tp572
Rp573
ag6
(g10
S'333333\xd3?'
p574
tp575
Rp576
ag6
(g10
S'\n\xd7\xa3p=\n\xc7?'
p577
tp578
Rp579
ag6
(g10
S'R\xb8\x1e\x85\xebQ\xc8?'
p580
tp581
Rp582
ag6
(g10
S'\xc3\xf5(\\\x8f\xc2\xc5?'
p583
tp584
Rp585
ag6
(g10
S'q=\n\xd7\xa3p\xcd?'
p586
tp587
Rp588
ag6
(g10
S'q=\n\xd7\xa3p\xcd?'
p589
tp590
Rp591
ag6
(g10
S'\x00\x00\x00\x00\x00\x00\xd0?'
p592
tp593
Rp594
ag6
(g10
S'\xe1z\x14\xaeG\xe1\xca?'
p595
tp596
Rp597
ag6
(g10
S')\\\x8f\xc2\xf5(\xcc?'
p598
tp599
Rp600
ag6
(g10
S'\xecQ\xb8\x1e\x85\xeb\xd1?'
p601
tp602
Rp603
ag6
(g10
S'\x00\x00\x00\x00\x00\x00\xd0?'
p604
tp605
Rp606
ag6
(g10
S'\xe1z\x14\xaeG\xe1\xca?'
p607
tp608
Rp609
ag6
(g10
S'\xb8\x1e\x85\xebQ\xb8\xce?'
p610
tp611
Rp612
ag6
(g10
S'\x00\x00\x00\x00\x00\x00\xd0?'
p613
tp614
Rp615
ag6
(g10
S'q=\n\xd7\xa3p\xcd?'
p616
tp617
Rp618
ag6
(g10
S'\x9a\x99\x99\x99\x99\x99\xc9?'
p619
tp620
Rp621
ag6
(g10
S'\n\xd7\xa3p=\n\xc7?'
p622
tp623
Rp624
ag6
(g10
S'\xb8\x1e\x85\xebQ\xb8\xce?'
p625
tp626
Rp627
ag6
(g10
S'\x9a\x99\x99\x99\x99\x99\xc9?'
p628
tp629
Rp630
ag6
(g10
S')\\\x8f\xc2\xf5(\xcc?'
p631
tp632
Rp633
ag6
(g10
S'\xb8\x1e\x85\xebQ\xb8\xce?'
p634
tp635
Rp636
ag6
(g10
S'\xe1z\x14\xaeG\xe1\xca?'
p637
tp638
Rp639
ag6
(g10
S'\xe1z\x14\xaeG\xe1\xca?'
p640
tp641
Rp642
ag6
(g10
S'\xb8\x1e\x85\xebQ\xb8\xce?'
p643
tp644
Rp645
ag6
(g10
S'\xecQ\xb8\x1e\x85\xeb\xd1?'
p646
tp647
Rp648
ag6
(g10
S'\n\xd7\xa3p=\n\xc7?'
p649
tp650
Rp651
ag6
(g10
S'R\xb8\x1e\x85\xebQ\xc8?'
p652
tp653
Rp654
ag6
(g10
S'\xe1z\x14\xaeG\xe1\xca?'
p655
tp656
Rp657
ag6
(g10
S'\x9a\x99\x99\x99\x99\x99\xc9?'
p658
tp659
Rp660
ag6
(g10
S'R\xb8\x1e\x85\xebQ\xc8?'
p661
tp662
Rp663
ag6
(g10
S'\xb8\x1e\x85\xebQ\xb8\xce?'
p664
tp665
Rp666
ag6
(g10
S'q=\n\xd7\xa3p\xcd?'
p667
tp668
Rp669
ag6
(g10
S'q=\n\xd7\xa3p\xcd?'
p670
tp671
Rp672
ag6
(g10
S'\xe1z\x14\xaeG\xe1\xca?'
p673
tp674
Rp675
ag6
(g10
S'\xe1z\x14\xaeG\xe1\xca?'
p676
tp677
Rp678
ag6
(g10
S'\xb8\x1e\x85\xebQ\xb8\xce?'
p679
tp680
Rp681
ag6
(g10
S'q=\n\xd7\xa3p\xcd?'
p682
tp683
Rp684
aa(lp685
(lp686
g441
aF0.9910197019425554
aI13
aI1
aI65
aa(lp687
g441
aF0.6924719555796005
aI7
aI4
aI59
aa(lp688
g441
aF0.8962799995475994
aI4
aI2
aI74
aa(lp689
g441
aF0.5662130213723732
aI2
aI1
aI10
aa(lp690
g445
aF0.8095449601426592
aI5
aI1
aI68
aa(lp691
g441
aF0.8383238148742561
aI30
aI1
aI17
aa(lp692
g445
aF0.3441388402572805
aI11
aI1
aI52
aa(lp693
g441
aF0.7171463383725444
aI3
aI1
aI77
aa(lp694
g445
aF0.5147507195247615
aI15
aI3
aI30
aa(lp695
g445
aF0.6184864380487501
aI14
aI2
aI40
aa(lp696
g441
aF0.4096587692040896
aI2
aI1
aI95
aa(lp697
g445
aF0.6527096601654513
aI28
aI1
aI27
aa(lp698
g445
aF0.4644299141157967
aI11
aI4
aI16
aa(lp699
g445
aF0.2322466926783922
aI5
aI1
aI56
aa(lp700
g445
aF0.85701804184405
aI5
aI3
aI26
aa(lp701
g445
aF0.97762268301127
aI14
aI4
aI21
aa(lp702
g441
aF0.8180001035826306
aI3
aI2
aI56
aa(lp703
g445
aF0.7252218516878968
aI10
aI2
aI18
aa(lp704
g441
aF0.6541498529223898
aI9
aI6
aI37
aa(lp705
g445
aF0.748541174208754
aI5
aI2
aI10
aa(lp706
g441
aF0.6171324937149245
aI11
aI7
aI33
aa(lp707
g445
aF0.45557165797197385
aI16
aI1
aI90
aa(lp708
g441
aF0.899810301836975
aI20
aI4
aI51
aa(lp709
g441
aF0.9583407974314243
aI2
aI5
aI76
aa(lp710
g441
aF0.726314554719581
aI7
aI3
aI29
aa(lp711
g441
aF0.48781908314671907
aI4
aI2
aI68
aa(lp712
g445
aF0.9586959926192644
aI6
aI1
aI37
aa(lp713
g445
aF0.46226155742329
aI14
aI1
aI70
aa(lp714
g441
aF0.8193019293095095
aI15
aI2
aI35
aa(lp715
g445
aF0.8091785317422107
aI23
aI2
aI54
aa(lp716
g441
aF0.77408867427686
aI26
aI8
aI11
aa(lp717
g441
aF0.26458337111733826
aI15
aI2
aI31
aa(lp718
g445
aF0.8764322609584905
aI7
aI2
aI16
aa(lp719
g441
aF0.6305700859810449
aI8
aI2
aI99
aa(lp720
g441
aF0.835984028608998
aI16
aI4
aI33
aa(lp721
g445
aF0.5863056970351751
aI8
aI7
aI12
aa(lp722
g441
aF0.9833381060129575
aI21
aI3
aI81
aa(lp723
g441
aF0.844716858449926
aI17
aI4
aI91
aa(lp724
g445
aF0.9418521243799433
aI23
aI2
aI23
aa(lp725
g445
aF0.8067123555710192
aI2
aI2
aI34
aa(lp726
g441
aF0.8510121375424619
aI27
aI3
aI34
aa(lp727
g445
aF0.3309234246938637
aI7
aI1
aI28
aa(lp728
g441
aF0.5409309915544301
aI14
aI2
aI82
aa(lp729
g441
aF0.7503523168773446
aI7
aI6
aI74
aa(lp730
g445
aF0.8791487586639971
aI3
aI3
aI46
aa(lp731
g441
aF0.8712033901002125
aI20
aI5
aI10
aa(lp732
g445
aF0.5532247819007502
aI2
aI2
aI95
aa(lp733
g441
aF0.6645280585927904
aI7
aI2
aI86
aa(lp734
g445
aF0.7375800873908138
aI6
aI1
aI66
aa(lp735
g445
aF0.45498311083247556
aI7
aI3
aI36
aa(lp736
g441
aF0.9153611690948182
aI9
aI5
aI99
aa(lp737
g441
aF0.7850050157673621
aI13
aI2
aI40
aa(lp738
g441
aF0.46288525305071204
aI5
aI1
aI99
aa(lp739
g445
aF0.488153217261159
aI13
aI4
aI47
aa(lp740
g445
aF0.7881103097851937
aI22
aI1
aI75
aa(lp741
g441
aF0.9031081155429339
aI10
aI7
aI80
aa(lp742
g441
aF0.9630253496299424
aI22
aI3
aI10
aa(lp743
g445
aF0.5344931125717469
aI13
aI4
aI33
aa(lp744
g441
aF0.7105029756258171
aI8
aI2
aI48
aa(lp745
g445
aF0.944093714453123
aI19
aI5
aI14
aaaF666.0758728981018
asS'SVM'
p746
(lp747
(lp748
g6
(g10
S'\x00\x00\x00\x00\x00\x00\x00\x00'
p749
tp750
Rp751
ag6
(g10
S'\x00\x00\x00\x00\x00\x00\x00\x00'
p752
tp753
Rp754
ag6
(g10
S'\xb8\x1e\x85\xebQ\xb8\x9e?'
p755
tp756
Rp757
ag6
(g10
S'\xb8\x1e\x85\xebQ\xb8\x9e?'
p758
tp759
Rp760
ag6
(g10
S'\x00\x00\x00\x00\x00\x00\x00\x00'
p761
tp762
Rp763
ag6
(g10
S'\x00\x00\x00\x00\x00\x00\x00\x00'
p764
tp765
Rp766
ag6
(g10
S'\x00\x00\x00\x00\x00\x00\x00\x00'
p767
tp768
Rp769
ag6
(g10
S'\x00\x00\x00\x00\x00\x00\x00\x00'
p770
tp771
Rp772
ag6
(g10
S'\x00\x00\x00\x00\x00\x00\x00\x00'
p773
tp774
Rp775
ag6
(g10
S'\x00\x00\x00\x00\x00\x00\x00\x00'
p776
tp777
Rp778
ag6
(g10
S'\xb8\x1e\x85\xebQ\xb8\x9e?'
p779
tp780
Rp781
ag6
(g10
S'\x00\x00\x00\x00\x00\x00\x00\x00'
p782
tp783
Rp784
ag6
(g10
S'\x00\x00\x00\x00\x00\x00\x00\x00'
p785
tp786
Rp787
ag6
(g10
S'\xb8\x1e\x85\xebQ\xb8\x9e?'
p788
tp789
Rp790
ag6
(g10
S'\x00\x00\x00\x00\x00\x00\x00\x00'
p791
tp792
Rp793
ag6
(g10
S'\x00\x00\x00\x00\x00\x00\x00\x00'
p794
tp795
Rp796
ag6
(g10
S'\x00\x00\x00\x00\x00\x00\x00\x00'
p797
tp798
Rp799
ag6
(g10
S'\xb8\x1e\x85\xebQ\xb8\x9e?'
p800
tp801
Rp802
ag6
(g10
S'\xb8\x1e\x85\xebQ\xb8\x9e?'
p803
tp804
Rp805
ag6
(g10
S'\x00\x00\x00\x00\x00\x00\x00\x00'
p806
tp807
Rp808
ag6
(g10
S'\x00\x00\x00\x00\x00\x00\x00\x00'
p809
tp810
Rp811
ag6
(g10
S'\x00\x00\x00\x00\x00\x00\x00\x00'
p812
tp813
Rp814
ag6
(g10
S'\x00\x00\x00\x00\x00\x00\x00\x00'
p815
tp816
Rp817
ag6
(g10
S'\x00\x00\x00\x00\x00\x00\x00\x00'
p818
tp819
Rp820
ag6
(g10
S'\x00\x00\x00\x00\x00\x00\x00\x00'
p821
tp822
Rp823
ag6
(g10
S'\x00\x00\x00\x00\x00\x00\x00\x00'
p824
tp825
Rp826
ag6
(g10
S'\x00\x00\x00\x00\x00\x00\x00\x00'
p827
tp828
Rp829
ag6
(g10
S'\x00\x00\x00\x00\x00\x00\x00\x00'
p830
tp831
Rp832
ag6
(g10
S'\x00\x00\x00\x00\x00\x00\x00\x00'
p833
tp834
Rp835
ag6
(g10
S'\x00\x00\x00\x00\x00\x00\x00\x00'
p836
tp837
Rp838
ag6
(g10
S'\x00\x00\x00\x00\x00\x00\x00\x00'
p839
tp840
Rp841
ag6
(g10
S'\x00\x00\x00\x00\x00\x00\x00\x00'
p842
tp843
Rp844
ag6
(g10
S'\xb8\x1e\x85\xebQ\xb8\x9e?'
p845
tp846
Rp847
ag6
(g10
S'\x00\x00\x00\x00\x00\x00\x00\x00'
p848
tp849
Rp850
ag6
(g10
S'\x00\x00\x00\x00\x00\x00\x00\x00'
p851
tp852
Rp853
ag6
(g10
S'\x00\x00\x00\x00\x00\x00\x00\x00'
p854
tp855
Rp856
ag6
(g10
S'\x00\x00\x00\x00\x00\x00\x00\x00'
p857
tp858
Rp859
ag6
(g10
S'\xb8\x1e\x85\xebQ\xb8\x9e?'
p860
tp861
Rp862
ag6
(g10
S'\xb8\x1e\x85\xebQ\xb8\x9e?'
p863
tp864
Rp865
ag6
(g10
S'\x00\x00\x00\x00\x00\x00\x00\x00'
p866
tp867
Rp868
ag6
(g10
S'\x00\x00\x00\x00\x00\x00\x00\x00'
p869
tp870
Rp871
ag6
(g10
S'\x00\x00\x00\x00\x00\x00\x00\x00'
p872
tp873
Rp874
ag6
(g10
S'\x00\x00\x00\x00\x00\x00\x00\x00'
p875
tp876
Rp877
ag6
(g10
S'\x00\x00\x00\x00\x00\x00\x00\x00'
p878
tp879
Rp880
ag6
(g10
S'\x00\x00\x00\x00\x00\x00\x00\x00'
p881
tp882
Rp883
ag6
(g10
S'\x00\x00\x00\x00\x00\x00\x00\x00'
p884
tp885
Rp886
ag6
(g10
S'\x00\x00\x00\x00\x00\x00\x00\x00'
p887
tp888
Rp889
ag6
(g10
S'\x00\x00\x00\x00\x00\x00\x00\x00'
p890
tp891
Rp892
ag6
(g10
S'\x00\x00\x00\x00\x00\x00\x00\x00'
p893
tp894
Rp895
ag6
(g10
S'\xb8\x1e\x85\xebQ\xb8\x9e?'
p896
tp897
Rp898
ag6
(g10
S'\x00\x00\x00\x00\x00\x00\x00\x00'
p899
tp900
Rp901
ag6
(g10
S'\x00\x00\x00\x00\x00\x00\x00\x00'
p902
tp903
Rp904
ag6
(g10
S'\x00\x00\x00\x00\x00\x00\x00\x00'
p905
tp906
Rp907
ag6
(g10
S'\x00\x00\x00\x00\x00\x00\x00\x00'
p908
tp909
Rp910
ag6
(g10
S'\x00\x00\x00\x00\x00\x00\x00\x00'
p911
tp912
Rp913
ag6
(g10
S'\x00\x00\x00\x00\x00\x00\x00\x00'
p914
tp915
Rp916
ag6
(g10
S'\x00\x00\x00\x00\x00\x00\x00\x00'
p917
tp918
Rp919
ag6
(g10
S'\x00\x00\x00\x00\x00\x00\x00\x00'
p920
tp921
Rp922
ag6
(g10
S'\xb8\x1e\x85\xebQ\xb8\x9e?'
p923
tp924
Rp925
ag6
(g10
S'\x00\x00\x00\x00\x00\x00\x00\x00'
p926
tp927
Rp928
aa(lp929
(lp930
I49
aS'sigmoid'
p931
aF0.9256634006957717
aF0.9088645211161656
aa(lp932
I57
ag931
aF0.1595723569650538
aF0.8103023585592666
aa(lp933
I49
ag931
aF0.19435876032148652
aF0.5369151570789853
aa(lp934
I71
ag931
aF0.6648338124536174
aF0.4970895907237025
aa(lp935
I28
ag931
aF0.9018052556081153
aF0.6974596352126841
aa(lp936
I100
ag931
aF0.8667930694830773
aF0.6781231559170963
aa(lp937
I75
ag931
aF0.9692731194863387
aF0.8289678426359716
aa(lp938
I16
ag931
aF0.27402979025065655
aF0.2687666747871116
aa(lp939
I22
ag931
aF0.28534171242953144
aF0.5626405050622983
aa(lp940
I70
ag931
aF0.846728931541741
aF0.29139590757910305
aa(lp941
I88
ag931
aF0.2162825583308124
aF0.8160518433824636
aa(lp942
I31
ag931
aF0.8892705643935025
aF0.38435306375361067
aa(lp943
I22
ag931
aF0.33003445990080865
aF0.9549852514681446
aa(lp944
I77
ag931
aF0.2140520039770022
aF0.549455557101162
aa(lp945
I26
ag931
aF0.44687813267856114
aF0.6924396799249771
aa(lp946
I12
ag931
aF0.6414751452482619
aF0.4623675456784784
aa(lp947
I36
ag931
aF0.7761897802170139
aF0.42657194993075576
aa(lp948
I98
ag931
aF0.5432034290142422
aF0.5426889497404804
aa(lp949
I65
ag931
aF0.5746149681276006
aF0.5484597613533123
aa(lp950
I61
ag931
aF0.8540988891980987
aF0.5695864928080911
aa(lp951
I86
ag931
aF0.37304938139743116
aF0.30116290691372627
aa(lp952
I57
ag931
aF0.6803492941236882
aF0.5585385496204761
aa(lp953
I69
ag931
aF0.27866094401516806
aF0.7752669189543254
aa(lp954
I53
ag931
aF0.2196401847376107
aF0.7897389234211948
aa(lp955
I66
ag931
aF0.35061392034369343
aF0.3919767827768127
aa(lp956
I10
ag931
aF0.6561629204525989
aF0.33430609005294276
aa(lp957
I75
ag931
aF0.3940077654108164
aF0.1297093656870917
aa(lp958
I41
ag931
aF0.2781577521029523
aF0.2252463017070665
aa(lp959
I66
ag931
aF0.7984038320471578
aF0.78135009626979
aa(lp960
I36
ag931
aF0.8312407343434179
aF0.11314818529927023
aa(lp961
I55
ag931
aF0.9725683372253936
aF0.3054204433332951
aa(lp962
I93
ag931
aF0.5838303528915307
aF0.9107135914935908
aa(lp963
I63
ag931
aF0.13176546591750654
aF0.4666743219919579
aa(lp964
I74
ag931
aF0.7476255061985366
aF0.644556332611769
aa(lp965
I66
ag931
aF0.8342399935617381
aF0.6341991839333478
aa(lp966
I38
ag931
aF0.770886873320847
aF0.7018281927024453
aa(lp967
I51
ag931
aF0.6565150451930235
aF0.8530475855963663
aa(lp968
I98
ag931
aF0.5659326270136205
aF0.6546773452170409
aa(lp969
I91
ag931
aF0.1352818109602545
aF0.7121687204961484
aa(lp970
I97
ag931
aF0.42039248831032217
aF0.1615270158161574
aa(lp971
I24
ag931
aF0.5954646193670451
aF0.870351516155813
aa(lp972
I31
ag931
aF0.2696193085468431
aF0.5422676915135725
aa(lp973
I62
ag931
aF0.58378245288646
aF0.9092288312647578
aa(lp974
I3
ag931
aF0.22858659753240654
aF0.4221582034808645
aa(lp975
I79
ag931
aF0.8191848080701765
aF0.4566370241240454
aa(lp976
I11
ag931
aF0.35215964664599153
aF0.6296845055655781
aa(lp977
I100
ag931
aF0.9536146463496487
aF0.7547271173961374
aa(lp978
I37
ag931
aF0.6607332309906154
aF0.5145880866258687
aa(lp979
I30
ag931
aF0.5004191755249315
aF0.9169735673943427
aa(lp980
I82
ag931
aF0.31221981398749354
aF0.6470668702228211
aa(lp981
I10
ag931
aF0.18775733172515652
aF0.314595420385012
aa(lp982
I8
aS'rbf'
p983
aF0.6565381975045834
aF0.49190895175100635
aa(lp984
I28
ag931
aF0.7036889506262137
aF0.6586911371098849
aa(lp985
I32
ag931
aF0.6573929904183856
aF0.3074326838746693
aa(lp986
I29
ag931
aF0.8211500808430816
aF0.4608464630483958
aa(lp987
I66
ag931
aF0.49035565735423225
aF0.15083876667986262
aa(lp988
I99
ag931
aF0.7393575669193556
aF0.7723728679476685
aa(lp989
I6
ag931
aF0.3919354313118869
aF0.5779239854982546
aa(lp990
I88
ag931
aF0.6491326088719858
aF0.517479761088128
aa(lp991
I93
ag931
aF0.7080419237232337
aF0.8432443391066868
aaaF30.744066953659058
assS'precision'
p992
(dp993
g3
(lp994
(lp995
g6
(g10
S'\xa4p=\n\xd7\xa3\xc0?'
p996
tp997
Rp998
ag6
(g10
S'\n\xd7\xa3p=\n\xb7?'
p999
tp1000
Rp1001
ag6
(g10
S'\xa4p=\n\xd7\xa3\xc0?'
p1002
tp1003
Rp1004
ag6
(g10
S'\n\xd7\xa3p=\n\xb7?'
p1005
tp1006
Rp1007
ag6
(g10
S'\x8f\xc2\xf5(\\\x8f\xd2?'
p1008
tp1009
Rp1010
ag6
(g10
S'\xecQ\xb8\x1e\x85\xeb\xc1?'
p1011
tp1012
Rp1013
ag6
(g10
S'\xecQ\xb8\x1e\x85\xeb\xc1?'
p1014
tp1015
Rp1016
ag6
(g10
S'\x9a\x99\x99\x99\x99\x99\xc9?'
p1017
tp1018
Rp1019
ag6
(g10
S'\x9a\x99\x99\x99\x99\x99\xc9?'
p1020
tp1021
Rp1022
ag6
(g10
S'\x00\x00\x00\x00\x00\x00\xd0?'
p1023
tp1024
Rp1025
ag6
(g10
S'\n\xd7\xa3p=\n\xb7?'
p1026
tp1027
Rp1028
ag6
(g10
S'\xa4p=\n\xd7\xa3\xc0?'
p1029
tp1030
Rp1031
ag6
(g10
S'\x00\x00\x00\x00\x00\x00\xd0?'
p1032
tp1033
Rp1034
ag6
(g10
S'\x9a\x99\x99\x99\x99\x99\xc9?'
p1035
tp1036
Rp1037
ag6
(g10
S'\xecQ\xb8\x1e\x85\xeb\xc1?'
p1038
tp1039
Rp1040
ag6
(g10
S'\n\xd7\xa3p=\n\xc7?'
p1041
tp1042
Rp1043
ag6
(g10
S'\x00\x00\x00\x00\x00\x00\xd0?'
p1044
tp1045
Rp1046
ag6
(g10
S'\xecQ\xb8\x1e\x85\xeb\xc1?'
p1047
tp1048
Rp1049
ag6
(g10
S'\n\xd7\xa3p=\n\xb7?'
p1050
tp1051
Rp1052
ag6
(g10
S'\xecQ\xb8\x1e\x85\xeb\xc1?'
p1053
tp1054
Rp1055
ag6
(g10
S'{\x14\xaeG\xe1z\xc4?'
p1056
tp1057
Rp1058
ag6
(g10
S'\x9a\x99\x99\x99\x99\x99\xb9?'
p1059
tp1060
Rp1061
ag6
(g10
S'\n\xd7\xa3p=\n\xc7?'
p1062
tp1063
Rp1064
ag6
(g10
S'\x00\x00\x00\x00\x00\x00\xd0?'
p1065
tp1066
Rp1067
ag6
(g10
S'\x00\x00\x00\x00\x00\x00\xd0?'
p1068
tp1069
Rp1070
ag6
(g10
S'\x9a\x99\x99\x99\x99\x99\xc9?'
p1071
tp1072
Rp1073
ag6
(g10
S'\xa4p=\n\xd7\xa3\xc0?'
p1074
tp1075
Rp1076
ag6
(g10
S'\x8f\xc2\xf5(\\\x8f\xd2?'
p1077
tp1078
Rp1079
ag6
(g10
S'{\x14\xaeG\xe1z\xb4?'
p1080
tp1081
Rp1082
ag6
(g10
S'{\x14\xaeG\xe1z\xc4?'
p1083
tp1084
Rp1085
ag6
(g10
S'\x00\x00\x00\x00\x00\x00\xd0?'
p1086
tp1087
Rp1088
ag6
(g10
S'333333\xc3?'
p1089
tp1090
Rp1091
ag6
(g10
S'\xa4p=\n\xd7\xa3\xc0?'
p1092
tp1093
Rp1094
ag6
(g10
S'\x00\x00\x00\x00\x00\x00\xd0?'
p1095
tp1096
Rp1097
ag6
(g10
S'\xc3\xf5(\\\x8f\xc2\xc5?'
p1098
tp1099
Rp1100
ag6
(g10
S'\n\xd7\xa3p=\n\xc7?'
p1101
tp1102
Rp1103
ag6
(g10
S'\xb8\x1e\x85\xebQ\xb8\xbe?'
p1104
tp1105
Rp1106
ag6
(g10
S'\n\xd7\xa3p=\n\xc7?'
p1107
tp1108
Rp1109
ag6
(g10
S'\n\xd7\xa3p=\n\xb7?'
p1110
tp1111
Rp1112
ag6
(g10
S'{\x14\xaeG\xe1z\xc4?'
p1113
tp1114
Rp1115
ag6
(g10
S'\x8f\xc2\xf5(\\\x8f\xd2?'
p1116
tp1117
Rp1118
ag6
(g10
S'\xa4p=\n\xd7\xa3\xc0?'
p1119
tp1120
Rp1121
ag6
(g10
S'\xa4p=\n\xd7\xa3\xc0?'
p1122
tp1123
Rp1124
ag6
(g10
S'\xecQ\xb8\x1e\x85\xeb\xc1?'
p1125
tp1126
Rp1127
ag6
(g10
S'\x9a\x99\x99\x99\x99\x99\xc9?'
p1128
tp1129
Rp1130
ag6
(g10
S'{\x14\xaeG\xe1z\xc4?'
p1131
tp1132
Rp1133
ag6
(g10
S'{\x14\xaeG\xe1z\xc4?'
p1134
tp1135
Rp1136
ag6
(g10
S'\xecQ\xb8\x1e\x85\xeb\xc1?'
p1137
tp1138
Rp1139
ag6
(g10
S'\xecQ\xb8\x1e\x85\xeb\xc1?'
p1140
tp1141
Rp1142
ag6
(g10
S'\x9a\x99\x99\x99\x99\x99\xc9?'
p1143
tp1144
Rp1145
ag6
(g10
S'\xecQ\xb8\x1e\x85\xeb\xc1?'
p1146
tp1147
Rp1148
ag6
(g10
S'\xc3\xf5(\\\x8f\xc2\xc5?'
p1149
tp1150
Rp1151
ag6
(g10
S'\x00\x00\x00\x00\x00\x00\xd0?'
p1152
tp1153
Rp1154
ag6
(g10
S'\xecQ\xb8\x1e\x85\xeb\xc1?'
p1155
tp1156
Rp1157
ag6
(g10
S'\x9a\x99\x99\x99\x99\x99\xb9?'
p1158
tp1159
Rp1160
ag6
(g10
S'\x9a\x99\x99\x99\x99\x99\xc9?'
p1161
tp1162
Rp1163
ag6
(g10
S'{\x14\xaeG\xe1z\xc4?'
p1164
tp1165
Rp1166
ag6
(g10
S'\xecQ\xb8\x1e\x85\xeb\xc1?'
p1167
tp1168
Rp1169
ag6
(g10
S'\x00\x00\x00\x00\x00\x00\xd0?'
p1170
tp1171
Rp1172
ag6
(g10
S'\n\xd7\xa3p=\n\xc7?'
p1173
tp1174
Rp1175
aa(lp1176
(lp1177
I10
ag195
aa(lp1178
I2
ag221
aa(lp1179
I10
ag195
aa(lp1180
I3
ag221
aa(lp1181
I8
ag221
aa(lp1182
I9
ag195
aa(lp1183
I9
ag195
aa(lp1184
I10
ag221
aa(lp1185
I10
ag221
aa(lp1186
I4
ag221
aa(lp1187
I2
ag221
aa(lp1188
I10
ag195
aa(lp1189
I6
ag221
aa(lp1190
I10
ag221
aa(lp1191
I9
ag195
aa(lp1192
I5
ag195
aa(lp1193
I4
ag221
aa(lp1194
I9
ag195
aa(lp1195
I2
ag221
aa(lp1196
I9
ag195
aa(lp1197
I7
ag195
aa(lp1198
I3
ag195
aa(lp1199
I5
ag195
aa(lp1200
I6
ag221
aa(lp1201
I6
ag221
aa(lp1202
I10
ag221
aa(lp1203
I10
ag195
aa(lp1204
I8
ag221
aa(lp1205
I4
ag195
aa(lp1206
I7
ag195
aa(lp1207
I4
ag221
aa(lp1208
I6
ag195
aa(lp1209
I10
ag195
aa(lp1210
I6
ag221
aa(lp1211
I9
ag221
aa(lp1212
I5
ag195
aa(lp1213
I8
ag195
aa(lp1214
I5
ag195
aa(lp1215
I2
ag221
aa(lp1216
I7
ag195
aa(lp1217
I8
ag221
aa(lp1218
I10
ag195
aa(lp1219
I10
ag195
aa(lp1220
I9
ag195
aa(lp1221
I10
ag221
aa(lp1222
I7
ag195
aa(lp1223
I7
ag195
aa(lp1224
I9
ag195
aa(lp1225
I9
ag195
aa(lp1226
I10
ag221
aa(lp1227
I9
ag195
aa(lp1228
I9
ag221
aa(lp1229
I4
ag221
aa(lp1230
I9
ag195
aa(lp1231
I3
ag195
aa(lp1232
I10
ag221
aa(lp1233
I7
ag195
aa(lp1234
I9
ag195
aa(lp1235
I6
ag221
aa(lp1236
I5
ag195
aaaF6.331629991531372
asg256
(lp1237
(lp1238
g6
(g10
S'\xb8\x1e\x85\xebQ\xb8\xbe?'
p1239
tp1240
Rp1241
ag6
(g10
S'\x9a\x99\x99\x99\x99\x99\xd9?'
p1242
tp1243
Rp1244
ag6
(g10
S'R\xb8\x1e\x85\xebQ\xc8?'
p1245
tp1246
Rp1247
ag6
(g10
S'\xe1z\x14\xaeG\xe1\xca?'
p1248
tp1249
Rp1250
ag6
(g10
S'H\xe1z\x14\xaeG\xd1?'
p1251
tp1252
Rp1253
ag6
(g10
S'\xa4p=\n\xd7\xa3\xc0?'
p1254
tp1255
Rp1256
ag6
(g10
S'q=\n\xd7\xa3p\xcd?'
p1257
tp1258
Rp1259
ag6
(g10
S'\xecQ\xb8\x1e\x85\xeb\xc1?'
p1260
tp1261
Rp1262
ag6
(g10
S'R\xb8\x1e\x85\xebQ\xd8?'
p1263
tp1264
Rp1265
ag6
(g10
S'R\xb8\x1e\x85\xebQ\xd8?'
p1266
tp1267
Rp1268
ag6
(g10
S'\x85\xebQ\xb8\x1e\x85\xdb?'
p1269
tp1270
Rp1271
ag6
(g10
S'\x9a\x99\x99\x99\x99\x99\xa9?'
p1272
tp1273
Rp1274
ag6
(g10
S'R\xb8\x1e\x85\xebQ\xd8?'
p1275
tp1276
Rp1277
ag6
(g10
S'\xe1z\x14\xaeG\xe1\xca?'
p1278
tp1279
Rp1280
ag6
(g10
S'R\xb8\x1e\x85\xebQ\xd8?'
p1281
tp1282
Rp1283
ag6
(g10
S'\xc3\xf5(\\\x8f\xc2\xc5?'
p1284
tp1285
Rp1286
ag6
(g10
S'\xc3\xf5(\\\x8f\xc2\xc5?'
p1287
tp1288
Rp1289
ag6
(g10
S'\x9a\x99\x99\x99\x99\x99\xb9?'
p1290
tp1291
Rp1292
ag6
(g10
S'333333\xc3?'
p1293
tp1294
Rp1295
ag6
(g10
S'\xa4p=\n\xd7\xa3\xd0?'
p1296
tp1297
Rp1298
ag6
(g10
S'\x00\x00\x00\x00\x00\x00\x00\x00'
p1299
tp1300
Rp1301
ag6
(g10
S'R\xb8\x1e\x85\xebQ\xd8?'
p1302
tp1303
Rp1304
ag6
(g10
S'R\xb8\x1e\x85\xebQ\xd8?'
p1305
tp1306
Rp1307
ag6
(g10
S'R\xb8\x1e\x85\xebQ\xd8?'
p1308
tp1309
Rp1310
ag6
(g10
S'\x00\x00\x00\x00\x00\x00\x00\x00'
p1311
tp1312
Rp1313
ag6
(g10
S'\x1f\x85\xebQ\xb8\x1e\xd5?'
p1314
tp1315
Rp1316
ag6
(g10
S'R\xb8\x1e\x85\xebQ\xd8?'
p1317
tp1318
Rp1319
ag6
(g10
S'\xc3\xf5(\\\x8f\xc2\xc5?'
p1320
tp1321
Rp1322
ag6
(g10
S'R\xb8\x1e\x85\xebQ\xd8?'
p1323
tp1324
Rp1325
ag6
(g10
S'R\xb8\x1e\x85\xebQ\xd8?'
p1326
tp1327
Rp1328
ag6
(g10
S'\x8f\xc2\xf5(\\\x8f\xd2?'
p1329
tp1330
Rp1331
ag6
(g10
S'\xc3\xf5(\\\x8f\xc2\xc5?'
p1332
tp1333
Rp1334
ag6
(g10
S'\x9a\x99\x99\x99\x99\x99\xc9?'
p1335
tp1336
Rp1337
ag6
(g10
S'\x00\x00\x00\x00\x00\x00\x00\x00'
p1338
tp1339
Rp1340
ag6
(g10
S'R\xb8\x1e\x85\xebQ\xc8?'
p1341
tp1342
Rp1343
ag6
(g10
S'R\xb8\x1e\x85\xebQ\xd8?'
p1344
tp1345
Rp1346
ag6
(g10
S'\x00\x00\x00\x00\x00\x00\x00\x00'
p1347
tp1348
Rp1349
ag6
(g10
S'\x9a\x99\x99\x99\x99\x99\xb9?'
p1350
tp1351
Rp1352
ag6
(g10
S'\xc3\xf5(\\\x8f\xc2\xc5?'
p1353
tp1354
Rp1355
ag6
(g10
S'333333\xc3?'
p1356
tp1357
Rp1358
ag6
(g10
S'\x9a\x99\x99\x99\x99\x99\xc9?'
p1359
tp1360
Rp1361
ag6
(g10
S'R\xb8\x1e\x85\xebQ\xd8?'
p1362
tp1363
Rp1364
ag6
(g10
S'\xb8\x1e\x85\xebQ\xb8\xce?'
p1365
tp1366
Rp1367
ag6
(g10
S'\x00\x00\x00\x00\x00\x00\x00\x00'
p1368
tp1369
Rp1370
ag6
(g10
S'\xe1z\x14\xaeG\xe1\xca?'
p1371
tp1372
Rp1373
ag6
(g10
S'333333\xd3?'
p1374
tp1375
Rp1376
ag6
(g10
S'\xb8\x1e\x85\xebQ\xb8\xbe?'
p1377
tp1378
Rp1379
ag6
(g10
S'\xb8\x1e\x85\xebQ\xb8\xbe?'
p1380
tp1381
Rp1382
ag6
(g10
S'\x9a\x99\x99\x99\x99\x99\xd9?'
p1383
tp1384
Rp1385
ag6
(g10
S'\x00\x00\x00\x00\x00\x00\xd0?'
p1386
tp1387
Rp1388
ag6
(g10
S'\x00\x00\x00\x00\x00\x00\xd0?'
p1389
tp1390
Rp1391
ag6
(g10
S'q=\n\xd7\xa3p\xcd?'
p1392
tp1393
Rp1394
ag6
(g10
S'R\xb8\x1e\x85\xebQ\xd8?'
p1395
tp1396
Rp1397
ag6
(g10
S'R\xb8\x1e\x85\xebQ\xd8?'
p1398
tp1399
Rp1400
ag6
(g10
S'\xb8\x1e\x85\xebQ\xb8\xbe?'
p1401
tp1402
Rp1403
ag6
(g10
S'R\xb8\x1e\x85\xebQ\xd8?'
p1404
tp1405
Rp1406
ag6
(g10
S'\n\xd7\xa3p=\n\xb7?'
p1407
tp1408
Rp1409
ag6
(g10
S'333333\xc3?'
p1410
tp1411
Rp1412
ag6
(g10
S'333333\xd3?'
p1413
tp1414
Rp1415
ag6
(g10
S'333333\xc3?'
p1416
tp1417
Rp1418
aa(lp1419
(lp1420
g445
aF0.7658016177671592
aI13
aI4
aI7
aa(lp1421
g445
aF0.38602730332569757
aI7
aI1
aI2
aa(lp1422
g445
aF0.5953952279910601
aI15
aI16
aI9
aa(lp1423
g445
aF0.8061973753699496
aI4
aI15
aI19
aa(lp1424
g445
aF0.689226249039136
aI14
aI14
aI6
aa(lp1425
g445
aF0.9476186496896475
aI20
aI4
aI8
aa(lp1426
g441
aF0.6469132412371582
aI11
aI19
aI10
aa(lp1427
g445
aF0.7966566469022478
aI3
aI17
aI8
aa(lp1428
g445
aF0.8642237284851189
aI5
aI21
aI3
aa(lp1429
g441
aF0.7535394829502162
aI15
aI11
aI2
aa(lp1430
g441
aF0.16476363654597254
aI9
aI17
aI4
aa(lp1431
g445
aF0.12138261933403176
aI19
aI18
aI18
aa(lp1432
g441
aF0.9568132181897979
aI3
aI8
aI2
aa(lp1433
g445
aF0.1068430198126416
aI23
aI9
aI11
aa(lp1434
g441
aF0.6824101934867847
aI26
aI11
aI4
aa(lp1435
g445
aF0.3197259727769247
aI19
aI3
aI19
aa(lp1436
g441
aF0.9065545793476475
aI25
aI17
aI13
aa(lp1437
g441
aF0.5458110068073876
aI23
aI18
aI12
aa(lp1438
g441
aF0.22714769080623265
aI2
aI1
aI5
aa(lp1439
g445
aF0.44445383532133464
aI11
aI13
aI14
aa(lp1440
g441
aF0.404710139151616
aI8
aI21
aI3
aa(lp1441
g441
aF0.8608387316732922
aI2
aI4
aI3
aa(lp1442
g445
aF0.6243909690896275
aI26
aI16
aI3
aa(lp1443
g441
aF0.5296852802493516
aI4
aI9
aI4
aa(lp1444
g445
aF0.3154455952411551
aI30
aI20
aI3
aa(lp1445
g441
aF0.29981051544073706
aI21
aI8
aI2
aa(lp1446
g445
aF0.8000806997447247
aI2
aI17
aI3
aa(lp1447
g445
aF0.11105547035569638
aI15
aI14
aI12
aa(lp1448
g445
aF0.9057550489838805
aI9
aI10
aI2
aa(lp1449
g441
aF0.4132006069479023
aI22
aI2
aI2
aa(lp1450
g441
aF0.43659182451550427
aI2
aI3
aI3
aa(lp1451
g445
aF0.5470802758523331
aI4
aI19
aI11
aa(lp1452
g441
aF0.5688370137939405
aI19
aI14
aI21
aa(lp1453
g441
aF0.14360824698656283
aI12
aI16
aI13
aa(lp1454
g445
aF0.7550378248775166
aI27
aI9
aI9
aa(lp1455
g445
aF0.9643008689309133
aI30
aI5
aI2
aa(lp1456
g441
aF0.3476919892004108
aI3
aI1
aI3
aa(lp1457
g445
aF0.9135575963834315
aI22
aI3
aI17
aa(lp1458
g441
aF0.15458011926439852
aI29
aI1
aI14
aa(lp1459
g441
aF0.39902431616802636
aI26
aI16
aI11
aa(lp1460
g441
aF0.9448556058287426
aI20
aI1
aI5
aa(lp1461
g441
aF0.85831966725431
aI5
aI6
aI4
aa(lp1462
g441
aF0.18850498572407243
aI28
aI4
aI11
aa(lp1463
g445
aF0.2566785362120688
aI20
aI11
aI6
aa(lp1464
g445
aF0.8725693592056712
aI16
aI14
aI8
aa(lp1465
g445
aF0.5949377178805475
aI3
aI2
aI3
aa(lp1466
g445
aF0.6095852436046476
aI6
aI7
aI8
aa(lp1467
g445
aF0.2300490215803222
aI29
aI4
aI12
aa(lp1468
g445
aF0.587346387443806
aI4
aI1
aI2
aa(lp1469
g441
aF0.2228416696986978
aI6
aI11
aI10
aa(lp1470
g441
aF0.2043225594685273
aI30
aI4
aI6
aa(lp1471
g441
aF0.4213790981845208
aI11
aI17
aI15
aa(lp1472
g441
aF0.6800962410404674
aI23
aI9
aI2
aa(lp1473
g445
aF0.5039344069034415
aI16
aI19
aI2
aa(lp1474
g445
aF0.4823115587251309
aI23
aI11
aI6
aa(lp1475
g445
aF0.7105615440037255
aI7
aI16
aI5
aa(lp1476
g441
aF0.233089060068208
aI29
aI18
aI16
aa(lp1477
g445
aF0.5044297689182969
aI2
aI13
aI8
aa(lp1478
g441
aF0.7879867607838318
aI17
aI3
aI5
aa(lp1479
g445
aF0.619397847538305
aI14
aI12
aI6
aaaF4.733315944671631
asg502
(lp1480
(lp1481
g6
(g10
S'\x1f\x85\xebQ\xb8\x1e\xd5?'
p1482
tp1483
Rp1484
ag6
(g10
S'\x00\x00\x00\x00\x00\x00\x00\x00'
p1485
tp1486
Rp1487
ag6
(g10
S'\x00\x00\x00\x00\x00\x00\xd0?'
p1488
tp1489
Rp1490
ag6
(g10
S'H\xe1z\x14\xaeG\xd1?'
p1491
tp1492
Rp1493
ag6
(g10
S'\x1f\x85\xebQ\xb8\x1e\xd5?'
p1494
tp1495
Rp1496
ag6
(g10
S'\x00\x00\x00\x00\x00\x00\xd0?'
p1497
tp1498
Rp1499
ag6
(g10
S'\x1f\x85\xebQ\xb8\x1e\xd5?'
p1500
tp1501
Rp1502
ag6
(g10
S'\x00\x00\x00\x00\x00\x00\x00\x00'
p1503
tp1504
Rp1505
ag6
(g10
S'\x00\x00\x00\x00\x00\x00\xd0?'
p1506
tp1507
Rp1508
ag6
(g10
S'\x00\x00\x00\x00\x00\x00\xd0?'
p1509
tp1510
Rp1511
ag6
(g10
S'R\xb8\x1e\x85\xebQ\xc8?'
p1512
tp1513
Rp1514
ag6
(g10
S'\x00\x00\x00\x00\x00\x00\xd0?'
p1515
tp1516
Rp1517
ag6
(g10
S'\xc3\xf5(\\\x8f\xc2\xc5?'
p1518
tp1519
Rp1520
ag6
(g10
S'\xe1z\x14\xaeG\xe1\xca?'
p1521
tp1522
Rp1523
ag6
(g10
S'H\xe1z\x14\xaeG\xd1?'
p1524
tp1525
Rp1526
ag6
(g10
S'\x00\x00\x00\x00\x00\x00\xd0?'
p1527
tp1528
Rp1529
ag6
(g10
S'\x1f\x85\xebQ\xb8\x1e\xd5?'
p1530
tp1531
Rp1532
ag6
(g10
S'\x9a\x99\x99\x99\x99\x99\xc9?'
p1533
tp1534
Rp1535
ag6
(g10
S'\x1f\x85\xebQ\xb8\x1e\xd5?'
p1536
tp1537
Rp1538
ag6
(g10
S'R\xb8\x1e\x85\xebQ\xd8?'
p1539
tp1540
Rp1541
ag6
(g10
S'\xc3\xf5(\\\x8f\xc2\xc5?'
p1542
tp1543
Rp1544
ag6
(g10
S'\x9a\x99\x99\x99\x99\x99\xc9?'
p1545
tp1546
Rp1547
ag6
(g10
S'\x9a\x99\x99\x99\x99\x99\xc9?'
p1548
tp1549
Rp1550
ag6
(g10
S'\x00\x00\x00\x00\x00\x00\xe0?'
p1551
tp1552
Rp1553
ag6
(g10
S'\x1f\x85\xebQ\xb8\x1e\xd5?'
p1554
tp1555
Rp1556
ag6
(g10
S'\xc3\xf5(\\\x8f\xc2\xc5?'
p1557
tp1558
Rp1559
ag6
(g10
S'\x00\x00\x00\x00\x00\x00\x00\x00'
p1560
tp1561
Rp1562
ag6
(g10
S'\xb8\x1e\x85\xebQ\xb8\xbe?'
p1563
tp1564
Rp1565
ag6
(g10
S'\x00\x00\x00\x00\x00\x00\x00\x00'
p1566
tp1567
Rp1568
ag6
(g10
S'\x9a\x99\x99\x99\x99\x99\xc9?'
p1569
tp1570
Rp1571
ag6
(g10
S'\x00\x00\x00\x00\x00\x00\xd0?'
p1572
tp1573
Rp1574
ag6
(g10
S'\x1f\x85\xebQ\xb8\x1e\xd5?'
p1575
tp1576
Rp1577
ag6
(g10
S'\x00\x00\x00\x00\x00\x00\xd0?'
p1578
tp1579
Rp1580
ag6
(g10
S'\x00\x00\x00\x00\x00\x00\xd0?'
p1581
tp1582
Rp1583
ag6
(g10
S'\xecQ\xb8\x1e\x85\xeb\xc1?'
p1584
tp1585
Rp1586
ag6
(g10
S'\x9a\x99\x99\x99\x99\x99\xd9?'
p1587
tp1588
Rp1589
ag6
(g10
S'\xe1z\x14\xaeG\xe1\xca?'
p1590
tp1591
Rp1592
ag6
(g10
S'H\xe1z\x14\xaeG\xd1?'
p1593
tp1594
Rp1595
ag6
(g10
S'\xa4p=\n\xd7\xa3\xc0?'
p1596
tp1597
Rp1598
ag6
(g10
S'\x00\x00\x00\x00\x00\x00\xd0?'
p1599
tp1600
Rp1601
ag6
(g10
S'\xe1z\x14\xaeG\xe1\xca?'
p1602
tp1603
Rp1604
ag6
(g10
S'q=\n\xd7\xa3p\xcd?'
p1605
tp1606
Rp1607
ag6
(g10
S'\x00\x00\x00\x00\x00\x00\x00\x00'
p1608
tp1609
Rp1610
ag6
(g10
S'\x00\x00\x00\x00\x00\x00\xd0?'
p1611
tp1612
Rp1613
ag6
(g10
S'H\xe1z\x14\xaeG\xd1?'
p1614
tp1615
Rp1616
ag6
(g10
S'\xe1z\x14\xaeG\xe1\xca?'
p1617
tp1618
Rp1619
ag6
(g10
S'\x1f\x85\xebQ\xb8\x1e\xd5?'
p1620
tp1621
Rp1622
ag6
(g10
S'H\xe1z\x14\xaeG\xd1?'
p1623
tp1624
Rp1625
ag6
(g10
S'\x00\x00\x00\x00\x00\x00\xd0?'
p1626
tp1627
Rp1628
ag6
(g10
S'H\xe1z\x14\xaeG\xd1?'
p1629
tp1630
Rp1631
ag6
(g10
S'\x00\x00\x00\x00\x00\x00\xe0?'
p1632
tp1633
Rp1634
ag6
(g10
S'R\xb8\x1e\x85\xebQ\xc8?'
p1635
tp1636
Rp1637
ag6
(g10
S'\xc3\xf5(\\\x8f\xc2\xc5?'
p1638
tp1639
Rp1640
ag6
(g10
S'q=\n\xd7\xa3p\xcd?'
p1641
tp1642
Rp1643
ag6
(g10
S'\x00\x00\x00\x00\x00\x00\x00\x00'
p1644
tp1645
Rp1646
ag6
(g10
S'\x1f\x85\xebQ\xb8\x1e\xd5?'
p1647
tp1648
Rp1649
ag6
(g10
S'\xe1z\x14\xaeG\xe1\xca?'
p1650
tp1651
Rp1652
ag6
(g10
S'333333\xd3?'
p1653
tp1654
Rp1655
ag6
(g10
S'\x00\x00\x00\x00\x00\x00\x00\x00'
p1656
tp1657
Rp1658
ag6
(g10
S'\x9a\x99\x99\x99\x99\x99\xc9?'
p1659
tp1660
Rp1661
aa(lp1662
(lp1663
g441
aF0.2406812987447663
aI22
aI15
aI20
aa(lp1664
g441
aF0.595432772158864
aI17
aI21
aI86
aa(lp1665
g445
aF0.4414660793526409
aI16
aI14
aI98
aa(lp1666
g441
aF0.5182823191285016
aI16
aI7
aI82
aa(lp1667
g445
aF0.9825649000506873
aI11
aI19
aI42
aa(lp1668
g441
aF0.6530045090358145
aI18
aI9
aI67
aa(lp1669
g445
aF0.7836222163176542
aI16
aI17
aI40
aa(lp1670
g441
aF0.1152129226784313
aI17
aI10
aI59
aa(lp1671
g445
aF0.2536847773201971
aI22
aI14
aI93
aa(lp1672
g445
aF0.47218474876666805
aI28
aI12
aI72
aa(lp1673
g441
aF0.668876062253209
aI15
aI4
aI83
aa(lp1674
g445
aF0.7664279229917076
aI16
aI18
aI32
aa(lp1675
g445
aF0.5121660959203747
aI17
aI15
aI10
aa(lp1676
g445
aF0.49875378519681113
aI4
aI4
aI67
aa(lp1677
g441
aF0.5016604555664497
aI7
aI8
aI20
aa(lp1678
g445
aF0.39103059197775314
aI11
aI15
aI94
aa(lp1679
g445
aF0.5812462975814808
aI6
aI19
aI97
aa(lp1680
g441
aF0.4185158887037418
aI14
aI1
aI92
aa(lp1681
g445
aF0.42361405013179654
aI27
aI17
aI44
aa(lp1682
g441
aF0.5548089986270636
aI22
aI8
aI45
aa(lp1683
g445
aF0.5552426835278096
aI22
aI1
aI12
aa(lp1684
g441
aF0.2547970378409299
aI7
aI7
aI30
aa(lp1685
g445
aF0.8578584846791861
aI13
aI18
aI40
aa(lp1686
g441
aF0.2979575138437245
aI11
aI17
aI64
aa(lp1687
g441
aF0.4310227722960901
aI11
aI18
aI96
aa(lp1688
g445
aF0.46906350778489514
aI17
aI13
aI14
aa(lp1689
g445
aF0.3399306944775332
aI13
aI19
aI80
aa(lp1690
g441
aF0.6695940109446775
aI4
aI1
aI18
aa(lp1691
g445
aF0.2310096550076265
aI14
aI16
aI46
aa(lp1692
g441
aF0.23200423834380887
aI17
aI12
aI20
aa(lp1693
g445
aF0.18855725069741824
aI19
aI10
aI18
aa(lp1694
g441
aF0.9216782641706325
aI13
aI21
aI83
aa(lp1695
g441
aF0.5504237621189103
aI2
aI13
aI66
aa(lp1696
g445
aF0.13224165306648308
aI23
aI3
aI11
aa(lp1697
g441
aF0.4028193672201128
aI6
aI18
aI10
aa(lp1698
g445
aF0.9312366690571379
aI4
aI15
aI29
aa(lp1699
g445
aF0.4702211564454877
aI18
aI8
aI74
aa(lp1700
g441
aF0.9211467056132345
aI8
aI4
aI81
aa(lp1701
g441
aF0.1911366886297861
aI22
aI1
aI38
aa(lp1702
g441
aF0.5092847998418883
aI21
aI15
aI66
aa(lp1703
g445
aF0.4262931853503197
aI13
aI4
aI83
aa(lp1704
g441
aF0.942523746572876
aI26
aI5
aI26
aa(lp1705
g441
aF0.14196389306521462
aI12
aI9
aI80
aa(lp1706
g445
aF0.6641754264894856
aI22
aI4
aI33
aa(lp1707
g445
aF0.546134715385448
aI20
aI2
aI61
aa(lp1708
g445
aF0.39645401854111784
aI8
aI3
aI62
aa(lp1709
g441
aF0.9924051430641448
aI25
aI20
aI73
aa(lp1710
g445
aF0.2933091426297386
aI8
aI4
aI80
aa(lp1711
g441
aF0.7252218776723144
aI25
aI19
aI61
aa(lp1712
g445
aF0.25248050044405973
aI29
aI1
aI26
aa(lp1713
g441
aF0.5131322121617656
aI30
aI14
aI16
aa(lp1714
g441
aF0.16498138650823596
aI7
aI1
aI50
aa(lp1715
g445
aF0.8300286792891585
aI23
aI19
aI44
aa(lp1716
g441
aF0.4321546764768929
aI14
aI3
aI41
aa(lp1717
g445
aF0.2529693227137819
aI10
aI20
aI20
aa(lp1718
g445
aF0.23839921317648088
aI7
aI12
aI13
aa(lp1719
g441
aF0.1854768200045373
aI11
aI1
aI26
aa(lp1720
g445
aF0.3238558433446906
aI26
aI3
aI50
aa(lp1721
g441
aF0.2733758978289822
aI22
aI18
aI21
aa(lp1722
g441
aF0.5799227294979276
aI3
aI2
aI88
aaaF663.2267670631409
asg746
(lp1723
(lp1724
g6
(g10
S'\x00\x00\x00\x00\x00\x00\x00\x00'
p1725
tp1726
Rp1727
ag6
(g10
S'\x00\x00\x00\x00\x00\x00\x00\x00'
p1728
tp1729
Rp1730
ag6
(g10
S'\x00\x00\x00\x00\x00\x00\x00\x00'
p1731
tp1732
Rp1733
ag6
(g10
S'\x00\x00\x00\x00\x00\x00\x00\x00'
p1734
tp1735
Rp1736
ag6
(g10
S'\x00\x00\x00\x00\x00\x00\x00\x00'
p1737
tp1738
Rp1739
ag6
(g10
S'\x00\x00\x00\x00\x00\x00\x00\x00'
p1740
tp1741
Rp1742
ag6
(g10
S'\x00\x00\x00\x00\x00\x00\x00\x00'
p1743
tp1744
Rp1745
ag6
(g10
S'\x00\x00\x00\x00\x00\x00\x00\x00'
p1746
tp1747
Rp1748
ag6
(g10
S'{\x14\xaeG\xe1z\x94?'
p1749
tp1750
Rp1751
ag6
(g10
S'\x00\x00\x00\x00\x00\x00\x00\x00'
p1752
tp1753
Rp1754
ag6
(g10
S'\x00\x00\x00\x00\x00\x00\x00\x00'
p1755
tp1756
Rp1757
ag6
(g10
S'\x00\x00\x00\x00\x00\x00\x00\x00'
p1758
tp1759
Rp1760
ag6
(g10
S'\x00\x00\x00\x00\x00\x00\x00\x00'
p1761
tp1762
Rp1763
ag6
(g10
S'\x00\x00\x00\x00\x00\x00\x00\x00'
p1764
tp1765
Rp1766
ag6
(g10
S'{\x14\xaeG\xe1z\x94?'
p1767
tp1768
Rp1769
ag6
(g10
S'\x00\x00\x00\x00\x00\x00\x00\x00'
p1770
tp1771
Rp1772
ag6
(g10
S'\x00\x00\x00\x00\x00\x00\x00\x00'
p1773
tp1774
Rp1775
ag6
(g10
S'\x00\x00\x00\x00\x00\x00\x00\x00'
p1776
tp1777
Rp1778
ag6
(g10
S'\x00\x00\x00\x00\x00\x00\x00\x00'
p1779
tp1780
Rp1781
ag6
(g10
S'\x00\x00\x00\x00\x00\x00\x00\x00'
p1782
tp1783
Rp1784
ag6
(g10
S'\x00\x00\x00\x00\x00\x00\x00\x00'
p1785
tp1786
Rp1787
ag6
(g10
S'\x00\x00\x00\x00\x00\x00\x00\x00'
p1788
tp1789
Rp1790
ag6
(g10
S'\x00\x00\x00\x00\x00\x00\x00\x00'
p1791
tp1792
Rp1793
ag6
(g10
S'\x00\x00\x00\x00\x00\x00\x00\x00'
p1794
tp1795
Rp1796
ag6
(g10
S'\x00\x00\x00\x00\x00\x00\x00\x00'
p1797
tp1798
Rp1799
ag6
(g10
S'\x00\x00\x00\x00\x00\x00\x00\x00'
p1800
tp1801
Rp1802
ag6
(g10
S'\x00\x00\x00\x00\x00\x00\x00\x00'
p1803
tp1804
Rp1805
ag6
(g10
S'\x00\x00\x00\x00\x00\x00\x00\x00'
p1806
tp1807
Rp1808
ag6
(g10
S'\x00\x00\x00\x00\x00\x00\x00\x00'
p1809
tp1810
Rp1811
ag6
(g10
S'\x00\x00\x00\x00\x00\x00\x00\x00'
p1812
tp1813
Rp1814
ag6
(g10
S'\x00\x00\x00\x00\x00\x00\x00\x00'
p1815
tp1816
Rp1817
ag6
(g10
S'\x00\x00\x00\x00\x00\x00\x00\x00'
p1818
tp1819
Rp1820
ag6
(g10
S'\x00\x00\x00\x00\x00\x00\x00\x00'
p1821
tp1822
Rp1823
ag6
(g10
S'\x00\x00\x00\x00\x00\x00\x00\x00'
p1824
tp1825
Rp1826
ag6
(g10
S'\x00\x00\x00\x00\x00\x00\x00\x00'
p1827
tp1828
Rp1829
ag6
(g10
S'\x00\x00\x00\x00\x00\x00\x00\x00'
p1830
tp1831
Rp1832
ag6
(g10
S'\x00\x00\x00\x00\x00\x00\x00\x00'
p1833
tp1834
Rp1835
ag6
(g10
S'\x00\x00\x00\x00\x00\x00\x00\x00'
p1836
tp1837
Rp1838
ag6
(g10
S'\x00\x00\x00\x00\x00\x00\x00\x00'
p1839
tp1840
Rp1841
ag6
(g10
S'\x00\x00\x00\x00\x00\x00\x00\x00'
p1842
tp1843
Rp1844
ag6
(g10
S'\x00\x00\x00\x00\x00\x00\x00\x00'
p1845
tp1846
Rp1847
ag6
(g10
S'\x00\x00\x00\x00\x00\x00\x00\x00'
p1848
tp1849
Rp1850
ag6
(g10
S'\x00\x00\x00\x00\x00\x00\x00\x00'
p1851
tp1852
Rp1853
ag6
(g10
S'\x00\x00\x00\x00\x00\x00\x00\x00'
p1854
tp1855
Rp1856
ag6
(g10
S'\x00\x00\x00\x00\x00\x00\x00\x00'
p1857
tp1858
Rp1859
ag6
(g10
S'\x00\x00\x00\x00\x00\x00\x00\x00'
p1860
tp1861
Rp1862
ag6
(g10
S'\x00\x00\x00\x00\x00\x00\x00\x00'
p1863
tp1864
Rp1865
ag6
(g10
S'\x00\x00\x00\x00\x00\x00\x00\x00'
p1866
tp1867
Rp1868
ag6
(g10
S'\x00\x00\x00\x00\x00\x00\x00\x00'
p1869
tp1870
Rp1871
ag6
(g10
S'\x00\x00\x00\x00\x00\x00\x00\x00'
p1872
tp1873
Rp1874
ag6
(g10
S'\x00\x00\x00\x00\x00\x00\x00\x00'
p1875
tp1876
Rp1877
ag6
(g10
S'\x00\x00\x00\x00\x00\x00\x00\x00'
p1878
tp1879
Rp1880
ag6
(g10
S'\x00\x00\x00\x00\x00\x00\x00\x00'
p1881
tp1882
Rp1883
ag6
(g10
S'\x00\x00\x00\x00\x00\x00\x00\x00'
p1884
tp1885
Rp1886
ag6
(g10
S'\x00\x00\x00\x00\x00\x00\x00\x00'
p1887
tp1888
Rp1889
ag6
(g10
S'\x00\x00\x00\x00\x00\x00\x00\x00'
p1890
tp1891
Rp1892
ag6
(g10
S'\x00\x00\x00\x00\x00\x00\x00\x00'
p1893
tp1894
Rp1895
ag6
(g10
S'{\x14\xaeG\xe1z\x94?'
p1896
tp1897
Rp1898
ag6
(g10
S'\x00\x00\x00\x00\x00\x00\x00\x00'
p1899
tp1900
Rp1901
ag6
(g10
S'\x00\x00\x00\x00\x00\x00\x00\x00'
p1902
tp1903
Rp1904
aa(lp1905
(lp1906
I1
ag983
aF0.24679902999491773
aF0.12489330007252425
aa(lp1907
I72
ag983
aF0.7395814075050485
aF0.8704414320807085
aa(lp1908
I12
ag931
aF0.12164781685117164
aF0.9774355346630033
aa(lp1909
I49
ag983
aF0.9442496940493942
aF0.8171514098239807
aa(lp1910
I3
ag931
aF0.8665503246444398
aF0.6673803372400529
aa(lp1911
I3
ag983
aF0.34985496707810915
aF0.9245979758676462
aa(lp1912
I100
ag931
aF0.6110976748191587
aF0.8099712225817789
aa(lp1913
I10
ag931
aF0.9116480142747838
aF0.36697202623249636
aa(lp1914
I82
ag931
aF0.10789755687432573
aF0.5170976592816025
aa(lp1915
I2
ag931
aF0.16328744865019174
aF0.8689743976887131
aa(lp1916
I97
ag931
aF0.6651096820897475
aF0.8654563814259707
aa(lp1917
I5
ag931
aF0.3011573868580414
aF0.6004634700343816
aa(lp1918
I83
ag983
aF0.8797405210834943
aF0.8696290678032449
aa(lp1919
I66
ag983
aF0.9477152195177738
aF0.4496527615482747
aa(lp1920
I95
ag931
aF0.1055654732428415
aF0.6016742501411697
aa(lp1921
I31
ag931
aF0.8189361060280111
aF0.4931321772637812
aa(lp1922
I72
ag931
aF0.9178351053448277
aF0.11934391509856165
aa(lp1923
I30
ag931
aF0.400257384316387
aF0.901856574389973
aa(lp1924
I29
ag931
aF0.8038103815251846
aF0.6787431171849505
aa(lp1925
I94
ag931
aF0.6832209477205518
aF0.9506598958457422
aa(lp1926
I10
ag931
aF0.12286908914497495
aF0.4571329866682332
aa(lp1927
I7
ag983
aF0.20794966219810024
aF0.12492211454897921
aa(lp1928
I9
ag983
aF0.19854880060563002
aF0.9710297720359368
aa(lp1929
I51
ag983
aF0.3422857458504078
aF0.3515006006925906
aa(lp1930
I94
ag983
aF0.30811095575933223
aF0.4821513793443344
aa(lp1931
I20
ag931
aF0.7974912684903004
aF0.36070392932489237
aa(lp1932
I93
ag983
aF0.9720935845174048
aF0.5062169348587231
aa(lp1933
I65
ag983
aF0.8258187454465314
aF0.4700837141045262
aa(lp1934
I4
ag931
aF0.7165658808008178
aF0.7851394699580269
aa(lp1935
I74
ag983
aF0.5050338440493743
aF0.5966872723152772
aa(lp1936
I61
ag983
aF0.15497427227615138
aF0.15796945564208334
aa(lp1937
I41
ag931
aF0.35347640340926323
aF0.2749736522085542
aa(lp1938
I2
ag931
aF0.22317399244866623
aF0.19999415980673885
aa(lp1939
I64
ag931
aF0.49862532803244675
aF0.8810795575393998
aa(lp1940
I73
ag931
aF0.47587197124318503
aF0.9444198947477885
aa(lp1941
I90
ag931
aF0.9608057709590645
aF0.5385788817159276
aa(lp1942
I50
ag983
aF0.8682630088237063
aF0.8882757614692138
aa(lp1943
I75
ag931
aF0.8527907848974059
aF0.5935406224148428
aa(lp1944
I31
ag983
aF0.5382739623041213
aF0.8303937539775603
aa(lp1945
I71
ag931
aF0.7724272100068827
aF0.6851472195891578
aa(lp1946
I72
ag983
aF0.4657926013794146
aF0.6046049942717842
aa(lp1947
I45
ag983
aF0.9501749043166474
aF0.5285628091727114
aa(lp1948
I36
ag931
aF0.5922517926206204
aF0.7669028515532149
aa(lp1949
I71
ag931
aF0.5589482358284955
aF0.6285589128731083
aa(lp1950
I83
ag931
aF0.22540452181359785
aF0.3007705688973207
aa(lp1951
I30
ag931
aF0.5168072233406
aF0.4837704740313882
aa(lp1952
I88
ag983
aF0.3180363351724441
aF0.6233741627275966
aa(lp1953
I1
ag983
aF0.981790967694534
aF0.5921443266327161
aa(lp1954
I26
ag983
aF0.45748518653145376
aF0.9533632701113598
aa(lp1955
I7
ag931
aF0.49152392392345967
aF0.5581447902431423
aa(lp1956
I13
ag983
aF0.9561799705051068
aF0.5306128250663924
aa(lp1957
I84
ag983
aF0.40299651434895234
aF0.9670246966834216
aa(lp1958
I33
ag931
aF0.8297795669417682
aF0.7107109762568656
aa(lp1959
I53
ag983
aF0.7169126175147454
aF0.963742151895746
aa(lp1960
I46
ag983
aF0.7206712563102818
aF0.9305529702711641
aa(lp1961
I40
ag931
aF0.726798064953374
aF0.2598093458069781
aa(lp1962
I8
ag931
aF0.9680274885682134
aF0.6353304521258641
aa(lp1963
I95
ag931
aF0.14698143774519662
aF0.914437011776279
aa(lp1964
I26
ag983
aF0.7830471599062588
aF0.7424541501453176
aa(lp1965
I29
ag983
aF0.3907645382859386
aF0.4792523719000973
aaaF31.102640867233276
ass.