(dp0
S'f1'
p1
(dp2
S'KNN'
p3
(lp4
(lp5
cnumpy.core.multiarray
scalar
p6
(cnumpy
dtype
p7
(S'f8'
p8
I0
I1
tp9
Rp10
(I3
S'<'
p11
NNNI-1
I-1
I0
tp12
bS'{\x14\xaeG\xe1z\xd4?'
p13
tp14
Rp15
ag6
(g10
S'\x00\x00\x00\x00\x00\x00\xd0?'
p16
tp17
Rp18
ag6
(g10
S'{\x14\xaeG\xe1z\xd4?'
p19
tp20
Rp21
ag6
(g10
S'{\x14\xaeG\xe1z\xd4?'
p22
tp23
Rp24
ag6
(g10
S'\xa4p=\n\xd7\xa3\xd0?'
p25
tp26
Rp27
ag6
(g10
S'{\x14\xaeG\xe1z\xd4?'
p28
tp29
Rp30
ag6
(g10
S'{\x14\xaeG\xe1z\xd4?'
p31
tp32
Rp33
ag6
(g10
S'\xa4p=\n\xd7\xa3\xd0?'
p34
tp35
Rp36
ag6
(g10
S'{\x14\xaeG\xe1z\xd4?'
p37
tp38
Rp39
ag6
(g10
S'{\x14\xaeG\xe1z\xd4?'
p40
tp41
Rp42
ag6
(g10
S'\xa4p=\n\xd7\xa3\xd0?'
p43
tp44
Rp45
ag6
(g10
S'{\x14\xaeG\xe1z\xd4?'
p46
tp47
Rp48
ag6
(g10
S'{\x14\xaeG\xe1z\xd4?'
p49
tp50
Rp51
ag6
(g10
S'\xa4p=\n\xd7\xa3\xd0?'
p52
tp53
Rp54
ag6
(g10
S'{\x14\xaeG\xe1z\xd4?'
p55
tp56
Rp57
ag6
(g10
S'{\x14\xaeG\xe1z\xd4?'
p58
tp59
Rp60
ag6
(g10
S'\xa4p=\n\xd7\xa3\xd0?'
p61
tp62
Rp63
ag6
(g10
S'{\x14\xaeG\xe1z\xd4?'
p64
tp65
Rp66
ag6
(g10
S'{\x14\xaeG\xe1z\xd4?'
p67
tp68
Rp69
ag6
(g10
S'\xa4p=\n\xd7\xa3\xd0?'
p70
tp71
Rp72
ag6
(g10
S'{\x14\xaeG\xe1z\xd4?'
p73
tp74
Rp75
ag6
(g10
S'{\x14\xaeG\xe1z\xd4?'
p76
tp77
Rp78
ag6
(g10
S'\xa4p=\n\xd7\xa3\xd0?'
p79
tp80
Rp81
ag6
(g10
S'{\x14\xaeG\xe1z\xd4?'
p82
tp83
Rp84
ag6
(g10
S'{\x14\xaeG\xe1z\xd4?'
p85
tp86
Rp87
ag6
(g10
S'\xa4p=\n\xd7\xa3\xd0?'
p88
tp89
Rp90
ag6
(g10
S'{\x14\xaeG\xe1z\xd4?'
p91
tp92
Rp93
ag6
(g10
S'{\x14\xaeG\xe1z\xd4?'
p94
tp95
Rp96
ag6
(g10
S'\xa4p=\n\xd7\xa3\xd0?'
p97
tp98
Rp99
ag6
(g10
S'{\x14\xaeG\xe1z\xd4?'
p100
tp101
Rp102
ag6
(g10
S'{\x14\xaeG\xe1z\xd4?'
p103
tp104
Rp105
ag6
(g10
S'\xa4p=\n\xd7\xa3\xd0?'
p106
tp107
Rp108
ag6
(g10
S'{\x14\xaeG\xe1z\xd4?'
p109
tp110
Rp111
ag6
(g10
S'{\x14\xaeG\xe1z\xd4?'
p112
tp113
Rp114
ag6
(g10
S'\xa4p=\n\xd7\xa3\xd0?'
p115
tp116
Rp117
ag6
(g10
S'{\x14\xaeG\xe1z\xd4?'
p118
tp119
Rp120
ag6
(g10
S'{\x14\xaeG\xe1z\xd4?'
p121
tp122
Rp123
ag6
(g10
S'\xa4p=\n\xd7\xa3\xd0?'
p124
tp125
Rp126
ag6
(g10
S'{\x14\xaeG\xe1z\xd4?'
p127
tp128
Rp129
ag6
(g10
S'{\x14\xaeG\xe1z\xd4?'
p130
tp131
Rp132
ag6
(g10
S'\xa4p=\n\xd7\xa3\xd0?'
p133
tp134
Rp135
ag6
(g10
S'{\x14\xaeG\xe1z\xd4?'
p136
tp137
Rp138
ag6
(g10
S'{\x14\xaeG\xe1z\xd4?'
p139
tp140
Rp141
ag6
(g10
S'\xa4p=\n\xd7\xa3\xd0?'
p142
tp143
Rp144
ag6
(g10
S'{\x14\xaeG\xe1z\xd4?'
p145
tp146
Rp147
ag6
(g10
S'{\x14\xaeG\xe1z\xd4?'
p148
tp149
Rp150
ag6
(g10
S'\xa4p=\n\xd7\xa3\xd0?'
p151
tp152
Rp153
ag6
(g10
S'{\x14\xaeG\xe1z\xd4?'
p154
tp155
Rp156
ag6
(g10
S'{\x14\xaeG\xe1z\xd4?'
p157
tp158
Rp159
ag6
(g10
S'\xa4p=\n\xd7\xa3\xd0?'
p160
tp161
Rp162
ag6
(g10
S'{\x14\xaeG\xe1z\xd4?'
p163
tp164
Rp165
ag6
(g10
S'{\x14\xaeG\xe1z\xd4?'
p166
tp167
Rp168
ag6
(g10
S'\xa4p=\n\xd7\xa3\xd0?'
p169
tp170
Rp171
ag6
(g10
S'{\x14\xaeG\xe1z\xd4?'
p172
tp173
Rp174
ag6
(g10
S'{\x14\xaeG\xe1z\xd4?'
p175
tp176
Rp177
ag6
(g10
S'\xa4p=\n\xd7\xa3\xd0?'
p178
tp179
Rp180
ag6
(g10
S'{\x14\xaeG\xe1z\xd4?'
p181
tp182
Rp183
ag6
(g10
S'{\x14\xaeG\xe1z\xd4?'
p184
tp185
Rp186
ag6
(g10
S'\xa4p=\n\xd7\xa3\xd0?'
p187
tp188
Rp189
ag6
(g10
S'{\x14\xaeG\xe1z\xd4?'
p190
tp191
Rp192
aa(lp193
(lp194
I2
aS'distance'
p195
aa(lp196
I5
ag195
aa(lp197
I2
ag195
aa(lp198
I2
ag195
aa(lp199
I4
ag195
aa(lp200
I2
ag195
aa(lp201
I2
ag195
aa(lp202
I4
ag195
aa(lp203
I2
ag195
aa(lp204
I2
ag195
aa(lp205
I4
ag195
aa(lp206
I2
ag195
aa(lp207
I2
ag195
aa(lp208
I4
ag195
aa(lp209
I2
ag195
aa(lp210
I2
ag195
aa(lp211
I4
ag195
aa(lp212
I2
ag195
aa(lp213
I2
ag195
aa(lp214
I4
ag195
aa(lp215
I2
ag195
aa(lp216
I2
ag195
aa(lp217
I4
ag195
aa(lp218
I2
ag195
aa(lp219
I2
ag195
aa(lp220
I4
ag195
aa(lp221
I2
ag195
aa(lp222
I2
ag195
aa(lp223
I4
ag195
aa(lp224
I2
ag195
aa(lp225
I2
ag195
aa(lp226
I4
ag195
aa(lp227
I2
ag195
aa(lp228
I2
ag195
aa(lp229
I4
ag195
aa(lp230
I2
ag195
aa(lp231
I2
ag195
aa(lp232
I4
ag195
aa(lp233
I2
ag195
aa(lp234
I2
ag195
aa(lp235
I4
ag195
aa(lp236
I2
ag195
aa(lp237
I2
ag195
aa(lp238
I4
ag195
aa(lp239
I2
ag195
aa(lp240
I2
ag195
aa(lp241
I4
ag195
aa(lp242
I2
ag195
aa(lp243
I2
ag195
aa(lp244
I4
ag195
aa(lp245
I2
ag195
aa(lp246
I2
ag195
aa(lp247
I4
ag195
aa(lp248
I2
ag195
aa(lp249
I2
ag195
aa(lp250
I4
ag195
aa(lp251
I2
ag195
aa(lp252
I2
ag195
aa(lp253
I4
ag195
aa(lp254
I2
ag195
aaaF6.5335729122161865
asS'DTC'
p255
(lp256
(lp257
g6
(g10
S'\xe1z\x14\xaeG\xe1\xca?'
p258
tp259
Rp260
ag6
(g10
S'{\x14\xaeG\xe1z\xc4?'
p261
tp262
Rp263
ag6
(g10
S'\xecQ\xb8\x1e\x85\xeb\xd1?'
p264
tp265
Rp266
ag6
(g10
S'\xe1z\x14\xaeG\xe1\xca?'
p267
tp268
Rp269
ag6
(g10
S'{\x14\xaeG\xe1z\xc4?'
p270
tp271
Rp272
ag6
(g10
S'\xecQ\xb8\x1e\x85\xeb\xd1?'
p273
tp274
Rp275
ag6
(g10
S'\xe1z\x14\xaeG\xe1\xca?'
p276
tp277
Rp278
ag6
(g10
S'{\x14\xaeG\xe1z\xc4?'
p279
tp280
Rp281
ag6
(g10
S'\xecQ\xb8\x1e\x85\xeb\xd1?'
p282
tp283
Rp284
ag6
(g10
S'\xe1z\x14\xaeG\xe1\xca?'
p285
tp286
Rp287
ag6
(g10
S'{\x14\xaeG\xe1z\xc4?'
p288
tp289
Rp290
ag6
(g10
S'\xecQ\xb8\x1e\x85\xeb\xd1?'
p291
tp292
Rp293
ag6
(g10
S'\xe1z\x14\xaeG\xe1\xca?'
p294
tp295
Rp296
ag6
(g10
S'{\x14\xaeG\xe1z\xc4?'
p297
tp298
Rp299
ag6
(g10
S'\xecQ\xb8\x1e\x85\xeb\xd1?'
p300
tp301
Rp302
ag6
(g10
S'\xe1z\x14\xaeG\xe1\xca?'
p303
tp304
Rp305
ag6
(g10
S'{\x14\xaeG\xe1z\xc4?'
p306
tp307
Rp308
ag6
(g10
S'\xecQ\xb8\x1e\x85\xeb\xd1?'
p309
tp310
Rp311
ag6
(g10
S'\xe1z\x14\xaeG\xe1\xca?'
p312
tp313
Rp314
ag6
(g10
S'{\x14\xaeG\xe1z\xc4?'
p315
tp316
Rp317
ag6
(g10
S'\xecQ\xb8\x1e\x85\xeb\xd1?'
p318
tp319
Rp320
ag6
(g10
S'\xe1z\x14\xaeG\xe1\xca?'
p321
tp322
Rp323
ag6
(g10
S'{\x14\xaeG\xe1z\xc4?'
p324
tp325
Rp326
ag6
(g10
S'\xecQ\xb8\x1e\x85\xeb\xd1?'
p327
tp328
Rp329
ag6
(g10
S'\xe1z\x14\xaeG\xe1\xca?'
p330
tp331
Rp332
ag6
(g10
S'{\x14\xaeG\xe1z\xc4?'
p333
tp334
Rp335
ag6
(g10
S'\xecQ\xb8\x1e\x85\xeb\xd1?'
p336
tp337
Rp338
ag6
(g10
S'\xe1z\x14\xaeG\xe1\xca?'
p339
tp340
Rp341
ag6
(g10
S'{\x14\xaeG\xe1z\xc4?'
p342
tp343
Rp344
ag6
(g10
S'\xecQ\xb8\x1e\x85\xeb\xd1?'
p345
tp346
Rp347
ag6
(g10
S'\xe1z\x14\xaeG\xe1\xca?'
p348
tp349
Rp350
ag6
(g10
S'{\x14\xaeG\xe1z\xc4?'
p351
tp352
Rp353
ag6
(g10
S'\xecQ\xb8\x1e\x85\xeb\xd1?'
p354
tp355
Rp356
ag6
(g10
S'\xe1z\x14\xaeG\xe1\xca?'
p357
tp358
Rp359
ag6
(g10
S'{\x14\xaeG\xe1z\xc4?'
p360
tp361
Rp362
ag6
(g10
S'\xecQ\xb8\x1e\x85\xeb\xd1?'
p363
tp364
Rp365
ag6
(g10
S'\xe1z\x14\xaeG\xe1\xca?'
p366
tp367
Rp368
ag6
(g10
S'{\x14\xaeG\xe1z\xc4?'
p369
tp370
Rp371
ag6
(g10
S'\xecQ\xb8\x1e\x85\xeb\xd1?'
p372
tp373
Rp374
ag6
(g10
S'\xe1z\x14\xaeG\xe1\xca?'
p375
tp376
Rp377
ag6
(g10
S'{\x14\xaeG\xe1z\xc4?'
p378
tp379
Rp380
ag6
(g10
S'\xecQ\xb8\x1e\x85\xeb\xd1?'
p381
tp382
Rp383
ag6
(g10
S'\xe1z\x14\xaeG\xe1\xca?'
p384
tp385
Rp386
ag6
(g10
S'{\x14\xaeG\xe1z\xc4?'
p387
tp388
Rp389
ag6
(g10
S'\xecQ\xb8\x1e\x85\xeb\xd1?'
p390
tp391
Rp392
ag6
(g10
S'\xe1z\x14\xaeG\xe1\xca?'
p393
tp394
Rp395
ag6
(g10
S'{\x14\xaeG\xe1z\xc4?'
p396
tp397
Rp398
ag6
(g10
S'\xecQ\xb8\x1e\x85\xeb\xd1?'
p399
tp400
Rp401
ag6
(g10
S'\xe1z\x14\xaeG\xe1\xca?'
p402
tp403
Rp404
ag6
(g10
S'{\x14\xaeG\xe1z\xc4?'
p405
tp406
Rp407
ag6
(g10
S'\xecQ\xb8\x1e\x85\xeb\xd1?'
p408
tp409
Rp410
ag6
(g10
S'\xe1z\x14\xaeG\xe1\xca?'
p411
tp412
Rp413
ag6
(g10
S'{\x14\xaeG\xe1z\xc4?'
p414
tp415
Rp416
ag6
(g10
S'\xecQ\xb8\x1e\x85\xeb\xd1?'
p417
tp418
Rp419
ag6
(g10
S'\xe1z\x14\xaeG\xe1\xca?'
p420
tp421
Rp422
ag6
(g10
S'{\x14\xaeG\xe1z\xc4?'
p423
tp424
Rp425
ag6
(g10
S'\xecQ\xb8\x1e\x85\xeb\xd1?'
p426
tp427
Rp428
ag6
(g10
S'\xe1z\x14\xaeG\xe1\xca?'
p429
tp430
Rp431
ag6
(g10
S'{\x14\xaeG\xe1z\xc4?'
p432
tp433
Rp434
ag6
(g10
S'\xecQ\xb8\x1e\x85\xeb\xd1?'
p435
tp436
Rp437
aa(lp438
(lp439
S'entropy'
p440
aF0.6864336754504866
aI6
aI11
aI17
aa(lp441
g440
aF0.3077798873868859
aI25
aI7
aI3
aa(lp442
S'gini'
p443
aF0.3058859991434074
aI7
aI3
aI19
aa(lp444
g440
aF0.6864336754504866
aI6
aI11
aI17
aa(lp445
g440
aF0.3077798873868859
aI25
aI7
aI3
aa(lp446
g443
aF0.3058859991434074
aI7
aI3
aI19
aa(lp447
g440
aF0.6864336754504866
aI6
aI11
aI17
aa(lp448
g440
aF0.3077798873868859
aI25
aI7
aI3
aa(lp449
g443
aF0.3058859991434074
aI7
aI3
aI19
aa(lp450
g440
aF0.6864336754504866
aI6
aI11
aI17
aa(lp451
g440
aF0.3077798873868859
aI25
aI7
aI3
aa(lp452
g443
aF0.3058859991434074
aI7
aI3
aI19
aa(lp453
g440
aF0.6864336754504866
aI6
aI11
aI17
aa(lp454
g440
aF0.3077798873868859
aI25
aI7
aI3
aa(lp455
g443
aF0.3058859991434074
aI7
aI3
aI19
aa(lp456
g440
aF0.6864336754504866
aI6
aI11
aI17
aa(lp457
g440
aF0.3077798873868859
aI25
aI7
aI3
aa(lp458
g443
aF0.3058859991434074
aI7
aI3
aI19
aa(lp459
g440
aF0.6864336754504866
aI6
aI11
aI17
aa(lp460
g440
aF0.3077798873868859
aI25
aI7
aI3
aa(lp461
g443
aF0.3058859991434074
aI7
aI3
aI19
aa(lp462
g440
aF0.6864336754504866
aI6
aI11
aI17
aa(lp463
g440
aF0.3077798873868859
aI25
aI7
aI3
aa(lp464
g443
aF0.3058859991434074
aI7
aI3
aI19
aa(lp465
g440
aF0.6864336754504866
aI6
aI11
aI17
aa(lp466
g440
aF0.3077798873868859
aI25
aI7
aI3
aa(lp467
g443
aF0.3058859991434074
aI7
aI3
aI19
aa(lp468
g440
aF0.6864336754504866
aI6
aI11
aI17
aa(lp469
g440
aF0.3077798873868859
aI25
aI7
aI3
aa(lp470
g443
aF0.3058859991434074
aI7
aI3
aI19
aa(lp471
g440
aF0.6864336754504866
aI6
aI11
aI17
aa(lp472
g440
aF0.3077798873868859
aI25
aI7
aI3
aa(lp473
g443
aF0.3058859991434074
aI7
aI3
aI19
aa(lp474
g440
aF0.6864336754504866
aI6
aI11
aI17
aa(lp475
g440
aF0.3077798873868859
aI25
aI7
aI3
aa(lp476
g443
aF0.3058859991434074
aI7
aI3
aI19
aa(lp477
g440
aF0.6864336754504866
aI6
aI11
aI17
aa(lp478
g440
aF0.3077798873868859
aI25
aI7
aI3
aa(lp479
g443
aF0.3058859991434074
aI7
aI3
aI19
aa(lp480
g440
aF0.6864336754504866
aI6
aI11
aI17
aa(lp481
g440
aF0.3077798873868859
aI25
aI7
aI3
aa(lp482
g443
aF0.3058859991434074
aI7
aI3
aI19
aa(lp483
g440
aF0.6864336754504866
aI6
aI11
aI17
aa(lp484
g440
aF0.3077798873868859
aI25
aI7
aI3
aa(lp485
g443
aF0.3058859991434074
aI7
aI3
aI19
aa(lp486
g440
aF0.6864336754504866
aI6
aI11
aI17
aa(lp487
g440
aF0.3077798873868859
aI25
aI7
aI3
aa(lp488
g443
aF0.3058859991434074
aI7
aI3
aI19
aa(lp489
g440
aF0.6864336754504866
aI6
aI11
aI17
aa(lp490
g440
aF0.3077798873868859
aI25
aI7
aI3
aa(lp491
g443
aF0.3058859991434074
aI7
aI3
aI19
aa(lp492
g440
aF0.6864336754504866
aI6
aI11
aI17
aa(lp493
g440
aF0.3077798873868859
aI25
aI7
aI3
aa(lp494
g443
aF0.3058859991434074
aI7
aI3
aI19
aa(lp495
g440
aF0.6864336754504866
aI6
aI11
aI17
aa(lp496
g440
aF0.3077798873868859
aI25
aI7
aI3
aa(lp497
g443
aF0.3058859991434074
aI7
aI3
aI19
aa(lp498
g440
aF0.6864336754504866
aI6
aI11
aI17
aa(lp499
g440
aF0.3077798873868859
aI25
aI7
aI3
aa(lp500
g443
aF0.3058859991434074
aI7
aI3
aI19
aaaF4.601979970932007
asS'RF'
p501
(lp502
(lp503
g6
(g10
S'q=\n\xd7\xa3p\xcd?'
p504
tp505
Rp506
ag6
(g10
S'\xecQ\xb8\x1e\x85\xeb\xc1?'
p507
tp508
Rp509
ag6
(g10
S'\x9a\x99\x99\x99\x99\x99\xc9?'
p510
tp511
Rp512
ag6
(g10
S'q=\n\xd7\xa3p\xcd?'
p513
tp514
Rp515
ag6
(g10
S'\xecQ\xb8\x1e\x85\xeb\xc1?'
p516
tp517
Rp518
ag6
(g10
S'\x9a\x99\x99\x99\x99\x99\xc9?'
p519
tp520
Rp521
ag6
(g10
S'q=\n\xd7\xa3p\xcd?'
p522
tp523
Rp524
ag6
(g10
S'\xecQ\xb8\x1e\x85\xeb\xc1?'
p525
tp526
Rp527
ag6
(g10
S'\x9a\x99\x99\x99\x99\x99\xc9?'
p528
tp529
Rp530
ag6
(g10
S'q=\n\xd7\xa3p\xcd?'
p531
tp532
Rp533
ag6
(g10
S'\xecQ\xb8\x1e\x85\xeb\xc1?'
p534
tp535
Rp536
ag6
(g10
S'\x9a\x99\x99\x99\x99\x99\xc9?'
p537
tp538
Rp539
ag6
(g10
S'q=\n\xd7\xa3p\xcd?'
p540
tp541
Rp542
ag6
(g10
S'\xecQ\xb8\x1e\x85\xeb\xc1?'
p543
tp544
Rp545
ag6
(g10
S'\x9a\x99\x99\x99\x99\x99\xc9?'
p546
tp547
Rp548
ag6
(g10
S'q=\n\xd7\xa3p\xcd?'
p549
tp550
Rp551
ag6
(g10
S'\xecQ\xb8\x1e\x85\xeb\xc1?'
p552
tp553
Rp554
ag6
(g10
S'\x9a\x99\x99\x99\x99\x99\xc9?'
p555
tp556
Rp557
ag6
(g10
S'q=\n\xd7\xa3p\xcd?'
p558
tp559
Rp560
ag6
(g10
S'\xecQ\xb8\x1e\x85\xeb\xc1?'
p561
tp562
Rp563
ag6
(g10
S'\x9a\x99\x99\x99\x99\x99\xc9?'
p564
tp565
Rp566
ag6
(g10
S'q=\n\xd7\xa3p\xcd?'
p567
tp568
Rp569
ag6
(g10
S'\xecQ\xb8\x1e\x85\xeb\xc1?'
p570
tp571
Rp572
ag6
(g10
S'\x9a\x99\x99\x99\x99\x99\xc9?'
p573
tp574
Rp575
ag6
(g10
S'q=\n\xd7\xa3p\xcd?'
p576
tp577
Rp578
ag6
(g10
S'\xecQ\xb8\x1e\x85\xeb\xc1?'
p579
tp580
Rp581
ag6
(g10
S'\x9a\x99\x99\x99\x99\x99\xc9?'
p582
tp583
Rp584
ag6
(g10
S'q=\n\xd7\xa3p\xcd?'
p585
tp586
Rp587
ag6
(g10
S'\xecQ\xb8\x1e\x85\xeb\xc1?'
p588
tp589
Rp590
ag6
(g10
S'\x9a\x99\x99\x99\x99\x99\xc9?'
p591
tp592
Rp593
ag6
(g10
S'q=\n\xd7\xa3p\xcd?'
p594
tp595
Rp596
ag6
(g10
S'\xecQ\xb8\x1e\x85\xeb\xc1?'
p597
tp598
Rp599
ag6
(g10
S'\x9a\x99\x99\x99\x99\x99\xc9?'
p600
tp601
Rp602
ag6
(g10
S'q=\n\xd7\xa3p\xcd?'
p603
tp604
Rp605
ag6
(g10
S'\xecQ\xb8\x1e\x85\xeb\xc1?'
p606
tp607
Rp608
ag6
(g10
S'\x9a\x99\x99\x99\x99\x99\xc9?'
p609
tp610
Rp611
ag6
(g10
S'q=\n\xd7\xa3p\xcd?'
p612
tp613
Rp614
ag6
(g10
S'\xecQ\xb8\x1e\x85\xeb\xc1?'
p615
tp616
Rp617
ag6
(g10
S'\x9a\x99\x99\x99\x99\x99\xc9?'
p618
tp619
Rp620
ag6
(g10
S'q=\n\xd7\xa3p\xcd?'
p621
tp622
Rp623
ag6
(g10
S'\xecQ\xb8\x1e\x85\xeb\xc1?'
p624
tp625
Rp626
ag6
(g10
S'\x9a\x99\x99\x99\x99\x99\xc9?'
p627
tp628
Rp629
ag6
(g10
S'q=\n\xd7\xa3p\xcd?'
p630
tp631
Rp632
ag6
(g10
S'\xecQ\xb8\x1e\x85\xeb\xc1?'
p633
tp634
Rp635
ag6
(g10
S'\x9a\x99\x99\x99\x99\x99\xc9?'
p636
tp637
Rp638
ag6
(g10
S'q=\n\xd7\xa3p\xcd?'
p639
tp640
Rp641
ag6
(g10
S'\xecQ\xb8\x1e\x85\xeb\xc1?'
p642
tp643
Rp644
ag6
(g10
S'\x9a\x99\x99\x99\x99\x99\xc9?'
p645
tp646
Rp647
ag6
(g10
S'q=\n\xd7\xa3p\xcd?'
p648
tp649
Rp650
ag6
(g10
S'\xecQ\xb8\x1e\x85\xeb\xc1?'
p651
tp652
Rp653
ag6
(g10
S'\x9a\x99\x99\x99\x99\x99\xc9?'
p654
tp655
Rp656
ag6
(g10
S'q=\n\xd7\xa3p\xcd?'
p657
tp658
Rp659
ag6
(g10
S'\xecQ\xb8\x1e\x85\xeb\xc1?'
p660
tp661
Rp662
ag6
(g10
S'\x9a\x99\x99\x99\x99\x99\xc9?'
p663
tp664
Rp665
ag6
(g10
S'q=\n\xd7\xa3p\xcd?'
p666
tp667
Rp668
ag6
(g10
S'\xecQ\xb8\x1e\x85\xeb\xc1?'
p669
tp670
Rp671
ag6
(g10
S'\x9a\x99\x99\x99\x99\x99\xc9?'
p672
tp673
Rp674
ag6
(g10
S'q=\n\xd7\xa3p\xcd?'
p675
tp676
Rp677
ag6
(g10
S'\xecQ\xb8\x1e\x85\xeb\xc1?'
p678
tp679
Rp680
ag6
(g10
S'\x9a\x99\x99\x99\x99\x99\xc9?'
p681
tp682
Rp683
aa(lp684
(lp685
g443
aF0.489490361114548
aI28
aI1
aI38
aa(lp686
g440
aF0.3058859991434074
aI14
aI5
aI19
aa(lp687
g443
aF0.6864336754504866
aI17
aI2
aI16
aa(lp688
g443
aF0.489490361114548
aI28
aI1
aI38
aa(lp689
g440
aF0.3058859991434074
aI14
aI5
aI19
aa(lp690
g443
aF0.6864336754504866
aI17
aI2
aI16
aa(lp691
g443
aF0.489490361114548
aI28
aI1
aI38
aa(lp692
g440
aF0.3058859991434074
aI14
aI5
aI19
aa(lp693
g443
aF0.6864336754504866
aI17
aI2
aI16
aa(lp694
g443
aF0.489490361114548
aI28
aI1
aI38
aa(lp695
g440
aF0.3058859991434074
aI14
aI5
aI19
aa(lp696
g443
aF0.6864336754504866
aI17
aI2
aI16
aa(lp697
g443
aF0.489490361114548
aI28
aI1
aI38
aa(lp698
g440
aF0.3058859991434074
aI14
aI5
aI19
aa(lp699
g443
aF0.6864336754504866
aI17
aI2
aI16
aa(lp700
g443
aF0.489490361114548
aI28
aI1
aI38
aa(lp701
g440
aF0.3058859991434074
aI14
aI5
aI19
aa(lp702
g443
aF0.6864336754504866
aI17
aI2
aI16
aa(lp703
g443
aF0.489490361114548
aI28
aI1
aI38
aa(lp704
g440
aF0.3058859991434074
aI14
aI5
aI19
aa(lp705
g443
aF0.6864336754504866
aI17
aI2
aI16
aa(lp706
g443
aF0.489490361114548
aI28
aI1
aI38
aa(lp707
g440
aF0.3058859991434074
aI14
aI5
aI19
aa(lp708
g443
aF0.6864336754504866
aI17
aI2
aI16
aa(lp709
g443
aF0.489490361114548
aI28
aI1
aI38
aa(lp710
g440
aF0.3058859991434074
aI14
aI5
aI19
aa(lp711
g443
aF0.6864336754504866
aI17
aI2
aI16
aa(lp712
g443
aF0.489490361114548
aI28
aI1
aI38
aa(lp713
g440
aF0.3058859991434074
aI14
aI5
aI19
aa(lp714
g443
aF0.6864336754504866
aI17
aI2
aI16
aa(lp715
g443
aF0.489490361114548
aI28
aI1
aI38
aa(lp716
g440
aF0.3058859991434074
aI14
aI5
aI19
aa(lp717
g443
aF0.6864336754504866
aI17
aI2
aI16
aa(lp718
g443
aF0.489490361114548
aI28
aI1
aI38
aa(lp719
g440
aF0.3058859991434074
aI14
aI5
aI19
aa(lp720
g443
aF0.6864336754504866
aI17
aI2
aI16
aa(lp721
g443
aF0.489490361114548
aI28
aI1
aI38
aa(lp722
g440
aF0.3058859991434074
aI14
aI5
aI19
aa(lp723
g443
aF0.6864336754504866
aI17
aI2
aI16
aa(lp724
g443
aF0.489490361114548
aI28
aI1
aI38
aa(lp725
g440
aF0.3058859991434074
aI14
aI5
aI19
aa(lp726
g443
aF0.6864336754504866
aI17
aI2
aI16
aa(lp727
g443
aF0.489490361114548
aI28
aI1
aI38
aa(lp728
g440
aF0.3058859991434074
aI14
aI5
aI19
aa(lp729
g443
aF0.6864336754504866
aI17
aI2
aI16
aa(lp730
g443
aF0.489490361114548
aI28
aI1
aI38
aa(lp731
g440
aF0.3058859991434074
aI14
aI5
aI19
aa(lp732
g443
aF0.6864336754504866
aI17
aI2
aI16
aa(lp733
g443
aF0.489490361114548
aI28
aI1
aI38
aa(lp734
g440
aF0.3058859991434074
aI14
aI5
aI19
aa(lp735
g443
aF0.6864336754504866
aI17
aI2
aI16
aa(lp736
g443
aF0.489490361114548
aI28
aI1
aI38
aa(lp737
g440
aF0.3058859991434074
aI14
aI5
aI19
aa(lp738
g443
aF0.6864336754504866
aI17
aI2
aI16
aa(lp739
g443
aF0.489490361114548
aI28
aI1
aI38
aa(lp740
g440
aF0.3058859991434074
aI14
aI5
aI19
aa(lp741
g443
aF0.6864336754504866
aI17
aI2
aI16
aa(lp742
g443
aF0.489490361114548
aI28
aI1
aI38
aa(lp743
g440
aF0.3058859991434074
aI14
aI5
aI19
aa(lp744
g443
aF0.6864336754504866
aI17
aI2
aI16
aaaF388.48580503463745
asS'SVM'
p745
(lp746
(lp747
g6
(g10
S'\x00\x00\x00\x00\x00\x00\xd0?'
p748
tp749
Rp750
ag6
(g10
S'\xecQ\xb8\x1e\x85\xeb\xb1?'
p751
tp752
Rp753
ag6
(g10
S'\x00\x00\x00\x00\x00\x00\xd0?'
p754
tp755
Rp756
ag6
(g10
S'\xb8\x1e\x85\xebQ\xb8\xce?'
p757
tp758
Rp759
ag6
(g10
S'\xe1z\x14\xaeG\xe1\xca?'
p760
tp761
Rp762
ag6
(g10
S'\xecQ\xb8\x1e\x85\xeb\xb1?'
p763
tp764
Rp765
ag6
(g10
S'\xb8\x1e\x85\xebQ\xb8\xce?'
p766
tp767
Rp768
ag6
(g10
S'\xe1z\x14\xaeG\xe1\xca?'
p769
tp770
Rp771
ag6
(g10
S'\xecQ\xb8\x1e\x85\xeb\xb1?'
p772
tp773
Rp774
ag6
(g10
S'\xb8\x1e\x85\xebQ\xb8\xce?'
p775
tp776
Rp777
ag6
(g10
S'\xe1z\x14\xaeG\xe1\xca?'
p778
tp779
Rp780
ag6
(g10
S'\xecQ\xb8\x1e\x85\xeb\xb1?'
p781
tp782
Rp783
ag6
(g10
S'\xb8\x1e\x85\xebQ\xb8\xce?'
p784
tp785
Rp786
ag6
(g10
S'\xe1z\x14\xaeG\xe1\xca?'
p787
tp788
Rp789
ag6
(g10
S'\xecQ\xb8\x1e\x85\xeb\xb1?'
p790
tp791
Rp792
ag6
(g10
S'\xb8\x1e\x85\xebQ\xb8\xce?'
p793
tp794
Rp795
ag6
(g10
S'\xe1z\x14\xaeG\xe1\xca?'
p796
tp797
Rp798
ag6
(g10
S'\xecQ\xb8\x1e\x85\xeb\xb1?'
p799
tp800
Rp801
ag6
(g10
S'\xb8\x1e\x85\xebQ\xb8\xce?'
p802
tp803
Rp804
ag6
(g10
S'\xe1z\x14\xaeG\xe1\xca?'
p805
tp806
Rp807
ag6
(g10
S'\xecQ\xb8\x1e\x85\xeb\xb1?'
p808
tp809
Rp810
ag6
(g10
S'\xb8\x1e\x85\xebQ\xb8\xce?'
p811
tp812
Rp813
ag6
(g10
S'\xe1z\x14\xaeG\xe1\xca?'
p814
tp815
Rp816
ag6
(g10
S'\xecQ\xb8\x1e\x85\xeb\xb1?'
p817
tp818
Rp819
ag6
(g10
S'\xb8\x1e\x85\xebQ\xb8\xce?'
p820
tp821
Rp822
ag6
(g10
S'\xe1z\x14\xaeG\xe1\xca?'
p823
tp824
Rp825
ag6
(g10
S'\xecQ\xb8\x1e\x85\xeb\xb1?'
p826
tp827
Rp828
ag6
(g10
S'\xb8\x1e\x85\xebQ\xb8\xce?'
p829
tp830
Rp831
ag6
(g10
S'\xe1z\x14\xaeG\xe1\xca?'
p832
tp833
Rp834
ag6
(g10
S'\xecQ\xb8\x1e\x85\xeb\xb1?'
p835
tp836
Rp837
ag6
(g10
S'\xb8\x1e\x85\xebQ\xb8\xce?'
p838
tp839
Rp840
ag6
(g10
S'\xe1z\x14\xaeG\xe1\xca?'
p841
tp842
Rp843
ag6
(g10
S'\xecQ\xb8\x1e\x85\xeb\xb1?'
p844
tp845
Rp846
ag6
(g10
S'\xb8\x1e\x85\xebQ\xb8\xce?'
p847
tp848
Rp849
ag6
(g10
S'\xe1z\x14\xaeG\xe1\xca?'
p850
tp851
Rp852
ag6
(g10
S'\xecQ\xb8\x1e\x85\xeb\xb1?'
p853
tp854
Rp855
ag6
(g10
S'\xb8\x1e\x85\xebQ\xb8\xce?'
p856
tp857
Rp858
ag6
(g10
S'\xe1z\x14\xaeG\xe1\xca?'
p859
tp860
Rp861
ag6
(g10
S'\xecQ\xb8\x1e\x85\xeb\xb1?'
p862
tp863
Rp864
ag6
(g10
S'\xb8\x1e\x85\xebQ\xb8\xce?'
p865
tp866
Rp867
ag6
(g10
S'\xe1z\x14\xaeG\xe1\xca?'
p868
tp869
Rp870
ag6
(g10
S'\xecQ\xb8\x1e\x85\xeb\xb1?'
p871
tp872
Rp873
ag6
(g10
S'\xb8\x1e\x85\xebQ\xb8\xce?'
p874
tp875
Rp876
ag6
(g10
S'\xe1z\x14\xaeG\xe1\xca?'
p877
tp878
Rp879
ag6
(g10
S'\xecQ\xb8\x1e\x85\xeb\xb1?'
p880
tp881
Rp882
ag6
(g10
S'\xb8\x1e\x85\xebQ\xb8\xce?'
p883
tp884
Rp885
ag6
(g10
S'\xe1z\x14\xaeG\xe1\xca?'
p886
tp887
Rp888
ag6
(g10
S'\xecQ\xb8\x1e\x85\xeb\xb1?'
p889
tp890
Rp891
ag6
(g10
S'\xb8\x1e\x85\xebQ\xb8\xce?'
p892
tp893
Rp894
ag6
(g10
S'\xe1z\x14\xaeG\xe1\xca?'
p895
tp896
Rp897
ag6
(g10
S'\xecQ\xb8\x1e\x85\xeb\xb1?'
p898
tp899
Rp900
ag6
(g10
S'\xb8\x1e\x85\xebQ\xb8\xce?'
p901
tp902
Rp903
ag6
(g10
S'\xe1z\x14\xaeG\xe1\xca?'
p904
tp905
Rp906
ag6
(g10
S'\xecQ\xb8\x1e\x85\xeb\xb1?'
p907
tp908
Rp909
ag6
(g10
S'\xb8\x1e\x85\xebQ\xb8\xce?'
p910
tp911
Rp912
ag6
(g10
S'\xe1z\x14\xaeG\xe1\xca?'
p913
tp914
Rp915
ag6
(g10
S'\xecQ\xb8\x1e\x85\xeb\xb1?'
p916
tp917
Rp918
ag6
(g10
S'\xb8\x1e\x85\xebQ\xb8\xce?'
p919
tp920
Rp921
ag6
(g10
S'\xe1z\x14\xaeG\xe1\xca?'
p922
tp923
Rp924
ag6
(g10
S'\xecQ\xb8\x1e\x85\xeb\xb1?'
p925
tp926
Rp927
aa(lp928
(lp929
I99
aS'sigmoid'
p930
aF0.5008484746493213
aF0.7493860291067043
aa(lp931
I84
ag930
aF0.678064926639201
aF0.26731563930524593
aa(lp932
I88
ag930
aF0.9452342465006595
aF0.4430838139193912
aa(lp933
I82
ag930
aF0.5008484746493213
aF0.7493860291067043
aa(lp934
I35
ag930
aF0.9452342465006595
aF0.4430838139193912
aa(lp935
I68
ag930
aF0.30977600523181537
aF0.3077798873868859
aa(lp936
I82
ag930
aF0.5008484746493213
aF0.7493860291067043
aa(lp937
I35
ag930
aF0.9452342465006595
aF0.4430838139193912
aa(lp938
I68
ag930
aF0.30977600523181537
aF0.3077798873868859
aa(lp939
I82
ag930
aF0.5008484746493213
aF0.7493860291067043
aa(lp940
I35
ag930
aF0.9452342465006595
aF0.4430838139193912
aa(lp941
I68
ag930
aF0.30977600523181537
aF0.3077798873868859
aa(lp942
I82
ag930
aF0.5008484746493213
aF0.7493860291067043
aa(lp943
I35
ag930
aF0.9452342465006595
aF0.4430838139193912
aa(lp944
I68
ag930
aF0.30977600523181537
aF0.3077798873868859
aa(lp945
I82
ag930
aF0.5008484746493213
aF0.7493860291067043
aa(lp946
I35
ag930
aF0.9452342465006595
aF0.4430838139193912
aa(lp947
I68
ag930
aF0.30977600523181537
aF0.3077798873868859
aa(lp948
I82
ag930
aF0.5008484746493213
aF0.7493860291067043
aa(lp949
I35
ag930
aF0.9452342465006595
aF0.4430838139193912
aa(lp950
I68
ag930
aF0.30977600523181537
aF0.3077798873868859
aa(lp951
I82
ag930
aF0.5008484746493213
aF0.7493860291067043
aa(lp952
I35
ag930
aF0.9452342465006595
aF0.4430838139193912
aa(lp953
I68
ag930
aF0.30977600523181537
aF0.3077798873868859
aa(lp954
I82
ag930
aF0.5008484746493213
aF0.7493860291067043
aa(lp955
I35
ag930
aF0.9452342465006595
aF0.4430838139193912
aa(lp956
I68
ag930
aF0.30977600523181537
aF0.3077798873868859
aa(lp957
I82
ag930
aF0.5008484746493213
aF0.7493860291067043
aa(lp958
I35
ag930
aF0.9452342465006595
aF0.4430838139193912
aa(lp959
I68
ag930
aF0.30977600523181537
aF0.3077798873868859
aa(lp960
I82
ag930
aF0.5008484746493213
aF0.7493860291067043
aa(lp961
I35
ag930
aF0.9452342465006595
aF0.4430838139193912
aa(lp962
I68
ag930
aF0.30977600523181537
aF0.3077798873868859
aa(lp963
I82
ag930
aF0.5008484746493213
aF0.7493860291067043
aa(lp964
I35
ag930
aF0.9452342465006595
aF0.4430838139193912
aa(lp965
I68
ag930
aF0.30977600523181537
aF0.3077798873868859
aa(lp966
I82
ag930
aF0.5008484746493213
aF0.7493860291067043
aa(lp967
I35
ag930
aF0.9452342465006595
aF0.4430838139193912
aa(lp968
I68
ag930
aF0.30977600523181537
aF0.3077798873868859
aa(lp969
I82
ag930
aF0.5008484746493213
aF0.7493860291067043
aa(lp970
I35
ag930
aF0.9452342465006595
aF0.4430838139193912
aa(lp971
I68
ag930
aF0.30977600523181537
aF0.3077798873868859
aa(lp972
I82
ag930
aF0.5008484746493213
aF0.7493860291067043
aa(lp973
I35
ag930
aF0.9452342465006595
aF0.4430838139193912
aa(lp974
I68
ag930
aF0.30977600523181537
aF0.3077798873868859
aa(lp975
I82
ag930
aF0.5008484746493213
aF0.7493860291067043
aa(lp976
I35
ag930
aF0.9452342465006595
aF0.4430838139193912
aa(lp977
I68
ag930
aF0.30977600523181537
aF0.3077798873868859
aa(lp978
I82
ag930
aF0.5008484746493213
aF0.7493860291067043
aa(lp979
I35
ag930
aF0.9452342465006595
aF0.4430838139193912
aa(lp980
I68
ag930
aF0.30977600523181537
aF0.3077798873868859
aa(lp981
I82
ag930
aF0.5008484746493213
aF0.7493860291067043
aa(lp982
I35
ag930
aF0.9452342465006595
aF0.4430838139193912
aa(lp983
I68
ag930
aF0.30977600523181537
aF0.3077798873868859
aa(lp984
I82
ag930
aF0.5008484746493213
aF0.7493860291067043
aa(lp985
I35
ag930
aF0.9452342465006595
aF0.4430838139193912
aa(lp986
I68
ag930
aF0.30977600523181537
aF0.3077798873868859
aa(lp987
I82
ag930
aF0.5008484746493213
aF0.7493860291067043
aa(lp988
I35
ag930
aF0.9452342465006595
aF0.4430838139193912
aa(lp989
I68
ag930
aF0.30977600523181537
aF0.3077798873868859
aaaF15.346333980560303
ass.