(dp0
S'f1'
p1
(dp2
S'KNN'
p3
(lp4
(lp5
cnumpy.core.multiarray
scalar
p6
(cnumpy
dtype
p7
(S'f8'
p8
I0
I1
tp9
Rp10
(I3
S'<'
p11
NNNI-1
I-1
I0
tp12
bS'q=\n\xd7\xa3p\xdd?'
p13
tp14
Rp15
ag6
(g10
S'\xcd\xcc\xcc\xcc\xcc\xcc\xdc?'
p16
tp17
Rp18
ag6
(g10
S'\xcd\xcc\xcc\xcc\xcc\xcc\xdc?'
p19
tp20
Rp21
ag6
(g10
S')\\\x8f\xc2\xf5(\xdc?'
p22
tp23
Rp24
ag6
(g10
S'\xb8\x1e\x85\xebQ\xb8\xde?'
p25
tp26
Rp27
ag6
(g10
S'\xb8\x1e\x85\xebQ\xb8\xde?'
p28
tp29
Rp30
ag6
(g10
S'\xcd\xcc\xcc\xcc\xcc\xcc\xdc?'
p31
tp32
Rp33
ag6
(g10
S'\xcd\xcc\xcc\xcc\xcc\xcc\xdc?'
p34
tp35
Rp36
ag6
(g10
S'\xcd\xcc\xcc\xcc\xcc\xcc\xdc?'
p37
tp38
Rp39
ag6
(g10
S')\\\x8f\xc2\xf5(\xdc?'
p40
tp41
Rp42
ag6
(g10
S'\xb8\x1e\x85\xebQ\xb8\xde?'
p43
tp44
Rp45
ag6
(g10
S')\\\x8f\xc2\xf5(\xdc?'
p46
tp47
Rp48
ag6
(g10
S'\xb8\x1e\x85\xebQ\xb8\xde?'
p49
tp50
Rp51
ag6
(g10
S'\xcd\xcc\xcc\xcc\xcc\xcc\xdc?'
p52
tp53
Rp54
ag6
(g10
S'\xb8\x1e\x85\xebQ\xb8\xde?'
p55
tp56
Rp57
ag6
(g10
S'\xb8\x1e\x85\xebQ\xb8\xde?'
p58
tp59
Rp60
ag6
(g10
S'\xb8\x1e\x85\xebQ\xb8\xde?'
p61
tp62
Rp63
ag6
(g10
S'\xcd\xcc\xcc\xcc\xcc\xcc\xdc?'
p64
tp65
Rp66
ag6
(g10
S'q=\n\xd7\xa3p\xdd?'
p67
tp68
Rp69
ag6
(g10
S'\xcd\xcc\xcc\xcc\xcc\xcc\xdc?'
p70
tp71
Rp72
ag6
(g10
S'\xcd\xcc\xcc\xcc\xcc\xcc\xdc?'
p73
tp74
Rp75
ag6
(g10
S'\xcd\xcc\xcc\xcc\xcc\xcc\xdc?'
p76
tp77
Rp78
ag6
(g10
S'\xcd\xcc\xcc\xcc\xcc\xcc\xdc?'
p79
tp80
Rp81
ag6
(g10
S'\xcd\xcc\xcc\xcc\xcc\xcc\xdc?'
p82
tp83
Rp84
ag6
(g10
S'\xc3\xf5(\\\x8f\xc2\xd5?'
p85
tp86
Rp87
ag6
(g10
S'\xcd\xcc\xcc\xcc\xcc\xcc\xdc?'
p88
tp89
Rp90
ag6
(g10
S'\xcd\xcc\xcc\xcc\xcc\xcc\xdc?'
p91
tp92
Rp93
ag6
(g10
S'\xcd\xcc\xcc\xcc\xcc\xcc\xdc?'
p94
tp95
Rp96
ag6
(g10
S')\\\x8f\xc2\xf5(\xdc?'
p97
tp98
Rp99
ag6
(g10
S'\xcd\xcc\xcc\xcc\xcc\xcc\xdc?'
p100
tp101
Rp102
ag6
(g10
S'\xf6(\\\x8f\xc2\xf5\xd8?'
p103
tp104
Rp105
ag6
(g10
S'\xcd\xcc\xcc\xcc\xcc\xcc\xdc?'
p106
tp107
Rp108
ag6
(g10
S'\xcd\xcc\xcc\xcc\xcc\xcc\xdc?'
p109
tp110
Rp111
ag6
(g10
S'\xcd\xcc\xcc\xcc\xcc\xcc\xdc?'
p112
tp113
Rp114
ag6
(g10
S'q=\n\xd7\xa3p\xdd?'
p115
tp116
Rp117
ag6
(g10
S')\\\x8f\xc2\xf5(\xdc?'
p118
tp119
Rp120
ag6
(g10
S'\xcd\xcc\xcc\xcc\xcc\xcc\xdc?'
p121
tp122
Rp123
ag6
(g10
S'\xcd\xcc\xcc\xcc\xcc\xcc\xdc?'
p124
tp125
Rp126
ag6
(g10
S')\\\x8f\xc2\xf5(\xdc?'
p127
tp128
Rp129
ag6
(g10
S')\\\x8f\xc2\xf5(\xdc?'
p130
tp131
Rp132
ag6
(g10
S'\xcd\xcc\xcc\xcc\xcc\xcc\xdc?'
p133
tp134
Rp135
ag6
(g10
S'\xf6(\\\x8f\xc2\xf5\xd8?'
p136
tp137
Rp138
ag6
(g10
S'\xcd\xcc\xcc\xcc\xcc\xcc\xdc?'
p139
tp140
Rp141
ag6
(g10
S'\xcd\xcc\xcc\xcc\xcc\xcc\xdc?'
p142
tp143
Rp144
ag6
(g10
S'\xc3\xf5(\\\x8f\xc2\xd5?'
p145
tp146
Rp147
ag6
(g10
S')\\\x8f\xc2\xf5(\xdc?'
p148
tp149
Rp150
ag6
(g10
S'\xcd\xcc\xcc\xcc\xcc\xcc\xdc?'
p151
tp152
Rp153
ag6
(g10
S'\xcd\xcc\xcc\xcc\xcc\xcc\xdc?'
p154
tp155
Rp156
ag6
(g10
S'\xb8\x1e\x85\xebQ\xb8\xde?'
p157
tp158
Rp159
ag6
(g10
S'\xf6(\\\x8f\xc2\xf5\xd8?'
p160
tp161
Rp162
ag6
(g10
S'\xcd\xcc\xcc\xcc\xcc\xcc\xdc?'
p163
tp164
Rp165
ag6
(g10
S'\xcd\xcc\xcc\xcc\xcc\xcc\xdc?'
p166
tp167
Rp168
ag6
(g10
S'\xb8\x1e\x85\xebQ\xb8\xde?'
p169
tp170
Rp171
ag6
(g10
S'\xcd\xcc\xcc\xcc\xcc\xcc\xdc?'
p172
tp173
Rp174
ag6
(g10
S'\xcd\xcc\xcc\xcc\xcc\xcc\xdc?'
p175
tp176
Rp177
ag6
(g10
S')\\\x8f\xc2\xf5(\xdc?'
p178
tp179
Rp180
ag6
(g10
S'\xcd\xcc\xcc\xcc\xcc\xcc\xdc?'
p181
tp182
Rp183
ag6
(g10
S')\\\x8f\xc2\xf5(\xdc?'
p184
tp185
Rp186
ag6
(g10
S'\xcd\xcc\xcc\xcc\xcc\xcc\xdc?'
p187
tp188
Rp189
ag6
(g10
S'\xcd\xcc\xcc\xcc\xcc\xcc\xdc?'
p190
tp191
Rp192
aa(lp193
(lp194
I8
aS'distance'
p195
aa(lp196
I5
aS'uniform'
p197
aa(lp198
I7
ag197
aa(lp199
I6
ag195
aa(lp200
I10
ag195
aa(lp201
I7
ag195
aa(lp202
I7
ag197
aa(lp203
I9
ag197
aa(lp204
I3
ag197
aa(lp205
I4
ag195
aa(lp206
I9
ag195
aa(lp207
I6
ag195
aa(lp208
I9
ag195
aa(lp209
I3
ag197
aa(lp210
I9
ag195
aa(lp211
I7
ag195
aa(lp212
I10
ag195
aa(lp213
I9
ag197
aa(lp214
I8
ag195
aa(lp215
I7
ag197
aa(lp216
I5
ag197
aa(lp217
I3
ag197
aa(lp218
I3
ag195
aa(lp219
I9
ag197
aa(lp220
I6
ag197
aa(lp221
I9
ag197
aa(lp222
I5
ag197
aa(lp223
I7
ag197
aa(lp224
I4
ag195
aa(lp225
I9
ag197
aa(lp226
I2
ag195
aa(lp227
I3
ag195
aa(lp228
I9
ag197
aa(lp229
I5
ag197
aa(lp230
I10
ag197
aa(lp231
I6
ag195
aa(lp232
I7
ag197
aa(lp233
I9
ag197
aa(lp234
I6
ag195
aa(lp235
I6
ag195
aa(lp236
I7
ag197
aa(lp237
I2
ag195
aa(lp238
I3
ag197
aa(lp239
I9
ag197
aa(lp240
I4
ag197
aa(lp241
I4
ag195
aa(lp242
I7
ag197
aa(lp243
I3
ag197
aa(lp244
I9
ag195
aa(lp245
I2
ag195
aa(lp246
I3
ag197
aa(lp247
I7
ag197
aa(lp248
I9
ag195
aa(lp249
I3
ag197
aa(lp250
I5
ag197
aa(lp251
I6
ag195
aa(lp252
I3
ag197
aa(lp253
I6
ag195
aa(lp254
I9
ag197
aa(lp255
I3
ag197
aaaF4.418724060058594
asS'DTC'
p256
(lp257
(lp258
g6
(g10
S'\x14\xaeG\xe1z\x14\xde?'
p259
tp260
Rp261
ag6
(g10
S'ffffff\xd6?'
p262
tp263
Rp264
ag6
(g10
S'\xa4p=\n\xd7\xa3\xe0?'
p265
tp266
Rp267
ag6
(g10
S'\x9a\x99\x99\x99\x99\x99\xd9?'
p268
tp269
Rp270
ag6
(g10
S'R\xb8\x1e\x85\xebQ\xe0?'
p271
tp272
Rp273
ag6
(g10
S'\xe1z\x14\xaeG\xe1\xda?'
p274
tp275
Rp276
ag6
(g10
S'\x1f\x85\xebQ\xb8\x1e\xd5?'
p277
tp278
Rp279
ag6
(g10
S'\x9a\x99\x99\x99\x99\x99\xd9?'
p280
tp281
Rp282
ag6
(g10
S'\xaeG\xe1z\x14\xae\xd7?'
p283
tp284
Rp285
ag6
(g10
S'=\n\xd7\xa3p=\xda?'
p286
tp287
Rp288
ag6
(g10
S'\xe1z\x14\xaeG\xe1\xda?'
p289
tp290
Rp291
ag6
(g10
S'\xf6(\\\x8f\xc2\xf5\xe0?'
p292
tp293
Rp294
ag6
(g10
S')\\\x8f\xc2\xf5(\xdc?'
p295
tp296
Rp297
ag6
(g10
S'\xcd\xcc\xcc\xcc\xcc\xcc\xdc?'
p298
tp299
Rp300
ag6
(g10
S'\x9a\x99\x99\x99\x99\x99\xd9?'
p301
tp302
Rp303
ag6
(g10
S'q=\n\xd7\xa3p\xdd?'
p304
tp305
Rp306
ag6
(g10
S'\x9a\x99\x99\x99\x99\x99\xd9?'
p307
tp308
Rp309
ag6
(g10
S'R\xb8\x1e\x85\xebQ\xd8?'
p310
tp311
Rp312
ag6
(g10
S'\n\xd7\xa3p=\n\xd7?'
p313
tp314
Rp315
ag6
(g10
S')\\\x8f\xc2\xf5(\xdc?'
p316
tp317
Rp318
ag6
(g10
S'\x9a\x99\x99\x99\x99\x99\xd9?'
p319
tp320
Rp321
ag6
(g10
S'\xe1z\x14\xaeG\xe1\xda?'
p322
tp323
Rp324
ag6
(g10
S'\x9a\x99\x99\x99\x99\x99\xe1?'
p325
tp326
Rp327
ag6
(g10
S'\x1f\x85\xebQ\xb8\x1e\xd5?'
p328
tp329
Rp330
ag6
(g10
S'\xb8\x1e\x85\xebQ\xb8\xde?'
p331
tp332
Rp333
ag6
(g10
S'\xf6(\\\x8f\xc2\xf5\xe0?'
p334
tp335
Rp336
ag6
(g10
S'\n\xd7\xa3p=\n\xd7?'
p337
tp338
Rp339
ag6
(g10
S'\x85\xebQ\xb8\x1e\x85\xdb?'
p340
tp341
Rp342
ag6
(g10
S'=\n\xd7\xa3p=\xda?'
p343
tp344
Rp345
ag6
(g10
S'\xf6(\\\x8f\xc2\xf5\xd8?'
p346
tp347
Rp348
ag6
(g10
S'\xf6(\\\x8f\xc2\xf5\xd8?'
p349
tp350
Rp351
ag6
(g10
S')\\\x8f\xc2\xf5(\xdc?'
p352
tp353
Rp354
ag6
(g10
S'\xd7\xa3p=\n\xd7\xd3?'
p355
tp356
Rp357
ag6
(g10
S'q=\n\xd7\xa3p\xdd?'
p358
tp359
Rp360
ag6
(g10
S'\xf6(\\\x8f\xc2\xf5\xd8?'
p361
tp362
Rp363
ag6
(g10
S'\n\xd7\xa3p=\n\xd7?'
p364
tp365
Rp366
ag6
(g10
S'\xc3\xf5(\\\x8f\xc2\xd5?'
p367
tp368
Rp369
ag6
(g10
S'\xf6(\\\x8f\xc2\xf5\xd8?'
p370
tp371
Rp372
ag6
(g10
S'\xf6(\\\x8f\xc2\xf5\xe0?'
p373
tp374
Rp375
ag6
(g10
S'\xcd\xcc\xcc\xcc\xcc\xcc\xdc?'
p376
tp377
Rp378
ag6
(g10
S'\n\xd7\xa3p=\n\xd7?'
p379
tp380
Rp381
ag6
(g10
S'\n\xd7\xa3p=\n\xd7?'
p382
tp383
Rp384
ag6
(g10
S'\x9a\x99\x99\x99\x99\x99\xd9?'
p385
tp386
Rp387
ag6
(g10
S'q=\n\xd7\xa3p\xdd?'
p388
tp389
Rp390
ag6
(g10
S'\x8f\xc2\xf5(\\\x8f\xd2?'
p391
tp392
Rp393
ag6
(g10
S')\\\x8f\xc2\xf5(\xdc?'
p394
tp395
Rp396
ag6
(g10
S'333333\xd3?'
p397
tp398
Rp399
ag6
(g10
S'\n\xd7\xa3p=\n\xd7?'
p400
tp401
Rp402
ag6
(g10
S'\xb8\x1e\x85\xebQ\xb8\xde?'
p403
tp404
Rp405
ag6
(g10
S'\x9a\x99\x99\x99\x99\x99\xd9?'
p406
tp407
Rp408
ag6
(g10
S'{\x14\xaeG\xe1z\xd4?'
p409
tp410
Rp411
ag6
(g10
S'\xe1z\x14\xaeG\xe1\xda?'
p412
tp413
Rp414
ag6
(g10
S'=\n\xd7\xa3p=\xda?'
p415
tp416
Rp417
ag6
(g10
S'\x9a\x99\x99\x99\x99\x99\xd9?'
p418
tp419
Rp420
ag6
(g10
S'\n\xd7\xa3p=\n\xd7?'
p421
tp422
Rp423
ag6
(g10
S'\xd7\xa3p=\n\xd7\xd3?'
p424
tp425
Rp426
ag6
(g10
S')\\\x8f\xc2\xf5(\xdc?'
p427
tp428
Rp429
ag6
(g10
S'\x9a\x99\x99\x99\x99\x99\xd9?'
p430
tp431
Rp432
ag6
(g10
S'\xf6(\\\x8f\xc2\xf5\xd8?'
p433
tp434
Rp435
ag6
(g10
S'R\xb8\x1e\x85\xebQ\xe0?'
p436
tp437
Rp438
aa(lp439
(lp440
S'entropy'
p441
aF0.7836182523792646
aI22
aI3
aI9
aa(lp442
g441
aF0.2220690390354774
aI20
aI11
aI11
aa(lp443
S'gini'
p444
aF0.22540159507719232
aI22
aI10
aI2
aa(lp445
g441
aF0.8947380608556382
aI15
aI18
aI7
aa(lp446
g441
aF0.9956178826472535
aI9
aI9
aI2
aa(lp447
g444
aF0.7835972953972948
aI25
aI4
aI3
aa(lp448
g444
aF0.9393056431732512
aI18
aI7
aI3
aa(lp449
g444
aF0.3187124912464278
aI26
aI3
aI3
aa(lp450
g441
aF0.10703526468171068
aI6
aI5
aI16
aa(lp451
g444
aF0.47781752984270165
aI26
aI12
aI20
aa(lp452
g444
aF0.9627290026948108
aI29
aI11
aI13
aa(lp453
g441
aF0.9191635254547526
aI16
aI14
aI1
aa(lp454
g441
aF0.8718581655022923
aI23
aI15
aI16
aa(lp455
g441
aF0.3694247768919101
aI19
aI1
aI2
aa(lp456
g441
aF0.13234772303275985
aI14
aI18
aI5
aa(lp457
g441
aF0.20240888302696158
aI19
aI5
aI15
aa(lp458
g441
aF0.11290236619483895
aI9
aI17
aI10
aa(lp459
g441
aF0.5888456351711642
aI29
aI19
aI17
aa(lp460
g441
aF0.4418368166254525
aI9
aI11
aI18
aa(lp461
g441
aF0.994712509976499
aI7
aI16
aI13
aa(lp462
g444
aF0.1281113461674515
aI20
aI17
aI21
aa(lp463
g441
aF0.7855955461964909
aI13
aI1
aI5
aa(lp464
g444
aF0.18369692275920319
aI2
aI12
aI14
aa(lp465
g444
aF0.7852178268244011
aI14
aI9
aI11
aa(lp466
g444
aF0.29830058947355353
aI8
aI11
aI18
aa(lp467
g441
aF0.999537443534688
aI5
aI8
aI1
aa(lp468
g441
aF0.3787209169204938
aI2
aI19
aI21
aa(lp469
g444
aF0.859868575607233
aI12
aI7
aI18
aa(lp470
g444
aF0.9911452160713083
aI7
aI7
aI16
aa(lp471
g441
aF0.5684088970857779
aI20
aI17
aI15
aa(lp472
g444
aF0.41604900891625896
aI13
aI7
aI19
aa(lp473
g441
aF0.17681631218795202
aI22
aI8
aI13
aa(lp474
g441
aF0.24211219925840693
aI7
aI21
aI15
aa(lp475
g441
aF0.9203652796341659
aI18
aI18
aI9
aa(lp476
g444
aF0.1726449963576224
aI25
aI17
aI8
aa(lp477
g444
aF0.35387250701190576
aI7
aI19
aI20
aa(lp478
g444
aF0.10264822571251245
aI15
aI10
aI17
aa(lp479
g441
aF0.7745629722838921
aI27
aI5
aI20
aa(lp480
g441
aF0.16397184644510074
aI6
aI13
aI20
aa(lp481
g444
aF0.2123930311553483
aI11
aI2
aI3
aa(lp482
g444
aF0.17194420526139087
aI22
aI11
aI17
aa(lp483
g444
aF0.3163261466732154
aI19
aI19
aI9
aa(lp484
g441
aF0.12543404828426524
aI23
aI17
aI10
aa(lp485
g441
aF0.873923746170592
aI15
aI5
aI17
aa(lp486
g441
aF0.7200534326867493
aI12
aI4
aI7
aa(lp487
g441
aF0.7548139096713026
aI29
aI7
aI3
aa(lp488
g441
aF0.5050969939432771
aI26
aI19
aI16
aa(lp489
g444
aF0.15439989869602688
aI22
aI11
aI5
aa(lp490
g441
aF0.8653160751118619
aI10
aI1
aI18
aa(lp491
g441
aF0.3985834504196195
aI21
aI4
aI21
aa(lp492
g441
aF0.7179777357211058
aI17
aI8
aI8
aa(lp493
g441
aF0.42274687287106627
aI11
aI5
aI11
aa(lp494
g441
aF0.7721927757667093
aI9
aI2
aI16
aa(lp495
g441
aF0.5900456381484868
aI29
aI18
aI9
aa(lp496
g441
aF0.7680821039597034
aI30
aI4
aI18
aa(lp497
g444
aF0.19512408444893573
aI5
aI8
aI16
aa(lp498
g441
aF0.7983033636019707
aI10
aI2
aI2
aa(lp499
g441
aF0.729773075563686
aI28
aI4
aI4
aa(lp500
g441
aF0.42278145123401145
aI29
aI13
aI3
aa(lp501
g441
aF0.6498611913430825
aI4
aI4
aI8
aaaF2.9236958026885986
asS'RF'
p502
(lp503
(lp504
g6
(g10
S'\x9a\x99\x99\x99\x99\x99\xd9?'
p505
tp506
Rp507
ag6
(g10
S'\x1f\x85\xebQ\xb8\x1e\xd5?'
p508
tp509
Rp510
ag6
(g10
S'\xaeG\xe1z\x14\xae\xd7?'
p511
tp512
Rp513
ag6
(g10
S'\xf6(\\\x8f\xc2\xf5\xd8?'
p514
tp515
Rp516
ag6
(g10
S')\\\x8f\xc2\xf5(\xdc?'
p517
tp518
Rp519
ag6
(g10
S'\x9a\x99\x99\x99\x99\x99\xd9?'
p520
tp521
Rp522
ag6
(g10
S'\\\x8f\xc2\xf5(\\\xdf?'
p523
tp524
Rp525
ag6
(g10
S'\x14\xaeG\xe1z\x14\xde?'
p526
tp527
Rp528
ag6
(g10
S'\xaeG\xe1z\x14\xae\xd7?'
p529
tp530
Rp531
ag6
(g10
S'\x9a\x99\x99\x99\x99\x99\xd9?'
p532
tp533
Rp534
ag6
(g10
S')\\\x8f\xc2\xf5(\xdc?'
p535
tp536
Rp537
ag6
(g10
S'\n\xd7\xa3p=\n\xd7?'
p538
tp539
Rp540
ag6
(g10
S'{\x14\xaeG\xe1z\xd4?'
p541
tp542
Rp543
ag6
(g10
S'\xe1z\x14\xaeG\xe1\xda?'
p544
tp545
Rp546
ag6
(g10
S')\\\x8f\xc2\xf5(\xdc?'
p547
tp548
Rp549
ag6
(g10
S'\xf6(\\\x8f\xc2\xf5\xd8?'
p550
tp551
Rp552
ag6
(g10
S'\n\xd7\xa3p=\n\xd7?'
p553
tp554
Rp555
ag6
(g10
S'\xe1z\x14\xaeG\xe1\xda?'
p556
tp557
Rp558
ag6
(g10
S'R\xb8\x1e\x85\xebQ\xd8?'
p559
tp560
Rp561
ag6
(g10
S'\x85\xebQ\xb8\x1e\x85\xdb?'
p562
tp563
Rp564
ag6
(g10
S'=\n\xd7\xa3p=\xda?'
p565
tp566
Rp567
ag6
(g10
S'ffffff\xd6?'
p568
tp569
Rp570
ag6
(g10
S'\x1f\x85\xebQ\xb8\x1e\xd5?'
p571
tp572
Rp573
ag6
(g10
S'\xf6(\\\x8f\xc2\xf5\xd8?'
p574
tp575
Rp576
ag6
(g10
S'\x85\xebQ\xb8\x1e\x85\xdb?'
p577
tp578
Rp579
ag6
(g10
S'\xcd\xcc\xcc\xcc\xcc\xcc\xdc?'
p580
tp581
Rp582
ag6
(g10
S'\xaeG\xe1z\x14\xae\xd7?'
p583
tp584
Rp585
ag6
(g10
S'R\xb8\x1e\x85\xebQ\xd8?'
p586
tp587
Rp588
ag6
(g10
S'\x8f\xc2\xf5(\\\x8f\xd2?'
p589
tp590
Rp591
ag6
(g10
S'\xc3\xf5(\\\x8f\xc2\xd5?'
p592
tp593
Rp594
ag6
(g10
S'\x85\xebQ\xb8\x1e\x85\xdb?'
p595
tp596
Rp597
ag6
(g10
S'\xaeG\xe1z\x14\xae\xd7?'
p598
tp599
Rp600
ag6
(g10
S'\n\xd7\xa3p=\n\xd7?'
p601
tp602
Rp603
ag6
(g10
S'\n\xd7\xa3p=\n\xd7?'
p604
tp605
Rp606
ag6
(g10
S'\xaeG\xe1z\x14\xae\xd7?'
p607
tp608
Rp609
ag6
(g10
S'\xc3\xf5(\\\x8f\xc2\xd5?'
p610
tp611
Rp612
ag6
(g10
S'=\n\xd7\xa3p=\xda?'
p613
tp614
Rp615
ag6
(g10
S'\x14\xaeG\xe1z\x14\xde?'
p616
tp617
Rp618
ag6
(g10
S'\xb8\x1e\x85\xebQ\xb8\xde?'
p619
tp620
Rp621
ag6
(g10
S'\x14\xaeG\xe1z\x14\xde?'
p622
tp623
Rp624
ag6
(g10
S'\xf6(\\\x8f\xc2\xf5\xd8?'
p625
tp626
Rp627
ag6
(g10
S'R\xb8\x1e\x85\xebQ\xd8?'
p628
tp629
Rp630
ag6
(g10
S'\xaeG\xe1z\x14\xae\xd7?'
p631
tp632
Rp633
ag6
(g10
S'\xc3\xf5(\\\x8f\xc2\xd5?'
p634
tp635
Rp636
ag6
(g10
S'\x85\xebQ\xb8\x1e\x85\xdb?'
p637
tp638
Rp639
ag6
(g10
S')\\\x8f\xc2\xf5(\xdc?'
p640
tp641
Rp642
ag6
(g10
S'=\n\xd7\xa3p=\xda?'
p643
tp644
Rp645
ag6
(g10
S'\xaeG\xe1z\x14\xae\xd7?'
p646
tp647
Rp648
ag6
(g10
S'=\n\xd7\xa3p=\xda?'
p649
tp650
Rp651
ag6
(g10
S'R\xb8\x1e\x85\xebQ\xd8?'
p652
tp653
Rp654
ag6
(g10
S'\n\xd7\xa3p=\n\xd7?'
p655
tp656
Rp657
ag6
(g10
S'\xc3\xf5(\\\x8f\xc2\xd5?'
p658
tp659
Rp660
ag6
(g10
S'\xb8\x1e\x85\xebQ\xb8\xde?'
p661
tp662
Rp663
ag6
(g10
S'\n\xd7\xa3p=\n\xd7?'
p664
tp665
Rp666
ag6
(g10
S'R\xb8\x1e\x85\xebQ\xd8?'
p667
tp668
Rp669
ag6
(g10
S'\x1f\x85\xebQ\xb8\x1e\xd5?'
p670
tp671
Rp672
ag6
(g10
S'\xe1z\x14\xaeG\xe1\xda?'
p673
tp674
Rp675
ag6
(g10
S'\x1f\x85\xebQ\xb8\x1e\xd5?'
p676
tp677
Rp678
ag6
(g10
S'R\xb8\x1e\x85\xebQ\xd8?'
p679
tp680
Rp681
ag6
(g10
S'\xf6(\\\x8f\xc2\xf5\xd8?'
p682
tp683
Rp684
aa(lp685
(lp686
g444
aF0.7870123865189798
aI4
aI1
aI80
aa(lp687
g441
aF0.8828537164445506
aI21
aI3
aI58
aa(lp688
g441
aF0.1093397740005439
aI6
aI1
aI79
aa(lp689
g444
aF0.9256928108721
aI22
aI8
aI39
aa(lp690
g444
aF0.7475814739776199
aI28
aI3
aI11
aa(lp691
g441
aF0.11269689300533772
aI21
aI1
aI41
aa(lp692
g444
aF0.13792259527172415
aI15
aI19
aI47
aa(lp693
g444
aF0.5625987921708359
aI15
aI21
aI43
aa(lp694
g444
aF0.8504296158024278
aI6
aI5
aI41
aa(lp695
g444
aF0.7688572067099071
aI27
aI5
aI87
aa(lp696
g444
aF0.1907964801057211
aI13
aI1
aI41
aa(lp697
g441
aF0.27053886452135584
aI2
aI4
aI40
aa(lp698
g441
aF0.7905479936403247
aI22
aI3
aI24
aa(lp699
g444
aF0.44999711187123115
aI8
aI1
aI14
aa(lp700
g441
aF0.9548553937168849
aI23
aI14
aI80
aa(lp701
g444
aF0.7418326551539759
aI6
aI1
aI46
aa(lp702
g441
aF0.99473732875342
aI21
aI2
aI15
aa(lp703
g444
aF0.7763237837913126
aI14
aI1
aI86
aa(lp704
g444
aF0.57602224028886
aI8
aI1
aI49
aa(lp705
g444
aF0.48794293432935665
aI25
aI2
aI53
aa(lp706
g444
aF0.8395537601251762
aI3
aI1
aI53
aa(lp707
g441
aF0.9908384526290777
aI20
aI1
aI28
aa(lp708
g441
aF0.6811854417919975
aI5
aI6
aI26
aa(lp709
g441
aF0.46543492488379234
aI27
aI3
aI88
aa(lp710
g444
aF0.5949377178805475
aI20
aI3
aI94
aa(lp711
g441
aF0.2300490215803222
aI9
aI10
aI12
aa(lp712
g444
aF0.8275887922182266
aI10
aI2
aI37
aa(lp713
g441
aF0.5142390949298021
aI12
aI6
aI14
aa(lp714
g441
aF0.38235168206801795
aI4
aI6
aI12
aa(lp715
g441
aF0.9602421432143288
aI8
aI5
aI97
aa(lp716
g444
aF0.5624828805023309
aI27
aI3
aI93
aa(lp717
g441
aF0.9407856625169115
aI23
aI9
aI40
aa(lp718
g444
aF0.5280880668097309
aI14
aI2
aI37
aa(lp719
g441
aF0.6950607197284513
aI22
aI7
aI47
aa(lp720
g444
aF0.5034801251471018
aI3
aI2
aI62
aa(lp721
g441
aF0.6423917941622123
aI5
aI4
aI32
aa(lp722
g444
aF0.6635715578793686
aI20
aI1
aI36
aa(lp723
g444
aF0.8947204493727469
aI30
aI1
aI21
aa(lp724
g441
aF0.7979032544011969
aI19
aI20
aI29
aa(lp725
g444
aF0.6417601393914915
aI28
aI2
aI13
aa(lp726
g444
aF0.9365435970523134
aI17
aI5
aI46
aa(lp727
g444
aF0.2693093270938478
aI3
aI4
aI68
aa(lp728
g441
aF0.9765930187405796
aI6
aI3
aI36
aa(lp729
g441
aF0.6382176911353958
aI9
aI2
aI31
aa(lp730
g444
aF0.2918872140311658
aI20
aI12
aI20
aa(lp731
g444
aF0.9299876040847638
aI20
aI4
aI93
aa(lp732
g444
aF0.7179959825519973
aI30
aI9
aI33
aa(lp733
g441
aF0.9649400893034074
aI19
aI7
aI22
aa(lp734
g441
aF0.7782238083999711
aI30
aI13
aI59
aa(lp735
g441
aF0.5322551808603543
aI5
aI12
aI93
aa(lp736
g444
aF0.3561505370753699
aI2
aI5
aI94
aa(lp737
g444
aF0.781469125387285
aI12
aI5
aI29
aa(lp738
g441
aF0.6576309101988829
aI26
aI20
aI41
aa(lp739
g441
aF0.6917492108493823
aI6
aI5
aI64
aa(lp740
g441
aF0.7444840958943632
aI14
aI1
aI22
aa(lp741
g441
aF0.49604138187845526
aI10
aI5
aI26
aa(lp742
g444
aF0.1317177536805817
aI25
aI4
aI85
aa(lp743
g444
aF0.5199422542360679
aI4
aI5
aI30
aa(lp744
g444
aF0.8730336726863226
aI13
aI7
aI13
aa(lp745
g444
aF0.42137841798679565
aI13
aI6
aI100
aaaF1329.8281860351562
asS'SVM'
p746
(lp747
(lp748
g6
(g10
S'\xc3\xf5(\\\x8f\xc2\xc5?'
p749
tp750
Rp751
ag6
(g10
S'\x14\xaeG\xe1z\x14\xde?'
p752
tp753
Rp754
ag6
(g10
S'\x85\xebQ\xb8\x1e\x85\xdb?'
p755
tp756
Rp757
ag6
(g10
S'\x00\x00\x00\x00\x00\x00\x00\x00'
p758
tp759
Rp760
ag6
(g10
S'\xb8\x1e\x85\xebQ\xb8\xde?'
p761
tp762
Rp763
ag6
(g10
S'\x14\xaeG\xe1z\x14\xde?'
p764
tp765
Rp766
ag6
(g10
S'R\xb8\x1e\x85\xebQ\xd8?'
p767
tp768
Rp769
ag6
(g10
S'\x14\xaeG\xe1z\x14\xde?'
p770
tp771
Rp772
ag6
(g10
S'\x9a\x99\x99\x99\x99\x99\xd9?'
p773
tp774
Rp775
ag6
(g10
S'\x00\x00\x00\x00\x00\x00\x00\x00'
p776
tp777
Rp778
ag6
(g10
S'\x14\xaeG\xe1z\x14\xde?'
p779
tp780
Rp781
ag6
(g10
S'\xc3\xf5(\\\x8f\xc2\xc5?'
p782
tp783
Rp784
ag6
(g10
S'\x9a\x99\x99\x99\x99\x99\xa9?'
p785
tp786
Rp787
ag6
(g10
S'\x1f\x85\xebQ\xb8\x1e\xd5?'
p788
tp789
Rp790
ag6
(g10
S'\x85\xebQ\xb8\x1e\x85\xdb?'
p791
tp792
Rp793
ag6
(g10
S'\xb8\x1e\x85\xebQ\xb8\x9e?'
p794
tp795
Rp796
ag6
(g10
S'\x85\xebQ\xb8\x1e\x85\xdb?'
p797
tp798
Rp799
ag6
(g10
S'\x14\xaeG\xe1z\x14\xde?'
p800
tp801
Rp802
ag6
(g10
S')\\\x8f\xc2\xf5(\xdc?'
p803
tp804
Rp805
ag6
(g10
S'\xf6(\\\x8f\xc2\xf5\xd8?'
p806
tp807
Rp808
ag6
(g10
S'\x14\xaeG\xe1z\x14\xde?'
p809
tp810
Rp811
ag6
(g10
S'\xb8\x1e\x85\xebQ\xb8\xde?'
p812
tp813
Rp814
ag6
(g10
S'q=\n\xd7\xa3p\xdd?'
p815
tp816
Rp817
ag6
(g10
S'\x00\x00\x00\x00\x00\x00\x00\x00'
p818
tp819
Rp820
ag6
(g10
S'\xc3\xf5(\\\x8f\xc2\xc5?'
p821
tp822
Rp823
ag6
(g10
S'\x14\xaeG\xe1z\x14\xde?'
p824
tp825
Rp826
ag6
(g10
S'{\x14\xaeG\xe1z\xd4?'
p827
tp828
Rp829
ag6
(g10
S'\x14\xaeG\xe1z\x14\xde?'
p830
tp831
Rp832
ag6
(g10
S'\xe1z\x14\xaeG\xe1\xda?'
p833
tp834
Rp835
ag6
(g10
S'\x00\x00\x00\x00\x00\x00\x00\x00'
p836
tp837
Rp838
ag6
(g10
S'\x14\xaeG\xe1z\x14\xde?'
p839
tp840
Rp841
ag6
(g10
S'q=\n\xd7\xa3p\xdd?'
p842
tp843
Rp844
ag6
(g10
S'\xb8\x1e\x85\xebQ\xb8\xde?'
p845
tp846
Rp847
ag6
(g10
S'\xe1z\x14\xaeG\xe1\xda?'
p848
tp849
Rp850
ag6
(g10
S')\\\x8f\xc2\xf5(\xdc?'
p851
tp852
Rp853
ag6
(g10
S'\x14\xaeG\xe1z\x14\xde?'
p854
tp855
Rp856
ag6
(g10
S'\x00\x00\x00\x00\x00\x00\x00\x00'
p857
tp858
Rp859
ag6
(g10
S'\xe1z\x14\xaeG\xe1\xda?'
p860
tp861
Rp862
ag6
(g10
S'\x14\xaeG\xe1z\x14\xde?'
p863
tp864
Rp865
ag6
(g10
S'\x14\xaeG\xe1z\x14\xde?'
p866
tp867
Rp868
ag6
(g10
S'\x14\xaeG\xe1z\x14\xde?'
p869
tp870
Rp871
ag6
(g10
S'\xf6(\\\x8f\xc2\xf5\xd8?'
p872
tp873
Rp874
ag6
(g10
S'\xf6(\\\x8f\xc2\xf5\xd8?'
p875
tp876
Rp877
ag6
(g10
S'R\xb8\x1e\x85\xebQ\xd8?'
p878
tp879
Rp880
ag6
(g10
S'\xa4p=\n\xd7\xa3\xd0?'
p881
tp882
Rp883
ag6
(g10
S'333333\xc3?'
p884
tp885
Rp886
ag6
(g10
S'\x14\xaeG\xe1z\x14\xde?'
p887
tp888
Rp889
ag6
(g10
S'q=\n\xd7\xa3p\xdd?'
p890
tp891
Rp892
ag6
(g10
S')\\\x8f\xc2\xf5(\xdc?'
p893
tp894
Rp895
ag6
(g10
S'\x85\xebQ\xb8\x1e\x85\xdb?'
p896
tp897
Rp898
ag6
(g10
S'\xb8\x1e\x85\xebQ\xb8\x9e?'
p899
tp900
Rp901
ag6
(g10
S'\x85\xebQ\xb8\x1e\x85\xdb?'
p902
tp903
Rp904
ag6
(g10
S'\xa4p=\n\xd7\xa3\xd0?'
p905
tp906
Rp907
ag6
(g10
S'\xb8\x1e\x85\xebQ\xb8\x9e?'
p908
tp909
Rp910
ag6
(g10
S'\xe1z\x14\xaeG\xe1\xda?'
p911
tp912
Rp913
ag6
(g10
S'q=\n\xd7\xa3p\xdd?'
p914
tp915
Rp916
ag6
(g10
S'\x00\x00\x00\x00\x00\x00\x00\x00'
p917
tp918
Rp919
ag6
(g10
S'\x14\xaeG\xe1z\x14\xde?'
p920
tp921
Rp922
ag6
(g10
S'\x85\xebQ\xb8\x1e\x85\xdb?'
p923
tp924
Rp925
ag6
(g10
S'q=\n\xd7\xa3p\xdd?'
p926
tp927
Rp928
aa(lp929
(lp930
I65
aS'sigmoid'
p931
aF0.9343125047481614
aF0.8610630303723591
aa(lp932
I78
ag931
aF0.41222489917106464
aF0.18109019009233712
aa(lp933
I100
ag931
aF0.7021248827833217
aF0.5638118139413981
aa(lp934
I31
aS'rbf'
p935
aF0.7665398540538466
aF0.9223154264803325
aa(lp936
I42
ag931
aF0.30172395203121694
aF0.1462928648968012
aa(lp937
I78
ag931
aF0.43352687351310104
aF0.25341645827807435
aa(lp938
I67
ag931
aF0.7345402164231616
aF0.5961878876081697
aa(lp939
I74
ag931
aF0.16324801874969347
aF0.5643176846958297
aa(lp940
I39
ag931
aF0.42175101649047664
aF0.5751178298266383
aa(lp941
I69
ag935
aF0.9679368435987269
aF0.4375358832834926
aa(lp942
I56
ag931
aF0.17355195266035064
aF0.17171682364370325
aa(lp943
I76
ag931
aF0.8103519321834642
aF0.8424137506367735
aa(lp944
I79
ag935
aF0.5033734512346975
aF0.1402853843046909
aa(lp945
I56
ag931
aF0.98685202781771
aF0.484236100923472
aa(lp946
I34
ag931
aF0.25054185267534096
aF0.5667644214211304
aa(lp947
I41
ag935
aF0.6875741560104534
aF0.3260206686170398
aa(lp948
I70
ag931
aF0.4983201295609404
aF0.5205324152427312
aa(lp949
I82
ag931
aF0.1270264233448403
aF0.2825783784984712
aa(lp950
I70
ag931
aF0.9681223787627264
aF0.32910950118127025
aa(lp951
I34
ag931
aF0.8807833446328075
aF0.26893885661995853
aa(lp952
I100
ag931
aF0.23562960187133364
aF0.23860929884125115
aa(lp953
I91
ag931
aF0.9634311874829611
aF0.19331864174379204
aa(lp954
I87
ag931
aF0.8054864215024783
aF0.17839681138869154
aa(lp955
I17
ag935
aF0.6469031753527225
aF0.6161054157744011
aa(lp956
I80
ag931
aF0.7676876692444182
aF0.8759513326107897
aa(lp957
I94
ag931
aF0.15179113549689308
aF0.15079765037031187
aa(lp958
I91
ag931
aF0.5208255803605283
aF0.8718834677593037
aa(lp959
I73
ag931
aF0.6555826963965113
aF0.21595347445105068
aa(lp960
I54
ag931
aF0.8166076091846742
aF0.4200599194417609
aa(lp961
I9
ag935
aF0.8735620342313499
aF0.8649578938014735
aa(lp962
I76
ag931
aF0.6699169661036557
aF0.19344280812602754
aa(lp963
I81
ag931
aF0.2039991107395409
aF0.6605008929589298
aa(lp964
I54
ag931
aF0.34496923860378337
aF0.112778948213001
aa(lp965
I37
ag931
aF0.23372795678000802
aF0.6337122325587228
aa(lp966
I61
ag931
aF0.9904853347602376
aF0.3013337298712604
aa(lp967
I68
ag931
aF0.26478043161555276
aF0.15512024161709734
aa(lp968
I30
ag935
aF0.20362411311443493
aF0.7174438893979355
aa(lp969
I70
ag931
aF0.2692273706281765
aF0.7681423598081042
aa(lp970
I53
ag931
aF0.5745573885810086
aF0.20420011506975433
aa(lp971
I75
ag931
aF0.37172121370545785
aF0.44716415074029436
aa(lp972
I82
ag931
aF0.2681327489259139
aF0.3391670560393174
aa(lp973
I23
ag931
aF0.6813812412950737
aF0.198123515510549
aa(lp974
I15
ag931
aF0.2799926677665147
aF0.11768976407824136
aa(lp975
I94
ag931
aF0.2943250398691109
aF0.8932363032712967
aa(lp976
I50
ag931
aF0.13389020313684374
aF0.943346178281172
aa(lp977
I43
ag931
aF0.8812585646147859
aF0.7969299195348476
aa(lp978
I86
ag931
aF0.3191792416074382
aF0.32853644937929527
aa(lp979
I43
ag931
aF0.41475197226987737
aF0.4018270676561583
aa(lp980
I75
ag931
aF0.20172578490189175
aF0.6835618872505794
aa(lp981
I52
ag931
aF0.5498164079581311
aF0.5022813651973215
aa(lp982
I17
ag935
aF0.3446500326142419
aF0.32154528692763973
aa(lp983
I97
ag931
aF0.4171231985404582
aF0.7138232610592021
aa(lp984
I46
ag931
aF0.19053671203654804
aF0.8993960143690441
aa(lp985
I73
ag935
aF0.6969024810152071
aF0.1874547098896216
aa(lp986
I60
ag931
aF0.32536893830787583
aF0.6935570056125794
aa(lp987
I81
ag931
aF0.16180170480614026
aF0.632359437344831
aa(lp988
I47
ag935
aF0.17876808213086495
aF0.9301287892563157
aa(lp989
I61
ag931
aF0.45998508263562754
aF0.27830120619657656
aa(lp990
I90
ag931
aF0.17393449892375207
aF0.762497126742763
aa(lp991
I46
ag931
aF0.526553808956388
aF0.33292514595760386
aaaF8.056700944900513
ass.