(dp0
S'f1'
p1
(dp2
S'KNN'
p3
(lp4
(lp5
cnumpy.core.multiarray
scalar
p6
(cnumpy
dtype
p7
(S'f8'
p8
I0
I1
tp9
Rp10
(I3
S'<'
p11
NNNI-1
I-1
I0
tp12
bS'{\x14\xaeG\xe1z\x94?'
p13
tp14
Rp15
ag6
(g10
S'{\x14\xaeG\xe1z\xb4?'
p16
tp17
Rp18
ag6
(g10
S'\x00\x00\x00\x00\x00\x00\x00\x00'
p19
tp20
Rp21
ag6
(g10
S'{\x14\xaeG\xe1z\xb4?'
p22
tp23
Rp24
ag6
(g10
S'\x00\x00\x00\x00\x00\x00\x00\x00'
p25
tp26
Rp27
ag6
(g10
S'{\x14\xaeG\xe1z\x84?'
p28
tp29
Rp30
ag6
(g10
S'{\x14\xaeG\xe1z\xa4?'
p31
tp32
Rp33
ag6
(g10
S'{\x14\xaeG\xe1z\x94?'
p34
tp35
Rp36
ag6
(g10
S'\xb8\x1e\x85\xebQ\xb8\x9e?'
p37
tp38
Rp39
ag6
(g10
S'{\x14\xaeG\xe1z\xb4?'
p40
tp41
Rp42
ag6
(g10
S'\xb8\x1e\x85\xebQ\xb8\x9e?'
p43
tp44
Rp45
ag6
(g10
S'{\x14\xaeG\xe1z\xb4?'
p46
tp47
Rp48
ag6
(g10
S'{\x14\xaeG\xe1z\x94?'
p49
tp50
Rp51
ag6
(g10
S'{\x14\xaeG\xe1z\xb4?'
p52
tp53
Rp54
ag6
(g10
S'{\x14\xaeG\xe1z\x84?'
p55
tp56
Rp57
ag6
(g10
S'{\x14\xaeG\xe1z\xb4?'
p58
tp59
Rp60
ag6
(g10
S'{\x14\xaeG\xe1z\xb4?'
p61
tp62
Rp63
ag6
(g10
S'\x00\x00\x00\x00\x00\x00\x00\x00'
p64
tp65
Rp66
ag6
(g10
S'{\x14\xaeG\xe1z\xb4?'
p67
tp68
Rp69
ag6
(g10
S'\xb8\x1e\x85\xebQ\xb8\x9e?'
p70
tp71
Rp72
ag6
(g10
S'{\x14\xaeG\xe1z\xb4?'
p73
tp74
Rp75
ag6
(g10
S'{\x14\xaeG\xe1z\x94?'
p76
tp77
Rp78
ag6
(g10
S'{\x14\xaeG\xe1z\x84?'
p79
tp80
Rp81
ag6
(g10
S'{\x14\xaeG\xe1z\xa4?'
p82
tp83
Rp84
ag6
(g10
S'{\x14\xaeG\xe1z\xb4?'
p85
tp86
Rp87
ag6
(g10
S'\x00\x00\x00\x00\x00\x00\x00\x00'
p88
tp89
Rp90
ag6
(g10
S'\x00\x00\x00\x00\x00\x00\x00\x00'
p91
tp92
Rp93
ag6
(g10
S'{\x14\xaeG\xe1z\xa4?'
p94
tp95
Rp96
ag6
(g10
S'{\x14\xaeG\xe1z\xa4?'
p97
tp98
Rp99
ag6
(g10
S'{\x14\xaeG\xe1z\x84?'
p100
tp101
Rp102
ag6
(g10
S'{\x14\xaeG\xe1z\x94?'
p103
tp104
Rp105
ag6
(g10
S'{\x14\xaeG\xe1z\x84?'
p106
tp107
Rp108
ag6
(g10
S'{\x14\xaeG\xe1z\x94?'
p109
tp110
Rp111
ag6
(g10
S'{\x14\xaeG\xe1z\xb4?'
p112
tp113
Rp114
ag6
(g10
S'\xb8\x1e\x85\xebQ\xb8\x9e?'
p115
tp116
Rp117
ag6
(g10
S'{\x14\xaeG\xe1z\x84?'
p118
tp119
Rp120
ag6
(g10
S'\x00\x00\x00\x00\x00\x00\x00\x00'
p121
tp122
Rp123
ag6
(g10
S'{\x14\xaeG\xe1z\x94?'
p124
tp125
Rp126
ag6
(g10
S'\x00\x00\x00\x00\x00\x00\x00\x00'
p127
tp128
Rp129
ag6
(g10
S'{\x14\xaeG\xe1z\xb4?'
p130
tp131
Rp132
ag6
(g10
S'{\x14\xaeG\xe1z\x84?'
p133
tp134
Rp135
ag6
(g10
S'{\x14\xaeG\xe1z\xb4?'
p136
tp137
Rp138
ag6
(g10
S'{\x14\xaeG\xe1z\x84?'
p139
tp140
Rp141
ag6
(g10
S'{\x14\xaeG\xe1z\x94?'
p142
tp143
Rp144
ag6
(g10
S'{\x14\xaeG\xe1z\x94?'
p145
tp146
Rp147
ag6
(g10
S'{\x14\xaeG\xe1z\x94?'
p148
tp149
Rp150
ag6
(g10
S'{\x14\xaeG\xe1z\x94?'
p151
tp152
Rp153
ag6
(g10
S'{\x14\xaeG\xe1z\xa4?'
p154
tp155
Rp156
ag6
(g10
S'{\x14\xaeG\xe1z\xb4?'
p157
tp158
Rp159
ag6
(g10
S'{\x14\xaeG\xe1z\xb4?'
p160
tp161
Rp162
ag6
(g10
S'{\x14\xaeG\xe1z\xb4?'
p163
tp164
Rp165
ag6
(g10
S'{\x14\xaeG\xe1z\xb4?'
p166
tp167
Rp168
ag6
(g10
S'{\x14\xaeG\xe1z\xb4?'
p169
tp170
Rp171
ag6
(g10
S'{\x14\xaeG\xe1z\x84?'
p172
tp173
Rp174
ag6
(g10
S'{\x14\xaeG\xe1z\xb4?'
p175
tp176
Rp177
ag6
(g10
S'{\x14\xaeG\xe1z\x94?'
p178
tp179
Rp180
ag6
(g10
S'{\x14\xaeG\xe1z\x84?'
p181
tp182
Rp183
ag6
(g10
S'\xb8\x1e\x85\xebQ\xb8\x9e?'
p184
tp185
Rp186
ag6
(g10
S'{\x14\xaeG\xe1z\x94?'
p187
tp188
Rp189
ag6
(g10
S'\x00\x00\x00\x00\x00\x00\x00\x00'
p190
tp191
Rp192
aa(lp193
(lp194
I3
aS'uniform'
p195
aa(lp196
I2
aS'distance'
p197
aa(lp198
I6
ag195
aa(lp199
I2
ag197
aa(lp200
I9
ag195
aa(lp201
I4
ag195
aa(lp202
I3
ag197
aa(lp203
I3
ag195
aa(lp204
I5
ag197
aa(lp205
I2
ag197
aa(lp206
I4
ag197
aa(lp207
I2
ag197
aa(lp208
I8
ag197
aa(lp209
I2
ag197
aa(lp210
I9
ag197
aa(lp211
I2
ag197
aa(lp212
I2
ag197
aa(lp213
I9
ag195
aa(lp214
I2
ag197
aa(lp215
I4
ag197
aa(lp216
I2
ag197
aa(lp217
I6
ag197
aa(lp218
I10
ag197
aa(lp219
I3
ag197
aa(lp220
I2
ag197
aa(lp221
I9
ag195
aa(lp222
I8
ag195
aa(lp223
I3
ag197
aa(lp224
I3
ag197
aa(lp225
I4
ag195
aa(lp226
I8
ag197
aa(lp227
I9
ag197
aa(lp228
I5
ag195
aa(lp229
I2
ag197
aa(lp230
I4
ag197
aa(lp231
I10
ag197
aa(lp232
I10
ag195
aa(lp233
I5
ag195
aa(lp234
I6
ag195
aa(lp235
I2
ag197
aa(lp236
I9
ag197
aa(lp237
I2
ag197
aa(lp238
I2
ag195
aa(lp239
I5
ag195
aa(lp240
I8
ag197
aa(lp241
I8
ag197
aa(lp242
I5
ag195
aa(lp243
I3
ag197
aa(lp244
I2
ag197
aa(lp245
I2
ag197
aa(lp246
I2
ag197
aa(lp247
I2
ag197
aa(lp248
I2
ag197
aa(lp249
I9
ag197
aa(lp250
I2
ag197
aa(lp251
I8
ag197
aa(lp252
I2
ag195
aa(lp253
I4
ag197
aa(lp254
I5
ag195
aa(lp255
I9
ag195
aaaF4.900186061859131
asS'DTC'
p256
(lp257
(lp258
g6
(g10
S'{\x14\xaeG\xe1z\xa4?'
p259
tp260
Rp261
ag6
(g10
S'\x00\x00\x00\x00\x00\x00\x00\x00'
p262
tp263
Rp264
ag6
(g10
S'\x00\x00\x00\x00\x00\x00\x00\x00'
p265
tp266
Rp267
ag6
(g10
S'{\x14\xaeG\xe1z\x94?'
p268
tp269
Rp270
ag6
(g10
S'\x00\x00\x00\x00\x00\x00\x00\x00'
p271
tp272
Rp273
ag6
(g10
S'\x00\x00\x00\x00\x00\x00\x00\x00'
p274
tp275
Rp276
ag6
(g10
S'\x00\x00\x00\x00\x00\x00\x00\x00'
p277
tp278
Rp279
ag6
(g10
S'\xb8\x1e\x85\xebQ\xb8\xae?'
p280
tp281
Rp282
ag6
(g10
S'\xb8\x1e\x85\xebQ\xb8\x9e?'
p283
tp284
Rp285
ag6
(g10
S'\x00\x00\x00\x00\x00\x00\x00\x00'
p286
tp287
Rp288
ag6
(g10
S'\x00\x00\x00\x00\x00\x00\x00\x00'
p289
tp290
Rp291
ag6
(g10
S'\x00\x00\x00\x00\x00\x00\x00\x00'
p292
tp293
Rp294
ag6
(g10
S'\xc3\xf5(\\\x8f\xc2\xc5?'
p295
tp296
Rp297
ag6
(g10
S'\x00\x00\x00\x00\x00\x00\x00\x00'
p298
tp299
Rp300
ag6
(g10
S'\x00\x00\x00\x00\x00\x00\x00\x00'
p301
tp302
Rp303
ag6
(g10
S'\x00\x00\x00\x00\x00\x00\x00\x00'
p304
tp305
Rp306
ag6
(g10
S'\x00\x00\x00\x00\x00\x00\x00\x00'
p307
tp308
Rp309
ag6
(g10
S'\x00\x00\x00\x00\x00\x00\x00\x00'
p310
tp311
Rp312
ag6
(g10
S'\x00\x00\x00\x00\x00\x00\x00\x00'
p313
tp314
Rp315
ag6
(g10
S'\x00\x00\x00\x00\x00\x00\x00\x00'
p316
tp317
Rp318
ag6
(g10
S'\xecQ\xb8\x1e\x85\xeb\xb1?'
p319
tp320
Rp321
ag6
(g10
S'333333\xc3?'
p322
tp323
Rp324
ag6
(g10
S'\n\xd7\xa3p=\n\xb7?'
p325
tp326
Rp327
ag6
(g10
S'\x00\x00\x00\x00\x00\x00\x00\x00'
p328
tp329
Rp330
ag6
(g10
S'\n\xd7\xa3p=\n\xb7?'
p331
tp332
Rp333
ag6
(g10
S'\x00\x00\x00\x00\x00\x00\x00\x00'
p334
tp335
Rp336
ag6
(g10
S'\x00\x00\x00\x00\x00\x00\x00\x00'
p337
tp338
Rp339
ag6
(g10
S'\x00\x00\x00\x00\x00\x00\x00\x00'
p340
tp341
Rp342
ag6
(g10
S'{\x14\xaeG\xe1z\x94?'
p343
tp344
Rp345
ag6
(g10
S'{\x14\xaeG\xe1z\xa4?'
p346
tp347
Rp348
ag6
(g10
S'\x00\x00\x00\x00\x00\x00\x00\x00'
p349
tp350
Rp351
ag6
(g10
S'\x9a\x99\x99\x99\x99\x99\xa9?'
p352
tp353
Rp354
ag6
(g10
S'\xecQ\xb8\x1e\x85\xeb\xc1?'
p355
tp356
Rp357
ag6
(g10
S'\x00\x00\x00\x00\x00\x00\x00\x00'
p358
tp359
Rp360
ag6
(g10
S'\x00\x00\x00\x00\x00\x00\x00\x00'
p361
tp362
Rp363
ag6
(g10
S'\xa4p=\n\xd7\xa3\xc0?'
p364
tp365
Rp366
ag6
(g10
S'{\x14\xaeG\xe1z\x94?'
p367
tp368
Rp369
ag6
(g10
S'\xb8\x1e\x85\xebQ\xb8\xbe?'
p370
tp371
Rp372
ag6
(g10
S'\xb8\x1e\x85\xebQ\xb8\xae?'
p373
tp374
Rp375
ag6
(g10
S'\x00\x00\x00\x00\x00\x00\x00\x00'
p376
tp377
Rp378
ag6
(g10
S'\x00\x00\x00\x00\x00\x00\x00\x00'
p379
tp380
Rp381
ag6
(g10
S'\x00\x00\x00\x00\x00\x00\x00\x00'
p382
tp383
Rp384
ag6
(g10
S'\x00\x00\x00\x00\x00\x00\x00\x00'
p385
tp386
Rp387
ag6
(g10
S'\xb8\x1e\x85\xebQ\xb8\xae?'
p388
tp389
Rp390
ag6
(g10
S'\xecQ\xb8\x1e\x85\xeb\xb1?'
p391
tp392
Rp393
ag6
(g10
S'\xa4p=\n\xd7\xa3\xc0?'
p394
tp395
Rp396
ag6
(g10
S'\x00\x00\x00\x00\x00\x00\x00\x00'
p397
tp398
Rp399
ag6
(g10
S'\x00\x00\x00\x00\x00\x00\x00\x00'
p400
tp401
Rp402
ag6
(g10
S'\xa4p=\n\xd7\xa3\xc0?'
p403
tp404
Rp405
ag6
(g10
S'\x00\x00\x00\x00\x00\x00\x00\x00'
p406
tp407
Rp408
ag6
(g10
S'\n\xd7\xa3p=\n\xb7?'
p409
tp410
Rp411
ag6
(g10
S'\x00\x00\x00\x00\x00\x00\x00\x00'
p412
tp413
Rp414
ag6
(g10
S'\x00\x00\x00\x00\x00\x00\x00\x00'
p415
tp416
Rp417
ag6
(g10
S'\x00\x00\x00\x00\x00\x00\x00\x00'
p418
tp419
Rp420
ag6
(g10
S'\x00\x00\x00\x00\x00\x00\x00\x00'
p421
tp422
Rp423
ag6
(g10
S'\x00\x00\x00\x00\x00\x00\x00\x00'
p424
tp425
Rp426
ag6
(g10
S'\x9a\x99\x99\x99\x99\x99\xa9?'
p427
tp428
Rp429
ag6
(g10
S'\x00\x00\x00\x00\x00\x00\x00\x00'
p430
tp431
Rp432
ag6
(g10
S'\x00\x00\x00\x00\x00\x00\x00\x00'
p433
tp434
Rp435
ag6
(g10
S'{\x14\xaeG\xe1z\xa4?'
p436
tp437
Rp438
aa(lp439
(lp440
S'entropy'
p441
aF0.6038584105217824
aI18
aI4
aI13
aa(lp442
S'gini'
p443
aF0.4128619855882478
aI30
aI3
aI13
aa(lp444
g443
aF0.16840136483721913
aI17
aI14
aI21
aa(lp445
g443
aF0.7681523516751391
aI18
aI1
aI12
aa(lp446
g443
aF0.6894473289933425
aI28
aI1
aI6
aa(lp447
g441
aF0.9740145188287467
aI19
aI19
aI16
aa(lp448
g443
aF0.33428906657302493
aI23
aI13
aI3
aa(lp449
g441
aF0.3831854101195187
aI12
aI7
aI7
aa(lp450
g443
aF0.10703526468171068
aI2
aI5
aI9
aa(lp451
g441
aF0.47781752984270165
aI14
aI16
aI18
aa(lp452
g443
aF0.9627290026948108
aI29
aI11
aI13
aa(lp453
g443
aF0.4224216168666024
aI25
aI20
aI13
aa(lp454
g441
aF0.9266511811058195
aI5
aI1
aI14
aa(lp455
g443
aF0.488153217261159
aI12
aI18
aI14
aa(lp456
g441
aF0.8519116486220241
aI26
aI19
aI20
aa(lp457
g441
aF0.20240888302696158
aI13
aI9
aI4
aa(lp458
g443
aF0.9095307846593874
aI30
aI12
aI3
aa(lp459
g443
aF0.5382383647918163
aI21
aI17
aI21
aa(lp460
g441
aF0.7512951097058543
aI5
aI9
aI1
aa(lp461
g443
aF0.1908036233864714
aI14
aI18
aI19
aa(lp462
g441
aF0.5443839294345099
aI5
aI4
aI21
aa(lp463
g443
aF0.38618247104061976
aI2
aI1
aI20
aa(lp464
g443
aF0.27268823030282524
aI15
aI1
aI12
aa(lp465
g443
aF0.2676790938817286
aI29
aI13
aI7
aa(lp466
g441
aF0.729065050541779
aI3
aI1
aI21
aa(lp467
g441
aF0.6581541379349007
aI9
aI7
aI21
aa(lp468
g443
aF0.7772118778368543
aI12
aI19
aI13
aa(lp469
g441
aF0.21806836986951794
aI10
aI8
aI21
aa(lp470
g443
aF0.8617804424434471
aI17
aI1
aI4
aa(lp471
g441
aF0.7235293206991414
aI18
aI5
aI4
aa(lp472
g443
aF0.9843941335701645
aI3
aI17
aI3
aa(lp473
g441
aF0.5016019074928162
aI8
aI7
aI12
aa(lp474
g441
aF0.8735075278631929
aI13
aI1
aI14
aa(lp475
g441
aF0.3788943912313455
aI24
aI3
aI2
aa(lp476
g441
aF0.2721951569552947
aI17
aI13
aI12
aa(lp477
g441
aF0.6566211105956966
aI6
aI3
aI5
aa(lp478
g443
aF0.7375997318242995
aI30
aI1
aI14
aa(lp479
g441
aF0.5233580807179873
aI7
aI3
aI21
aa(lp480
g441
aF0.3838399790763676
aI12
aI4
aI9
aa(lp481
g441
aF0.444476964815796
aI10
aI1
aI4
aa(lp482
g441
aF0.6284173050705546
aI9
aI8
aI4
aa(lp483
g441
aF0.8351465771665788
aI23
aI20
aI4
aa(lp484
g441
aF0.9321840189159787
aI2
aI10
aI21
aa(lp485
g441
aF0.873923746170592
aI15
aI5
aI17
aa(lp486
g441
aF0.5569853462612929
aI21
aI2
aI10
aa(lp487
g441
aF0.718999483880846
aI8
aI4
aI21
aa(lp488
g443
aF0.45133702663069053
aI22
aI13
aI5
aa(lp489
g441
aF0.1100078754621409
aI15
aI14
aI20
aa(lp490
g441
aF0.9485967296821071
aI9
aI2
aI12
aa(lp491
g443
aF0.8123328704224361
aI12
aI2
aI20
aa(lp492
g441
aF0.7059480248704013
aI5
aI2
aI13
aa(lp493
g443
aF0.9220192138882757
aI12
aI5
aI14
aa(lp494
g443
aF0.7128229213285097
aI18
aI8
aI7
aa(lp495
g443
aF0.7430055601985399
aI14
aI7
aI17
aa(lp496
g443
aF0.13825998201256012
aI22
aI17
aI10
aa(lp497
g443
aF0.4702824790273128
aI3
aI9
aI7
aa(lp498
g443
aF0.30810081637822095
aI20
aI1
aI4
aa(lp499
g441
aF0.8854395564971299
aI27
aI20
aI9
aa(lp500
g443
aF0.7323807650646453
aI14
aI18
aI8
aa(lp501
g441
aF0.6498611913430825
aI2
aI3
aI9
aaaF2.6883938312530518
asS'RF'
p502
(lp503
(lp504
g6
(g10
S'\x00\x00\x00\x00\x00\x00\x00\x00'
p505
tp506
Rp507
ag6
(g10
S'\x00\x00\x00\x00\x00\x00\x00\x00'
p508
tp509
Rp510
ag6
(g10
S'\x00\x00\x00\x00\x00\x00\x00\x00'
p511
tp512
Rp513
ag6
(g10
S'\x00\x00\x00\x00\x00\x00\x00\x00'
p514
tp515
Rp516
ag6
(g10
S'\x00\x00\x00\x00\x00\x00\x00\x00'
p517
tp518
Rp519
ag6
(g10
S'\x00\x00\x00\x00\x00\x00\x00\x00'
p520
tp521
Rp522
ag6
(g10
S'\x00\x00\x00\x00\x00\x00\x00\x00'
p523
tp524
Rp525
ag6
(g10
S'\x00\x00\x00\x00\x00\x00\x00\x00'
p526
tp527
Rp528
ag6
(g10
S'\x00\x00\x00\x00\x00\x00\x00\x00'
p529
tp530
Rp531
ag6
(g10
S'\x00\x00\x00\x00\x00\x00\x00\x00'
p532
tp533
Rp534
ag6
(g10
S'{\x14\xaeG\xe1z\xa4?'
p535
tp536
Rp537
ag6
(g10
S'\x00\x00\x00\x00\x00\x00\x00\x00'
p538
tp539
Rp540
ag6
(g10
S'\xb8\x1e\x85\xebQ\xb8\x9e?'
p541
tp542
Rp543
ag6
(g10
S'\x00\x00\x00\x00\x00\x00\x00\x00'
p544
tp545
Rp546
ag6
(g10
S'\x00\x00\x00\x00\x00\x00\x00\x00'
p547
tp548
Rp549
ag6
(g10
S'\x00\x00\x00\x00\x00\x00\x00\x00'
p550
tp551
Rp552
ag6
(g10
S'\x00\x00\x00\x00\x00\x00\x00\x00'
p553
tp554
Rp555
ag6
(g10
S'\x00\x00\x00\x00\x00\x00\x00\x00'
p556
tp557
Rp558
ag6
(g10
S'\x00\x00\x00\x00\x00\x00\x00\x00'
p559
tp560
Rp561
ag6
(g10
S'\x00\x00\x00\x00\x00\x00\x00\x00'
p562
tp563
Rp564
ag6
(g10
S'\x00\x00\x00\x00\x00\x00\x00\x00'
p565
tp566
Rp567
ag6
(g10
S'\x00\x00\x00\x00\x00\x00\x00\x00'
p568
tp569
Rp570
ag6
(g10
S'\x00\x00\x00\x00\x00\x00\x00\x00'
p571
tp572
Rp573
ag6
(g10
S'\x00\x00\x00\x00\x00\x00\x00\x00'
p574
tp575
Rp576
ag6
(g10
S'\x00\x00\x00\x00\x00\x00\x00\x00'
p577
tp578
Rp579
ag6
(g10
S'\x00\x00\x00\x00\x00\x00\x00\x00'
p580
tp581
Rp582
ag6
(g10
S'\xb8\x1e\x85\xebQ\xb8\xae?'
p583
tp584
Rp585
ag6
(g10
S'\x00\x00\x00\x00\x00\x00\x00\x00'
p586
tp587
Rp588
ag6
(g10
S'\x00\x00\x00\x00\x00\x00\x00\x00'
p589
tp590
Rp591
ag6
(g10
S'\x00\x00\x00\x00\x00\x00\x00\x00'
p592
tp593
Rp594
ag6
(g10
S'\x00\x00\x00\x00\x00\x00\x00\x00'
p595
tp596
Rp597
ag6
(g10
S'\xb8\x1e\x85\xebQ\xb8\x9e?'
p598
tp599
Rp600
ag6
(g10
S'\x00\x00\x00\x00\x00\x00\x00\x00'
p601
tp602
Rp603
ag6
(g10
S'\x00\x00\x00\x00\x00\x00\x00\x00'
p604
tp605
Rp606
ag6
(g10
S'\x00\x00\x00\x00\x00\x00\x00\x00'
p607
tp608
Rp609
ag6
(g10
S'\x00\x00\x00\x00\x00\x00\x00\x00'
p610
tp611
Rp612
ag6
(g10
S'\x00\x00\x00\x00\x00\x00\x00\x00'
p613
tp614
Rp615
ag6
(g10
S'\x00\x00\x00\x00\x00\x00\x00\x00'
p616
tp617
Rp618
ag6
(g10
S'\xb8\x1e\x85\xebQ\xb8\x9e?'
p619
tp620
Rp621
ag6
(g10
S'\x00\x00\x00\x00\x00\x00\x00\x00'
p622
tp623
Rp624
ag6
(g10
S'\x00\x00\x00\x00\x00\x00\x00\x00'
p625
tp626
Rp627
ag6
(g10
S'\x00\x00\x00\x00\x00\x00\x00\x00'
p628
tp629
Rp630
ag6
(g10
S'\x00\x00\x00\x00\x00\x00\x00\x00'
p631
tp632
Rp633
ag6
(g10
S'\xb8\x1e\x85\xebQ\xb8\x9e?'
p634
tp635
Rp636
ag6
(g10
S'\x00\x00\x00\x00\x00\x00\x00\x00'
p637
tp638
Rp639
ag6
(g10
S'\x00\x00\x00\x00\x00\x00\x00\x00'
p640
tp641
Rp642
ag6
(g10
S'\x00\x00\x00\x00\x00\x00\x00\x00'
p643
tp644
Rp645
ag6
(g10
S'\x00\x00\x00\x00\x00\x00\x00\x00'
p646
tp647
Rp648
ag6
(g10
S'{\x14\xaeG\xe1z\xa4?'
p649
tp650
Rp651
ag6
(g10
S'\x00\x00\x00\x00\x00\x00\x00\x00'
p652
tp653
Rp654
ag6
(g10
S'\x00\x00\x00\x00\x00\x00\x00\x00'
p655
tp656
Rp657
ag6
(g10
S'\x00\x00\x00\x00\x00\x00\x00\x00'
p658
tp659
Rp660
ag6
(g10
S'\x00\x00\x00\x00\x00\x00\x00\x00'
p661
tp662
Rp663
ag6
(g10
S'{\x14\xaeG\xe1z\x84?'
p664
tp665
Rp666
ag6
(g10
S'\x00\x00\x00\x00\x00\x00\x00\x00'
p667
tp668
Rp669
ag6
(g10
S'\xecQ\xb8\x1e\x85\xeb\xb1?'
p670
tp671
Rp672
ag6
(g10
S'\x00\x00\x00\x00\x00\x00\x00\x00'
p673
tp674
Rp675
ag6
(g10
S'\x00\x00\x00\x00\x00\x00\x00\x00'
p676
tp677
Rp678
ag6
(g10
S'\x00\x00\x00\x00\x00\x00\x00\x00'
p679
tp680
Rp681
ag6
(g10
S'\x00\x00\x00\x00\x00\x00\x00\x00'
p682
tp683
Rp684
aa(lp685
(lp686
g441
aF0.645099050542801
aI5
aI18
aI47
aa(lp687
g443
aF0.4879021449813902
aI20
aI6
aI92
aa(lp688
g443
aF0.893851318721138
aI19
aI4
aI98
aa(lp689
g441
aF0.9256928108721
aI14
aI4
aI76
aa(lp690
g443
aF0.23003245551091683
aI7
aI18
aI28
aa(lp691
g443
aF0.17257627142363352
aI27
aI13
aI23
aa(lp692
g441
aF0.5834076322662373
aI27
aI15
aI89
aa(lp693
g443
aF0.6582191304990004
aI26
aI18
aI75
aa(lp694
g443
aF0.14566652844203815
aI27
aI14
aI27
aa(lp695
g443
aF0.3693475272854385
aI25
aI12
aI69
aa(lp696
g443
aF0.9518328572808125
aI20
aI2
aI63
aa(lp697
g441
aF0.589078508631682
aI20
aI4
aI57
aa(lp698
g441
aF0.7618120320482245
aI4
aI3
aI67
aa(lp699
g441
aF0.33783282306328943
aI20
aI15
aI80
aa(lp700
g443
aF0.9548553937168849
aI13
aI14
aI27
aa(lp701
g443
aF0.8808676284579069
aI19
aI10
aI61
aa(lp702
g441
aF0.3471730537924409
aI7
aI14
aI35
aa(lp703
g441
aF0.15396050311614834
aI3
aI12
aI45
aa(lp704
g443
aF0.307766537762433
aI15
aI11
aI21
aa(lp705
g441
aF0.8958762836399567
aI15
aI10
aI71
aa(lp706
g441
aF0.4922687926951498
aI11
aI20
aI82
aa(lp707
g441
aF0.46101466814942227
aI17
aI8
aI75
aa(lp708
g443
aF0.8280638805117729
aI4
aI11
aI33
aa(lp709
g441
aF0.5251960263617299
aI25
aI20
aI91
aa(lp710
g443
aF0.3194193697476841
aI20
aI12
aI62
aa(lp711
g441
aF0.3234475602104203
aI6
aI14
aI34
aa(lp712
g443
aF0.8601977988847408
aI20
aI1
aI57
aa(lp713
g441
aF0.9248141288613786
aI27
aI18
aI69
aa(lp714
g441
aF0.9909452121581335
aI16
aI11
aI12
aa(lp715
g443
aF0.8344091648481511
aI8
aI17
aI65
aa(lp716
g443
aF0.6691904013636484
aI14
aI6
aI36
aa(lp717
g443
aF0.7895887883562946
aI12
aI3
aI77
aa(lp718
g443
aF0.3725918759407503
aI6
aI18
aI50
aa(lp719
g443
aF0.4938976797260095
aI8
aI19
aI72
aa(lp720
g441
aF0.5034801251471018
aI25
aI17
aI56
aa(lp721
g443
aF0.6423917941622123
aI22
aI13
aI22
aa(lp722
g441
aF0.13840237376321868
aI28
aI8
aI90
aa(lp723
g441
aF0.10778222683113231
aI22
aI19
aI89
aa(lp724
g443
aF0.49875378519681113
aI4
aI3
aI79
aa(lp725
g443
aF0.44753494240214975
aI27
aI3
aI21
aa(lp726
g443
aF0.7789849611910669
aI7
aI16
aI46
aa(lp727
g443
aF0.5012918419113468
aI6
aI9
aI52
aa(lp728
g441
aF0.9765930187405796
aI21
aI5
aI34
aa(lp729
g443
aF0.6382176911353958
aI7
aI2
aI97
aa(lp730
g441
aF0.7068972051960145
aI30
aI3
aI82
aa(lp731
g443
aF0.8233740414978583
aI19
aI14
aI78
aa(lp732
g441
aF0.7179959825519973
aI2
aI11
aI87
aa(lp733
g441
aF0.1898224919674099
aI24
aI19
aI36
aa(lp734
g443
aF0.9711079556703219
aI23
aI3
aI11
aa(lp735
g441
aF0.667394534226286
aI22
aI4
aI29
aa(lp736
g441
aF0.9373657251908661
aI21
aI9
aI84
aa(lp737
g443
aF0.5857272614593523
aI16
aI4
aI44
aa(lp738
g443
aF0.2867818473190149
aI23
aI8
aI91
aa(lp739
g441
aF0.8669826986173297
aI25
aI1
aI12
aa(lp740
g443
aF0.8352855101143714
aI16
aI13
aI94
aa(lp741
g443
aF0.7172116124502149
aI15
aI1
aI21
aa(lp742
g443
aF0.1317177536805817
aI25
aI4
aI85
aa(lp743
g443
aF0.2958401100962573
aI8
aI5
aI12
aa(lp744
g441
aF0.4321546764768929
aI14
aI3
aI41
aa(lp745
g443
aF0.8427028637861965
aI23
aI13
aI61
aaaF1315.3347010612488
asS'SVM'
p746
(lp747
(lp748
g6
(g10
S'{\x14\xaeG\xe1z\x84?'
p749
tp750
Rp751
ag6
(g10
S'{\x14\xaeG\xe1z\x84?'
p752
tp753
Rp754
ag6
(g10
S'\x00\x00\x00\x00\x00\x00\x00\x00'
p755
tp756
Rp757
ag6
(g10
S'\x00\x00\x00\x00\x00\x00\x00\x00'
p758
tp759
Rp760
ag6
(g10
S'{\x14\xaeG\xe1z\x84?'
p761
tp762
Rp763
ag6
(g10
S'\x00\x00\x00\x00\x00\x00\x00\x00'
p764
tp765
Rp766
ag6
(g10
S'{\x14\xaeG\xe1z\x84?'
p767
tp768
Rp769
ag6
(g10
S'\x00\x00\x00\x00\x00\x00\x00\x00'
p770
tp771
Rp772
ag6
(g10
S'{\x14\xaeG\xe1z\x84?'
p773
tp774
Rp775
ag6
(g10
S'\x00\x00\x00\x00\x00\x00\x00\x00'
p776
tp777
Rp778
ag6
(g10
S'\x00\x00\x00\x00\x00\x00\x00\x00'
p779
tp780
Rp781
ag6
(g10
S'\x00\x00\x00\x00\x00\x00\x00\x00'
p782
tp783
Rp784
ag6
(g10
S'\x00\x00\x00\x00\x00\x00\x00\x00'
p785
tp786
Rp787
ag6
(g10
S'\x00\x00\x00\x00\x00\x00\x00\x00'
p788
tp789
Rp790
ag6
(g10
S'{\x14\xaeG\xe1z\x84?'
p791
tp792
Rp793
ag6
(g10
S'\x00\x00\x00\x00\x00\x00\x00\x00'
p794
tp795
Rp796
ag6
(g10
S'{\x14\xaeG\xe1z\x84?'
p797
tp798
Rp799
ag6
(g10
S'\x00\x00\x00\x00\x00\x00\x00\x00'
p800
tp801
Rp802
ag6
(g10
S'{\x14\xaeG\xe1z\x84?'
p803
tp804
Rp805
ag6
(g10
S'{\x14\xaeG\xe1z\x84?'
p806
tp807
Rp808
ag6
(g10
S'\x00\x00\x00\x00\x00\x00\x00\x00'
p809
tp810
Rp811
ag6
(g10
S'\x00\x00\x00\x00\x00\x00\x00\x00'
p812
tp813
Rp814
ag6
(g10
S'{\x14\xaeG\xe1z\x84?'
p815
tp816
Rp817
ag6
(g10
S'\x00\x00\x00\x00\x00\x00\x00\x00'
p818
tp819
Rp820
ag6
(g10
S'{\x14\xaeG\xe1z\x84?'
p821
tp822
Rp823
ag6
(g10
S'\x00\x00\x00\x00\x00\x00\x00\x00'
p824
tp825
Rp826
ag6
(g10
S'\x00\x00\x00\x00\x00\x00\x00\x00'
p827
tp828
Rp829
ag6
(g10
S'{\x14\xaeG\xe1z\x84?'
p830
tp831
Rp832
ag6
(g10
S'\x00\x00\x00\x00\x00\x00\x00\x00'
p833
tp834
Rp835
ag6
(g10
S'\x00\x00\x00\x00\x00\x00\x00\x00'
p836
tp837
Rp838
ag6
(g10
S'{\x14\xaeG\xe1z\x84?'
p839
tp840
Rp841
ag6
(g10
S'{\x14\xaeG\xe1z\x84?'
p842
tp843
Rp844
ag6
(g10
S'{\x14\xaeG\xe1z\x94?'
p845
tp846
Rp847
ag6
(g10
S'{\x14\xaeG\xe1z\x84?'
p848
tp849
Rp850
ag6
(g10
S'\x00\x00\x00\x00\x00\x00\x00\x00'
p851
tp852
Rp853
ag6
(g10
S'\x00\x00\x00\x00\x00\x00\x00\x00'
p854
tp855
Rp856
ag6
(g10
S'\x00\x00\x00\x00\x00\x00\x00\x00'
p857
tp858
Rp859
ag6
(g10
S'\x00\x00\x00\x00\x00\x00\x00\x00'
p860
tp861
Rp862
ag6
(g10
S'\x00\x00\x00\x00\x00\x00\x00\x00'
p863
tp864
Rp865
ag6
(g10
S'{\x14\xaeG\xe1z\x94?'
p866
tp867
Rp868
ag6
(g10
S'\x00\x00\x00\x00\x00\x00\x00\x00'
p869
tp870
Rp871
ag6
(g10
S'{\x14\xaeG\xe1z\x84?'
p872
tp873
Rp874
ag6
(g10
S'{\x14\xaeG\xe1z\x94?'
p875
tp876
Rp877
ag6
(g10
S'{\x14\xaeG\xe1z\x84?'
p878
tp879
Rp880
ag6
(g10
S'{\x14\xaeG\xe1z\x84?'
p881
tp882
Rp883
ag6
(g10
S'{\x14\xaeG\xe1z\x84?'
p884
tp885
Rp886
ag6
(g10
S'\x00\x00\x00\x00\x00\x00\x00\x00'
p887
tp888
Rp889
ag6
(g10
S'{\x14\xaeG\xe1z\x94?'
p890
tp891
Rp892
ag6
(g10
S'{\x14\xaeG\xe1z\x84?'
p893
tp894
Rp895
ag6
(g10
S'{\x14\xaeG\xe1z\x84?'
p896
tp897
Rp898
ag6
(g10
S'\x00\x00\x00\x00\x00\x00\x00\x00'
p899
tp900
Rp901
ag6
(g10
S'\x00\x00\x00\x00\x00\x00\x00\x00'
p902
tp903
Rp904
ag6
(g10
S'\x00\x00\x00\x00\x00\x00\x00\x00'
p905
tp906
Rp907
ag6
(g10
S'\x00\x00\x00\x00\x00\x00\x00\x00'
p908
tp909
Rp910
ag6
(g10
S'{\x14\xaeG\xe1z\x94?'
p911
tp912
Rp913
ag6
(g10
S'\x00\x00\x00\x00\x00\x00\x00\x00'
p914
tp915
Rp916
ag6
(g10
S'\x00\x00\x00\x00\x00\x00\x00\x00'
p917
tp918
Rp919
ag6
(g10
S'\x00\x00\x00\x00\x00\x00\x00\x00'
p920
tp921
Rp922
ag6
(g10
S'{\x14\xaeG\xe1z\x84?'
p923
tp924
Rp925
ag6
(g10
S'{\x14\xaeG\xe1z\x84?'
p926
tp927
Rp928
aa(lp929
(lp930
I65
aS'sigmoid'
p931
aF0.9343125047481614
aF0.8610630303723591
aa(lp932
I34
ag931
aF0.8503444201305205
aF0.7918675053407149
aa(lp933
I70
aS'rbf'
p934
aF0.13449531185443914
aF0.9724910807346249
aa(lp935
I31
ag934
aF0.7665398540538466
aF0.9223154264803325
aa(lp936
I26
ag931
aF0.5682413734755922
aF0.8134415378039768
aa(lp937
I10
ag934
aF0.32538857548747774
aF0.33951472970982444
aa(lp938
I100
ag931
aF0.5077690846557761
aF0.8871956143141364
aa(lp939
I44
ag934
aF0.8949706312593257
aF0.3653503320034749
aa(lp940
I39
ag931
aF0.42175101649047664
aF0.5751178298266383
aa(lp941
I69
ag934
aF0.9679368435987269
aF0.4375358832834926
aa(lp942
I36
ag934
aF0.9235413854126941
aF0.6011195945165465
aa(lp943
I93
ag934
aF0.8103519321834642
aF0.8424137506367735
aa(lp944
I79
ag934
aF0.5033734512346975
aF0.1402853843046909
aa(lp945
I19
ag934
aF0.9389890413631022
aF0.9383430663048009
aa(lp946
I34
ag931
aF0.25054185267534096
aF0.5667644214211304
aa(lp947
I41
ag934
aF0.6875741560104534
aF0.3260206686170398
aa(lp948
I100
ag931
aF0.6611170103739114
aF0.6017047481034671
aa(lp949
I26
ag934
aF0.8422265703062671
aF0.6885650811620521
aa(lp950
I7
ag931
aF0.230916216250328
aF0.6195127506733739
aa(lp951
I34
ag931
aF0.8807833446328075
aF0.26893885661995853
aa(lp952
I23
ag934
aF0.25723327985674377
aF0.829790473352327
aa(lp953
I48
ag934
aF0.18839788670369464
aF0.9683169651830899
aa(lp954
I28
ag931
aF0.7042349014027988
aF0.7064094569625184
aa(lp955
I17
ag934
aF0.6469031753527225
aF0.6161054157744011
aa(lp956
I80
ag931
aF0.7676876692444182
aF0.8759513326107897
aa(lp957
I71
ag934
aF0.8722427518268578
aF0.2285970842365386
aa(lp958
I84
ag934
aF0.3375962748304318
aF0.9802440413166525
aa(lp959
I79
ag931
aF0.5231727469171505
aF0.8819347549914729
aa(lp960
I63
ag934
aF0.7918365142274431
aF0.6438693450444567
aa(lp961
I9
ag934
aF0.8735620342313499
aF0.8649578938014735
aa(lp962
I76
ag931
aF0.6699169661036557
aF0.19344280812602754
aa(lp963
I18
ag931
aF0.893220701598067
aF0.619558087418617
aa(lp964
I57
ag931
aF0.3143359246686145
aF0.4846370801390719
aa(lp965
I37
ag931
aF0.23372795678000802
aF0.6337122325587228
aa(lp966
I100
ag934
aF0.8011746376812328
aF0.3745341509482272
aa(lp967
I71
ag934
aF0.5583478381110243
aF0.6386295379344548
aa(lp968
I30
ag934
aF0.20362411311443493
aF0.7174438893979355
aa(lp969
I85
ag934
aF0.9169062294478831
aF0.18058881763210538
aa(lp970
I81
ag934
aF0.7474898511247963
aF0.6513429876564872
aa(lp971
I75
ag931
aF0.37172121370545785
aF0.44716415074029436
aa(lp972
I84
ag934
aF0.8679500048558663
aF0.5736321315359865
aa(lp973
I23
ag931
aF0.6813812412950737
aF0.198123515510549
aa(lp974
I15
ag931
aF0.2799926677665147
aF0.11768976407824136
aa(lp975
I94
ag931
aF0.2943250398691109
aF0.8932363032712967
aa(lp976
I45
ag931
aF0.5487237840446916
aF0.54714377933833
aa(lp977
I43
ag931
aF0.8812585646147859
aF0.7969299195348476
aa(lp978
I17
ag934
aF0.3191792416074382
aF0.32853644937929527
aa(lp979
I43
ag931
aF0.41475197226987737
aF0.4018270676561583
aa(lp980
I8
ag931
aF0.15918959469899194
aF0.4387087827195264
aa(lp981
I51
ag931
aF0.6142188507646843
aF0.2774040489564849
aa(lp982
I17
ag934
aF0.3446500326142419
aF0.32154528692763973
aa(lp983
I13
ag931
aF0.9406624784727234
aF0.8314973329241241
aa(lp984
I81
ag934
aF0.6575881190217083
aF0.40629327151778283
aa(lp985
I73
ag934
aF0.6969024810152071
aF0.1874547098896216
aa(lp986
I51
ag931
aF0.42035113569859506
aF0.37800235624585543
aa(lp987
I85
ag934
aF0.8153703836078456
aF0.8032524701487442
aa(lp988
I47
ag934
aF0.17876808213086495
aF0.9301287892563157
aa(lp989
I20
ag934
aF0.3340700649886641
aF0.8094304021641515
aa(lp990
I49
ag931
aF0.2798143465159656
aF0.7134448907808547
aa(lp991
I46
ag931
aF0.526553808956388
aF0.33292514595760386
aaaF9.632030963897705
ass.