(dp0
S'precision'
p1
(dp2
S'RF'
p3
(lp4
(lp5
cnumpy.core.multiarray
scalar
p6
(cnumpy
dtype
p7
(S'f8'
p8
I0
I1
tp9
Rp10
(I3
S'<'
p11
NNNI-1
I-1
I0
tp12
bS'H\xe1z\x14\xaeG\xe9?'
p13
tp14
Rp15
ag6
(g10
S'H\xe1z\x14\xaeG\xe9?'
p16
tp17
Rp18
ag6
(g10
S'H\xe1z\x14\xaeG\xe9?'
p19
tp20
Rp21
ag6
(g10
S'\xf6(\\\x8f\xc2\xf5\xe8?'
p22
tp23
Rp24
ag6
(g10
S'\x9a\x99\x99\x99\x99\x99\xe9?'
p25
tp26
Rp27
ag6
(g10
S'H\xe1z\x14\xaeG\xe9?'
p28
tp29
Rp30
ag6
(g10
S'H\xe1z\x14\xaeG\xe9?'
p31
tp32
Rp33
ag6
(g10
S'H\xe1z\x14\xaeG\xe9?'
p34
tp35
Rp36
ag6
(g10
S'H\xe1z\x14\xaeG\xe9?'
p37
tp38
Rp39
ag6
(g10
S'H\xe1z\x14\xaeG\xe9?'
p40
tp41
Rp42
ag6
(g10
S'\xf6(\\\x8f\xc2\xf5\xe8?'
p43
tp44
Rp45
ag6
(g10
S'H\xe1z\x14\xaeG\xe9?'
p46
tp47
Rp48
ag6
(g10
S'\xf6(\\\x8f\xc2\xf5\xe8?'
p49
tp50
Rp51
ag6
(g10
S'\xf6(\\\x8f\xc2\xf5\xe8?'
p52
tp53
Rp54
ag6
(g10
S'\x9a\x99\x99\x99\x99\x99\xe9?'
p55
tp56
Rp57
ag6
(g10
S'H\xe1z\x14\xaeG\xe9?'
p58
tp59
Rp60
ag6
(g10
S'\x9a\x99\x99\x99\x99\x99\xe9?'
p61
tp62
Rp63
ag6
(g10
S'\xf6(\\\x8f\xc2\xf5\xe8?'
p64
tp65
Rp66
ag6
(g10
S'H\xe1z\x14\xaeG\xe9?'
p67
tp68
Rp69
ag6
(g10
S'H\xe1z\x14\xaeG\xe9?'
p70
tp71
Rp72
ag6
(g10
S'H\xe1z\x14\xaeG\xe9?'
p73
tp74
Rp75
ag6
(g10
S'H\xe1z\x14\xaeG\xe9?'
p76
tp77
Rp78
ag6
(g10
S'\xf6(\\\x8f\xc2\xf5\xe8?'
p79
tp80
Rp81
ag6
(g10
S'\xa4p=\n\xd7\xa3\xe8?'
p82
tp83
Rp84
ag6
(g10
S'H\xe1z\x14\xaeG\xe9?'
p85
tp86
Rp87
ag6
(g10
S'H\xe1z\x14\xaeG\xe9?'
p88
tp89
Rp90
ag6
(g10
S'\x9a\x99\x99\x99\x99\x99\xe9?'
p91
tp92
Rp93
ag6
(g10
S'H\xe1z\x14\xaeG\xe9?'
p94
tp95
Rp96
ag6
(g10
S'\xf6(\\\x8f\xc2\xf5\xe8?'
p97
tp98
Rp99
ag6
(g10
S'H\xe1z\x14\xaeG\xe9?'
p100
tp101
Rp102
ag6
(g10
S'\xf6(\\\x8f\xc2\xf5\xe8?'
p103
tp104
Rp105
ag6
(g10
S'H\xe1z\x14\xaeG\xe9?'
p106
tp107
Rp108
ag6
(g10
S'H\xe1z\x14\xaeG\xe9?'
p109
tp110
Rp111
ag6
(g10
S'H\xe1z\x14\xaeG\xe9?'
p112
tp113
Rp114
ag6
(g10
S'\xf6(\\\x8f\xc2\xf5\xe8?'
p115
tp116
Rp117
ag6
(g10
S'\x9a\x99\x99\x99\x99\x99\xe9?'
p118
tp119
Rp120
ag6
(g10
S'\x9a\x99\x99\x99\x99\x99\xe9?'
p121
tp122
Rp123
ag6
(g10
S'\x9a\x99\x99\x99\x99\x99\xe9?'
p124
tp125
Rp126
ag6
(g10
S'H\xe1z\x14\xaeG\xe9?'
p127
tp128
Rp129
ag6
(g10
S'\x9a\x99\x99\x99\x99\x99\xe9?'
p130
tp131
Rp132
ag6
(g10
S'H\xe1z\x14\xaeG\xe9?'
p133
tp134
Rp135
ag6
(g10
S'\xf6(\\\x8f\xc2\xf5\xe8?'
p136
tp137
Rp138
ag6
(g10
S'\x9a\x99\x99\x99\x99\x99\xe9?'
p139
tp140
Rp141
ag6
(g10
S'\x9a\x99\x99\x99\x99\x99\xe9?'
p142
tp143
Rp144
ag6
(g10
S'H\xe1z\x14\xaeG\xe9?'
p145
tp146
Rp147
ag6
(g10
S'\xf6(\\\x8f\xc2\xf5\xe8?'
p148
tp149
Rp150
ag6
(g10
S'\xf6(\\\x8f\xc2\xf5\xe8?'
p151
tp152
Rp153
ag6
(g10
S'H\xe1z\x14\xaeG\xe9?'
p154
tp155
Rp156
ag6
(g10
S'H\xe1z\x14\xaeG\xe9?'
p157
tp158
Rp159
ag6
(g10
S'H\xe1z\x14\xaeG\xe9?'
p160
tp161
Rp162
ag6
(g10
S'H\xe1z\x14\xaeG\xe9?'
p163
tp164
Rp165
ag6
(g10
S'\xf6(\\\x8f\xc2\xf5\xe8?'
p166
tp167
Rp168
ag6
(g10
S'H\xe1z\x14\xaeG\xe9?'
p169
tp170
Rp171
ag6
(g10
S'H\xe1z\x14\xaeG\xe9?'
p172
tp173
Rp174
ag6
(g10
S'H\xe1z\x14\xaeG\xe9?'
p175
tp176
Rp177
ag6
(g10
S'H\xe1z\x14\xaeG\xe9?'
p178
tp179
Rp180
ag6
(g10
S'\x9a\x99\x99\x99\x99\x99\xe9?'
p181
tp182
Rp183
ag6
(g10
S'H\xe1z\x14\xaeG\xe9?'
p184
tp185
Rp186
ag6
(g10
S'H\xe1z\x14\xaeG\xe9?'
p187
tp188
Rp189
ag6
(g10
S'H\xe1z\x14\xaeG\xe9?'
p190
tp191
Rp192
aa(lp193
(lp194
S'gini'
p195
aF0.5779239854982546
aI28
aI2
aI38
aa(lp196
g195
aF0.1587540768225899
aI2
aI2
aI54
aa(lp197
S'entropy'
p198
aF0.5935340488057791
aI12
aI6
aI27
aa(lp199
g198
aF0.40676249824783584
aI2
aI17
aI48
aa(lp200
g195
aF0.9573820161598078
aI4
aI12
aI93
aa(lp201
g195
aF0.5159993317302556
aI11
aI1
aI61
aa(lp202
g195
aF0.8932350398114831
aI28
aI6
aI80
aa(lp203
g198
aF0.5176307513870514
aI6
aI4
aI11
aa(lp204
g195
aF0.3124231473425624
aI14
aI8
aI89
aa(lp205
g198
aF0.18749637373095107
aI10
aI2
aI23
aa(lp206
g198
aF0.711516878655169
aI6
aI8
aI28
aa(lp207
g195
aF0.9774055282238749
aI11
aI1
aI52
aa(lp208
g195
aF0.44395857511749603
aI12
aI4
aI35
aa(lp209
g198
aF0.6634693061071935
aI15
aI6
aI39
aa(lp210
g198
aF0.7187344155294471
aI18
aI2
aI41
aa(lp211
g198
aF0.6641271508568902
aI20
aI2
aI80
aa(lp212
g198
aF0.943528654223241
aI3
aI2
aI70
aa(lp213
g195
aF0.6377151202941523
aI2
aI4
aI70
aa(lp214
g195
aF0.8314906323891581
aI18
aI1
aI12
aa(lp215
g195
aF0.399853436978462
aI24
aI7
aI76
aa(lp216
g198
aF0.44488606459219404
aI15
aI7
aI18
aa(lp217
g195
aF0.7654901851838608
aI8
aI7
aI32
aa(lp218
g195
aF0.8711214271018874
aI19
aI16
aI28
aa(lp219
g198
aF0.23319019694992643
aI23
aI17
aI37
aa(lp220
g198
aF0.7170817333463133
aI27
aI9
aI74
aa(lp221
g195
aF0.5715537439750699
aI12
aI4
aI34
aa(lp222
g198
aF0.6163108967873907
aI7
aI2
aI39
aa(lp223
g195
aF0.7768471219184538
aI10
aI6
aI21
aa(lp224
g195
aF0.5994923230265057
aI7
aI5
aI25
aa(lp225
g195
aF0.8635886194987847
aI15
aI6
aI31
aa(lp226
g198
aF0.6950973781245634
aI2
aI13
aI30
aa(lp227
g195
aF0.9424512533938465
aI19
aI5
aI90
aa(lp228
g198
aF0.576997090104359
aI21
aI5
aI16
aa(lp229
g195
aF0.3674879738474799
aI15
aI3
aI98
aa(lp230
g195
aF0.8888054897915557
aI27
aI1
aI14
aa(lp231
g198
aF0.8552514841288325
aI3
aI2
aI77
aa(lp232
g198
aF0.6530271228252803
aI9
aI3
aI69
aa(lp233
g198
aF0.6187855198591748
aI12
aI4
aI94
aa(lp234
g195
aF0.7971247164987648
aI2
aI3
aI15
aa(lp235
g198
aF0.9505939940396546
aI6
aI1
aI73
aa(lp236
g195
aF0.7723257502465406
aI30
aI1
aI29
aa(lp237
g195
aF0.27729410822201195
aI11
aI3
aI31
aa(lp238
g198
aF0.6352912817736021
aI12
aI2
aI92
aa(lp239
g195
aF0.4095235721583338
aI29
aI2
aI68
aa(lp240
g195
aF0.46210662972127026
aI22
aI8
aI83
aa(lp241
g195
aF0.3123094149420512
aI9
aI9
aI41
aa(lp242
g195
aF0.42826217530130584
aI15
aI2
aI17
aa(lp243
g198
aF0.24049325880302547
aI9
aI2
aI50
aa(lp244
g195
aF0.8246220803873223
aI28
aI10
aI56
aa(lp245
g198
aF0.6419462448001232
aI8
aI1
aI78
aa(lp246
g198
aF0.2186297282973948
aI10
aI4
aI47
aa(lp247
g195
aF0.3710858918397095
aI12
aI6
aI28
aa(lp248
g198
aF0.6073429943125399
aI7
aI9
aI42
aa(lp249
g195
aF0.8312861962652461
aI21
aI1
aI85
aa(lp250
g198
aF0.10562798836883568
aI2
aI3
aI35
aa(lp251
g195
aF0.9763315858575055
aI25
aI9
aI40
aa(lp252
g198
aF0.8539044563813785
aI16
aI5
aI76
aa(lp253
g195
aF0.6827306875994424
aI22
aI7
aI55
aa(lp254
g195
aF0.7459659399908947
aI13
aI5
aI46
aa(lp255
g198
aF0.5227737453794875
aI12
aI2
aI93
aaaF161.7049298286438
ass.