(dp0
S'precision'
p1
(dp2
S'RF'
p3
(lp4
(lp5
cnumpy.core.multiarray
scalar
p6
(cnumpy
dtype
p7
(S'f8'
p8
I0
I1
tp9
Rp10
(I3
S'<'
p11
NNNI-1
I-1
I0
tp12
bS'ffffff\xd6?'
p13
tp14
Rp15
ag6
(g10
S'\x1f\x85\xebQ\xb8\x1e\xd5?'
p16
tp17
Rp18
ag6
(g10
S'\xaeG\xe1z\x14\xae\xd7?'
p19
tp20
Rp21
ag6
(g10
S'\n\xd7\xa3p=\n\xd7?'
p22
tp23
Rp24
ag6
(g10
S'{\x14\xaeG\xe1z\xd4?'
p25
tp26
Rp27
ag6
(g10
S'ffffff\xd6?'
p28
tp29
Rp30
ag6
(g10
S'R\xb8\x1e\x85\xebQ\xd8?'
p31
tp32
Rp33
ag6
(g10
S'\x1f\x85\xebQ\xb8\x1e\xd5?'
p34
tp35
Rp36
ag6
(g10
S'ffffff\xd6?'
p37
tp38
Rp39
ag6
(g10
S'\xaeG\xe1z\x14\xae\xd7?'
p40
tp41
Rp42
ag6
(g10
S'\xf6(\\\x8f\xc2\xf5\xd8?'
p43
tp44
Rp45
ag6
(g10
S'ffffff\xd6?'
p46
tp47
Rp48
ag6
(g10
S'ffffff\xd6?'
p49
tp50
Rp51
ag6
(g10
S'\xaeG\xe1z\x14\xae\xd7?'
p52
tp53
Rp54
ag6
(g10
S'\n\xd7\xa3p=\n\xd7?'
p55
tp56
Rp57
ag6
(g10
S'\xaeG\xe1z\x14\xae\xd7?'
p58
tp59
Rp60
ag6
(g10
S'\xf6(\\\x8f\xc2\xf5\xd8?'
p61
tp62
Rp63
ag6
(g10
S'\x1f\x85\xebQ\xb8\x1e\xd5?'
p64
tp65
Rp66
ag6
(g10
S'\xf6(\\\x8f\xc2\xf5\xd8?'
p67
tp68
Rp69
ag6
(g10
S'\xaeG\xe1z\x14\xae\xd7?'
p70
tp71
Rp72
ag6
(g10
S'R\xb8\x1e\x85\xebQ\xd8?'
p73
tp74
Rp75
ag6
(g10
S'ffffff\xd6?'
p76
tp77
Rp78
ag6
(g10
S'\xecQ\xb8\x1e\x85\xeb\xd1?'
p79
tp80
Rp81
ag6
(g10
S'{\x14\xaeG\xe1z\xd4?'
p82
tp83
Rp84
ag6
(g10
S'\xaeG\xe1z\x14\xae\xd7?'
p85
tp86
Rp87
ag6
(g10
S'\n\xd7\xa3p=\n\xd7?'
p88
tp89
Rp90
ag6
(g10
S')\\\x8f\xc2\xf5(\xdc?'
p91
tp92
Rp93
ag6
(g10
S'\n\xd7\xa3p=\n\xd7?'
p94
tp95
Rp96
ag6
(g10
S'\x1f\x85\xebQ\xb8\x1e\xd5?'
p97
tp98
Rp99
ag6
(g10
S'\n\xd7\xa3p=\n\xd7?'
p100
tp101
Rp102
ag6
(g10
S'\xaeG\xe1z\x14\xae\xd7?'
p103
tp104
Rp105
ag6
(g10
S'\xf6(\\\x8f\xc2\xf5\xd8?'
p106
tp107
Rp108
ag6
(g10
S'\n\xd7\xa3p=\n\xd7?'
p109
tp110
Rp111
ag6
(g10
S'\xe1z\x14\xaeG\xe1\xda?'
p112
tp113
Rp114
ag6
(g10
S'\x9a\x99\x99\x99\x99\x99\xd9?'
p115
tp116
Rp117
ag6
(g10
S'ffffff\xd6?'
p118
tp119
Rp120
ag6
(g10
S'{\x14\xaeG\xe1z\xd4?'
p121
tp122
Rp123
ag6
(g10
S'ffffff\xd6?'
p124
tp125
Rp126
ag6
(g10
S'\x85\xebQ\xb8\x1e\x85\xdb?'
p127
tp128
Rp129
ag6
(g10
S'R\xb8\x1e\x85\xebQ\xd8?'
p130
tp131
Rp132
ag6
(g10
S'ffffff\xd6?'
p133
tp134
Rp135
ag6
(g10
S'\xd7\xa3p=\n\xd7\xd3?'
p136
tp137
Rp138
ag6
(g10
S'\n\xd7\xa3p=\n\xd7?'
p139
tp140
Rp141
ag6
(g10
S'\n\xd7\xa3p=\n\xd7?'
p142
tp143
Rp144
ag6
(g10
S'\n\xd7\xa3p=\n\xd7?'
p145
tp146
Rp147
ag6
(g10
S'R\xb8\x1e\x85\xebQ\xd8?'
p148
tp149
Rp150
ag6
(g10
S'\x1f\x85\xebQ\xb8\x1e\xd5?'
p151
tp152
Rp153
ag6
(g10
S'\xc3\xf5(\\\x8f\xc2\xd5?'
p154
tp155
Rp156
ag6
(g10
S'\n\xd7\xa3p=\n\xd7?'
p157
tp158
Rp159
ag6
(g10
S'R\xb8\x1e\x85\xebQ\xd8?'
p160
tp161
Rp162
ag6
(g10
S'\n\xd7\xa3p=\n\xd7?'
p163
tp164
Rp165
ag6
(g10
S'\xaeG\xe1z\x14\xae\xd7?'
p166
tp167
Rp168
ag6
(g10
S'R\xb8\x1e\x85\xebQ\xd8?'
p169
tp170
Rp171
ag6
(g10
S'=\n\xd7\xa3p=\xda?'
p172
tp173
Rp174
ag6
(g10
S'\xaeG\xe1z\x14\xae\xd7?'
p175
tp176
Rp177
ag6
(g10
S'\n\xd7\xa3p=\n\xd7?'
p178
tp179
Rp180
ag6
(g10
S'\n\xd7\xa3p=\n\xd7?'
p181
tp182
Rp183
ag6
(g10
S'{\x14\xaeG\xe1z\xd4?'
p184
tp185
Rp186
ag6
(g10
S'\xf6(\\\x8f\xc2\xf5\xd8?'
p187
tp188
Rp189
ag6
(g10
S'R\xb8\x1e\x85\xebQ\xd8?'
p190
tp191
Rp192
aa(lp193
(lp194
S'gini'
p195
aF0.6563668612242182
aI23
aI11
aI22
aa(lp196
g195
aF0.1587540768225899
aI2
aI2
aI54
aa(lp197
S'entropy'
p198
aF0.3901982380672244
aI22
aI14
aI49
aa(lp199
g198
aF0.3424160649208547
aI8
aI14
aI21
aa(lp200
g198
aF0.3672762748577404
aI9
aI1
aI18
aa(lp201
g195
aF0.7232948070199685
aI20
aI20
aI37
aa(lp202
g198
aF0.20449034278448538
aI8
aI21
aI82
aa(lp203
g195
aF0.6683758386725024
aI23
aI5
aI20
aa(lp204
g195
aF0.6069220768831262
aI18
aI6
aI48
aa(lp205
g198
aF0.605134722257397
aI7
aI10
aI39
aa(lp206
g198
aF0.10205154339919949
aI30
aI2
aI27
aa(lp207
g198
aF0.4389251521059555
aI5
aI9
aI34
aa(lp208
g195
aF0.44395857511749603
aI12
aI4
aI35
aa(lp209
g198
aF0.1352132295374678
aI13
aI1
aI45
aa(lp210
g198
aF0.20628630543211235
aI25
aI2
aI57
aa(lp211
g198
aF0.5297381032346247
aI6
aI21
aI33
aa(lp212
g195
aF0.1626915470247976
aI22
aI9
aI19
aa(lp213
g198
aF0.46360938157034126
aI25
aI5
aI17
aa(lp214
g195
aF0.13709154684540695
aI22
aI16
aI71
aa(lp215
g195
aF0.8586167038002536
aI12
aI20
aI18
aa(lp216
g198
aF0.2385009789966846
aI8
aI19
aI30
aa(lp217
g195
aF0.715875984467359
aI29
aI8
aI75
aa(lp218
g198
aF0.4409991871464788
aI22
aI4
aI10
aa(lp219
g198
aF0.4579988242593849
aI8
aI2
aI56
aa(lp220
g198
aF0.2871870691406252
aI25
aI13
aI32
aa(lp221
g198
aF0.2290115084339588
aI26
aI3
aI100
aa(lp222
g198
aF0.13950507609497076
aI28
aI18
aI43
aa(lp223
g198
aF0.4579873153091172
aI23
aI8
aI92
aa(lp224
g198
aF0.9268466126022865
aI20
aI8
aI19
aa(lp225
g198
aF0.17774194738958587
aI30
aI11
aI52
aa(lp226
g198
aF0.6950973781245634
aI2
aI13
aI30
aa(lp227
g195
aF0.11329266945135741
aI10
aI17
aI43
aa(lp228
g195
aF0.12339231663750828
aI2
aI1
aI31
aa(lp229
g198
aF0.10008594894235356
aI17
aI15
aI54
aa(lp230
g198
aF0.3445197578035266
aI2
aI17
aI100
aa(lp231
g195
aF0.7096350226276165
aI20
aI1
aI46
aa(lp232
g198
aF0.933424034431122
aI22
aI1
aI42
aa(lp233
g195
aF0.7300360317652347
aI18
aI8
aI59
aa(lp234
g198
aF0.11594874853987615
aI5
aI18
aI21
aa(lp235
g198
aF0.13067575975351034
aI28
aI16
aI65
aa(lp236
g195
aF0.1191274569191881
aI14
aI2
aI21
aa(lp237
g198
aF0.6968211898074882
aI17
aI3
aI11
aa(lp238
g198
aF0.5780497171248614
aI9
aI14
aI11
aa(lp239
g195
aF0.3923276948112535
aI26
aI16
aI55
aa(lp240
g198
aF0.7511945381510452
aI3
aI19
aI71
aa(lp241
g195
aF0.13062081912480936
aI4
aI8
aI50
aa(lp242
g198
aF0.6602120732368867
aI22
aI3
aI67
aa(lp243
g198
aF0.24049325880302547
aI9
aI2
aI50
aa(lp244
g195
aF0.6056927764996515
aI5
aI14
aI34
aa(lp245
g198
aF0.684939465397003
aI30
aI13
aI81
aa(lp246
g198
aF0.2186297282973948
aI10
aI4
aI47
aa(lp247
g195
aF0.8379433940154067
aI2
aI21
aI45
aa(lp248
g198
aF0.15224120787475653
aI2
aI10
aI58
aa(lp249
g198
aF0.10736300948160608
aI30
aI16
aI27
aa(lp250
g195
aF0.8519793180478814
aI24
aI14
aI31
aa(lp251
g198
aF0.20951837695379683
aI21
aI4
aI43
aa(lp252
g198
aF0.8620054673109516
aI8
aI17
aI81
aa(lp253
g195
aF0.7205088607883068
aI3
aI3
aI44
aa(lp254
g195
aF0.10613295533968736
aI20
aI6
aI57
aa(lp255
g198
aF0.1294252303548505
aI29
aI6
aI93
aaaF232.02952814102173
ass.