(dp0
S'precision'
p1
(dp2
S'RF'
p3
(lp4
(lp5
cnumpy.core.multiarray
scalar
p6
(cnumpy
dtype
p7
(S'f8'
p8
I0
I1
tp9
Rp10
(I3
S'<'
p11
NNNI-1
I-1
I0
tp12
bS'\xc3\xf5(\\\x8f\xc2\xd5?'
p13
tp14
Rp15
ag6
(g10
S'\xc3\xf5(\\\x8f\xc2\xd5?'
p16
tp17
Rp18
ag6
(g10
S'\xc3\xf5(\\\x8f\xc2\xd5?'
p19
tp20
Rp21
ag6
(g10
S'ffffff\xd6?'
p22
tp23
Rp24
ag6
(g10
S'ffffff\xd6?'
p25
tp26
Rp27
ag6
(g10
S'\xc3\xf5(\\\x8f\xc2\xd5?'
p28
tp29
Rp30
ag6
(g10
S'\xc3\xf5(\\\x8f\xc2\xd5?'
p31
tp32
Rp33
ag6
(g10
S'ffffff\xd6?'
p34
tp35
Rp36
ag6
(g10
S'\xc3\xf5(\\\x8f\xc2\xd5?'
p37
tp38
Rp39
ag6
(g10
S'\xc3\xf5(\\\x8f\xc2\xd5?'
p40
tp41
Rp42
ag6
(g10
S'\xc3\xf5(\\\x8f\xc2\xd5?'
p43
tp44
Rp45
ag6
(g10
S'\xc3\xf5(\\\x8f\xc2\xd5?'
p46
tp47
Rp48
ag6
(g10
S'\xc3\xf5(\\\x8f\xc2\xd5?'
p49
tp50
Rp51
ag6
(g10
S'\xc3\xf5(\\\x8f\xc2\xd5?'
p52
tp53
Rp54
ag6
(g10
S'ffffff\xd6?'
p55
tp56
Rp57
ag6
(g10
S'\xc3\xf5(\\\x8f\xc2\xd5?'
p58
tp59
Rp60
ag6
(g10
S'\xc3\xf5(\\\x8f\xc2\xd5?'
p61
tp62
Rp63
ag6
(g10
S'\xc3\xf5(\\\x8f\xc2\xd5?'
p64
tp65
Rp66
ag6
(g10
S'\xc3\xf5(\\\x8f\xc2\xd5?'
p67
tp68
Rp69
ag6
(g10
S'\xc3\xf5(\\\x8f\xc2\xd5?'
p70
tp71
Rp72
ag6
(g10
S'\xc3\xf5(\\\x8f\xc2\xd5?'
p73
tp74
Rp75
ag6
(g10
S'\xc3\xf5(\\\x8f\xc2\xd5?'
p76
tp77
Rp78
ag6
(g10
S'\xc3\xf5(\\\x8f\xc2\xd5?'
p79
tp80
Rp81
ag6
(g10
S'\xc3\xf5(\\\x8f\xc2\xd5?'
p82
tp83
Rp84
ag6
(g10
S'\xc3\xf5(\\\x8f\xc2\xd5?'
p85
tp86
Rp87
ag6
(g10
S'\xc3\xf5(\\\x8f\xc2\xd5?'
p88
tp89
Rp90
ag6
(g10
S'ffffff\xd6?'
p91
tp92
Rp93
ag6
(g10
S'\xc3\xf5(\\\x8f\xc2\xd5?'
p94
tp95
Rp96
ag6
(g10
S'\xc3\xf5(\\\x8f\xc2\xd5?'
p97
tp98
Rp99
ag6
(g10
S'\xc3\xf5(\\\x8f\xc2\xd5?'
p100
tp101
Rp102
ag6
(g10
S'\xc3\xf5(\\\x8f\xc2\xd5?'
p103
tp104
Rp105
ag6
(g10
S'\xc3\xf5(\\\x8f\xc2\xd5?'
p106
tp107
Rp108
ag6
(g10
S'\xc3\xf5(\\\x8f\xc2\xd5?'
p109
tp110
Rp111
ag6
(g10
S'ffffff\xd6?'
p112
tp113
Rp114
ag6
(g10
S'\xc3\xf5(\\\x8f\xc2\xd5?'
p115
tp116
Rp117
ag6
(g10
S'\xc3\xf5(\\\x8f\xc2\xd5?'
p118
tp119
Rp120
ag6
(g10
S'\xc3\xf5(\\\x8f\xc2\xd5?'
p121
tp122
Rp123
ag6
(g10
S'\xc3\xf5(\\\x8f\xc2\xd5?'
p124
tp125
Rp126
ag6
(g10
S'ffffff\xd6?'
p127
tp128
Rp129
ag6
(g10
S'ffffff\xd6?'
p130
tp131
Rp132
ag6
(g10
S'\xc3\xf5(\\\x8f\xc2\xd5?'
p133
tp134
Rp135
ag6
(g10
S'\xc3\xf5(\\\x8f\xc2\xd5?'
p136
tp137
Rp138
ag6
(g10
S'ffffff\xd6?'
p139
tp140
Rp141
ag6
(g10
S'ffffff\xd6?'
p142
tp143
Rp144
ag6
(g10
S'\xc3\xf5(\\\x8f\xc2\xd5?'
p145
tp146
Rp147
ag6
(g10
S'\xc3\xf5(\\\x8f\xc2\xd5?'
p148
tp149
Rp150
ag6
(g10
S'\xc3\xf5(\\\x8f\xc2\xd5?'
p151
tp152
Rp153
ag6
(g10
S'\xc3\xf5(\\\x8f\xc2\xd5?'
p154
tp155
Rp156
ag6
(g10
S'\xc3\xf5(\\\x8f\xc2\xd5?'
p157
tp158
Rp159
ag6
(g10
S'ffffff\xd6?'
p160
tp161
Rp162
ag6
(g10
S'\xc3\xf5(\\\x8f\xc2\xd5?'
p163
tp164
Rp165
ag6
(g10
S'\xc3\xf5(\\\x8f\xc2\xd5?'
p166
tp167
Rp168
ag6
(g10
S'\xc3\xf5(\\\x8f\xc2\xd5?'
p169
tp170
Rp171
ag6
(g10
S'\xc3\xf5(\\\x8f\xc2\xd5?'
p172
tp173
Rp174
ag6
(g10
S'\xc3\xf5(\\\x8f\xc2\xd5?'
p175
tp176
Rp177
ag6
(g10
S'\xc3\xf5(\\\x8f\xc2\xd5?'
p178
tp179
Rp180
ag6
(g10
S'\xc3\xf5(\\\x8f\xc2\xd5?'
p181
tp182
Rp183
ag6
(g10
S'\xc3\xf5(\\\x8f\xc2\xd5?'
p184
tp185
Rp186
ag6
(g10
S'\xc3\xf5(\\\x8f\xc2\xd5?'
p187
tp188
Rp189
ag6
(g10
S'\xc3\xf5(\\\x8f\xc2\xd5?'
p190
tp191
Rp192
aa(lp193
(lp194
S'gini'
p195
aF0.859519600434066
aI8
aI4
aI17
aa(lp196
g195
aF0.1587540768225899
aI2
aI2
aI54
aa(lp197
S'entropy'
p198
aF0.5935340488057791
aI12
aI6
aI27
aa(lp199
g195
aF0.9755551806069498
aI4
aI3
aI93
aa(lp200
g195
aF0.8491700637190964
aI7
aI1
aI50
aa(lp201
g195
aF0.7190627170626043
aI3
aI9
aI78
aa(lp202
g195
aF0.3141878530534462
aI2
aI6
aI96
aa(lp203
g198
aF0.5176307513870514
aI6
aI4
aI11
aa(lp204
g198
aF0.13076819727320801
aI9
aI1
aI71
aa(lp205
g195
aF0.5914815659892528
aI4
aI18
aI38
aa(lp206
g195
aF0.2732876492726721
aI30
aI19
aI48
aa(lp207
g195
aF0.5556872210217526
aI29
aI1
aI58
aa(lp208
g198
aF0.6985811599887637
aI23
aI20
aI60
aa(lp209
g195
aF0.45906294168977557
aI12
aI8
aI47
aa(lp210
g195
aF0.6693873290617449
aI6
aI1
aI96
aa(lp211
g195
aF0.15369243310415948
aI20
aI8
aI77
aa(lp212
g195
aF0.7095228282701729
aI12
aI4
aI90
aa(lp213
g195
aF0.6377151202941523
aI2
aI4
aI70
aa(lp214
g195
aF0.3434300408037987
aI30
aI4
aI15
aa(lp215
g198
aF0.6690057697180789
aI4
aI17
aI21
aa(lp216
g198
aF0.7376831487073539
aI23
aI21
aI77
aa(lp217
g195
aF0.6098983053361937
aI21
aI17
aI22
aa(lp218
g198
aF0.5394223341135843
aI30
aI11
aI49
aa(lp219
g198
aF0.23319019694992643
aI23
aI17
aI37
aa(lp220
g198
aF0.26738099785550906
aI29
aI12
aI75
aa(lp221
g195
aF0.47920279395983045
aI5
aI4
aI83
aa(lp222
g198
aF0.6163108967873907
aI7
aI2
aI39
aa(lp223
g195
aF0.6352252140822278
aI15
aI7
aI34
aa(lp224
g195
aF0.25372512376060885
aI19
aI1
aI79
aa(lp225
g195
aF0.6888609050854057
aI8
aI19
aI57
aa(lp226
g195
aF0.39286953148960013
aI8
aI3
aI38
aa(lp227
g195
aF0.3924761326574564
aI3
aI2
aI99
aa(lp228
g195
aF0.7879715055778916
aI18
aI4
aI97
aa(lp229
g195
aF0.622165474346214
aI3
aI1
aI39
aa(lp230
g198
aF0.7400924559327875
aI29
aI1
aI25
aa(lp231
g195
aF0.6530080966557972
aI19
aI18
aI94
aa(lp232
g198
aF0.8862184954088701
aI18
aI11
aI91
aa(lp233
g198
aF0.8189448585406693
aI2
aI4
aI54
aa(lp234
g198
aF0.7095803690383886
aI7
aI1
aI49
aa(lp235
g198
aF0.9505939940396546
aI6
aI1
aI73
aa(lp236
g198
aF0.99735950667345
aI27
aI1
aI37
aa(lp237
g198
aF0.6968211898074882
aI17
aI3
aI11
aa(lp238
g195
aF0.836891371377675
aI9
aI1
aI13
aa(lp239
g198
aF0.43763398258397535
aI3
aI2
aI33
aa(lp240
g198
aF0.2099009649555726
aI16
aI1
aI42
aa(lp241
g195
aF0.35210619236848206
aI16
aI2
aI41
aa(lp242
g195
aF0.9113673438679324
aI17
aI20
aI50
aa(lp243
g195
aF0.6564223422305643
aI27
aI6
aI42
aa(lp244
g198
aF0.6823863877282339
aI19
aI16
aI86
aa(lp245
g198
aF0.6419462448001232
aI8
aI1
aI78
aa(lp246
g195
aF0.8148029917315831
aI10
aI5
aI45
aa(lp247
g195
aF0.2986295316812656
aI22
aI15
aI23
aa(lp248
g198
aF0.9370001618311602
aI15
aI16
aI82
aa(lp249
g195
aF0.7177242359753677
aI18
aI5
aI78
aa(lp250
g195
aF0.5645637767743108
aI29
aI10
aI43
aa(lp251
g195
aF0.3519120977180409
aI5
aI14
aI54
aa(lp252
g195
aF0.7454768989646691
aI18
aI12
aI45
aa(lp253
g195
aF0.7172478909422301
aI29
aI7
aI84
aa(lp254
g195
aF0.10613295533968736
aI20
aI6
aI57
aa(lp255
g195
aF0.6296326972621518
aI10
aI15
aI58
aaaF158.79735493659973
ass.