(dp0
S'f1'
p1
(dp2
S'KNN'
p3
(lp4
(lp5
cnumpy.core.multiarray
scalar
p6
(cnumpy
dtype
p7
(S'f8'
p8
I0
I1
tp9
Rp10
(I3
S'<'
p11
NNNI-1
I-1
I0
tp12
bS'=\n\xd7\xa3p=\xda?'
p13
tp14
Rp15
ag6
(g10
S'\x85\xebQ\xb8\x1e\x85\xdb?'
p16
tp17
Rp18
ag6
(g10
S'\xc3\xf5(\\\x8f\xc2\xc5?'
p19
tp20
Rp21
ag6
(g10
S'\x85\xebQ\xb8\x1e\x85\xdb?'
p22
tp23
Rp24
ag6
(g10
S'=\n\xd7\xa3p=\xda?'
p25
tp26
Rp27
ag6
(g10
S'333333\xc3?'
p28
tp29
Rp30
ag6
(g10
S'\x85\xebQ\xb8\x1e\x85\xdb?'
p31
tp32
Rp33
ag6
(g10
S'=\n\xd7\xa3p=\xda?'
p34
tp35
Rp36
ag6
(g10
S'333333\xc3?'
p37
tp38
Rp39
ag6
(g10
S'\x85\xebQ\xb8\x1e\x85\xdb?'
p40
tp41
Rp42
ag6
(g10
S'=\n\xd7\xa3p=\xda?'
p43
tp44
Rp45
ag6
(g10
S'333333\xc3?'
p46
tp47
Rp48
ag6
(g10
S'\x85\xebQ\xb8\x1e\x85\xdb?'
p49
tp50
Rp51
ag6
(g10
S'=\n\xd7\xa3p=\xda?'
p52
tp53
Rp54
ag6
(g10
S'333333\xc3?'
p55
tp56
Rp57
ag6
(g10
S'\x85\xebQ\xb8\x1e\x85\xdb?'
p58
tp59
Rp60
ag6
(g10
S'=\n\xd7\xa3p=\xda?'
p61
tp62
Rp63
ag6
(g10
S'333333\xc3?'
p64
tp65
Rp66
ag6
(g10
S'\x85\xebQ\xb8\x1e\x85\xdb?'
p67
tp68
Rp69
ag6
(g10
S'=\n\xd7\xa3p=\xda?'
p70
tp71
Rp72
ag6
(g10
S'333333\xc3?'
p73
tp74
Rp75
ag6
(g10
S'\x85\xebQ\xb8\x1e\x85\xdb?'
p76
tp77
Rp78
ag6
(g10
S'=\n\xd7\xa3p=\xda?'
p79
tp80
Rp81
ag6
(g10
S'333333\xc3?'
p82
tp83
Rp84
ag6
(g10
S'\x85\xebQ\xb8\x1e\x85\xdb?'
p85
tp86
Rp87
ag6
(g10
S'=\n\xd7\xa3p=\xda?'
p88
tp89
Rp90
ag6
(g10
S'333333\xc3?'
p91
tp92
Rp93
ag6
(g10
S'\x85\xebQ\xb8\x1e\x85\xdb?'
p94
tp95
Rp96
ag6
(g10
S'=\n\xd7\xa3p=\xda?'
p97
tp98
Rp99
ag6
(g10
S'333333\xc3?'
p100
tp101
Rp102
ag6
(g10
S'\x85\xebQ\xb8\x1e\x85\xdb?'
p103
tp104
Rp105
ag6
(g10
S'=\n\xd7\xa3p=\xda?'
p106
tp107
Rp108
ag6
(g10
S'333333\xc3?'
p109
tp110
Rp111
ag6
(g10
S'\x85\xebQ\xb8\x1e\x85\xdb?'
p112
tp113
Rp114
ag6
(g10
S'=\n\xd7\xa3p=\xda?'
p115
tp116
Rp117
ag6
(g10
S'333333\xc3?'
p118
tp119
Rp120
ag6
(g10
S'\x85\xebQ\xb8\x1e\x85\xdb?'
p121
tp122
Rp123
ag6
(g10
S'=\n\xd7\xa3p=\xda?'
p124
tp125
Rp126
ag6
(g10
S'333333\xc3?'
p127
tp128
Rp129
ag6
(g10
S'\x85\xebQ\xb8\x1e\x85\xdb?'
p130
tp131
Rp132
ag6
(g10
S'=\n\xd7\xa3p=\xda?'
p133
tp134
Rp135
ag6
(g10
S'333333\xc3?'
p136
tp137
Rp138
ag6
(g10
S'\x85\xebQ\xb8\x1e\x85\xdb?'
p139
tp140
Rp141
ag6
(g10
S'=\n\xd7\xa3p=\xda?'
p142
tp143
Rp144
ag6
(g10
S'333333\xc3?'
p145
tp146
Rp147
ag6
(g10
S'\x85\xebQ\xb8\x1e\x85\xdb?'
p148
tp149
Rp150
ag6
(g10
S'=\n\xd7\xa3p=\xda?'
p151
tp152
Rp153
ag6
(g10
S'333333\xc3?'
p154
tp155
Rp156
ag6
(g10
S'\x85\xebQ\xb8\x1e\x85\xdb?'
p157
tp158
Rp159
ag6
(g10
S'=\n\xd7\xa3p=\xda?'
p160
tp161
Rp162
ag6
(g10
S'333333\xc3?'
p163
tp164
Rp165
ag6
(g10
S'\x85\xebQ\xb8\x1e\x85\xdb?'
p166
tp167
Rp168
ag6
(g10
S'=\n\xd7\xa3p=\xda?'
p169
tp170
Rp171
ag6
(g10
S'333333\xc3?'
p172
tp173
Rp174
ag6
(g10
S'\x85\xebQ\xb8\x1e\x85\xdb?'
p175
tp176
Rp177
ag6
(g10
S'=\n\xd7\xa3p=\xda?'
p178
tp179
Rp180
ag6
(g10
S'333333\xc3?'
p181
tp182
Rp183
ag6
(g10
S'\x85\xebQ\xb8\x1e\x85\xdb?'
p184
tp185
Rp186
ag6
(g10
S'=\n\xd7\xa3p=\xda?'
p187
tp188
Rp189
ag6
(g10
S'333333\xc3?'
p190
tp191
Rp192
aa(lp193
(lp194
I3
aS'distance'
p195
aa(lp196
I2
ag195
aa(lp197
I4
aS'uniform'
p198
aa(lp199
I2
ag195
aa(lp200
I3
ag195
aa(lp201
I5
ag198
aa(lp202
I2
ag195
aa(lp203
I3
ag195
aa(lp204
I5
ag198
aa(lp205
I2
ag195
aa(lp206
I3
ag195
aa(lp207
I5
ag198
aa(lp208
I2
ag195
aa(lp209
I3
ag195
aa(lp210
I5
ag198
aa(lp211
I2
ag195
aa(lp212
I3
ag195
aa(lp213
I5
ag198
aa(lp214
I2
ag195
aa(lp215
I3
ag195
aa(lp216
I5
ag198
aa(lp217
I2
ag195
aa(lp218
I3
ag195
aa(lp219
I5
ag198
aa(lp220
I2
ag195
aa(lp221
I3
ag195
aa(lp222
I5
ag198
aa(lp223
I2
ag195
aa(lp224
I3
ag195
aa(lp225
I5
ag198
aa(lp226
I2
ag195
aa(lp227
I3
ag195
aa(lp228
I5
ag198
aa(lp229
I2
ag195
aa(lp230
I3
ag195
aa(lp231
I5
ag198
aa(lp232
I2
ag195
aa(lp233
I3
ag195
aa(lp234
I5
ag198
aa(lp235
I2
ag195
aa(lp236
I3
ag195
aa(lp237
I5
ag198
aa(lp238
I2
ag195
aa(lp239
I3
ag195
aa(lp240
I5
ag198
aa(lp241
I2
ag195
aa(lp242
I3
ag195
aa(lp243
I5
ag198
aa(lp244
I2
ag195
aa(lp245
I3
ag195
aa(lp246
I5
ag198
aa(lp247
I2
ag195
aa(lp248
I3
ag195
aa(lp249
I5
ag198
aa(lp250
I2
ag195
aa(lp251
I3
ag195
aa(lp252
I5
ag198
aa(lp253
I2
ag195
aa(lp254
I3
ag195
aa(lp255
I5
ag198
aaaF2.014842987060547
asS'DTC'
p256
(lp257
(lp258
g6
(g10
S'{\x14\xaeG\xe1z\xd4?'
p259
tp260
Rp261
ag6
(g10
S')\\\x8f\xc2\xf5(\xdc?'
p262
tp263
Rp264
ag6
(g10
S'\xaeG\xe1z\x14\xae\xd7?'
p265
tp266
Rp267
ag6
(g10
S'{\x14\xaeG\xe1z\xd4?'
p268
tp269
Rp270
ag6
(g10
S')\\\x8f\xc2\xf5(\xdc?'
p271
tp272
Rp273
ag6
(g10
S'\xaeG\xe1z\x14\xae\xd7?'
p274
tp275
Rp276
ag6
(g10
S'{\x14\xaeG\xe1z\xd4?'
p277
tp278
Rp279
ag6
(g10
S')\\\x8f\xc2\xf5(\xdc?'
p280
tp281
Rp282
ag6
(g10
S'\xaeG\xe1z\x14\xae\xd7?'
p283
tp284
Rp285
ag6
(g10
S'{\x14\xaeG\xe1z\xd4?'
p286
tp287
Rp288
ag6
(g10
S')\\\x8f\xc2\xf5(\xdc?'
p289
tp290
Rp291
ag6
(g10
S'\xaeG\xe1z\x14\xae\xd7?'
p292
tp293
Rp294
ag6
(g10
S'{\x14\xaeG\xe1z\xd4?'
p295
tp296
Rp297
ag6
(g10
S')\\\x8f\xc2\xf5(\xdc?'
p298
tp299
Rp300
ag6
(g10
S'\xaeG\xe1z\x14\xae\xd7?'
p301
tp302
Rp303
ag6
(g10
S'{\x14\xaeG\xe1z\xd4?'
p304
tp305
Rp306
ag6
(g10
S')\\\x8f\xc2\xf5(\xdc?'
p307
tp308
Rp309
ag6
(g10
S'\xaeG\xe1z\x14\xae\xd7?'
p310
tp311
Rp312
ag6
(g10
S'{\x14\xaeG\xe1z\xd4?'
p313
tp314
Rp315
ag6
(g10
S')\\\x8f\xc2\xf5(\xdc?'
p316
tp317
Rp318
ag6
(g10
S'\xaeG\xe1z\x14\xae\xd7?'
p319
tp320
Rp321
ag6
(g10
S'{\x14\xaeG\xe1z\xd4?'
p322
tp323
Rp324
ag6
(g10
S')\\\x8f\xc2\xf5(\xdc?'
p325
tp326
Rp327
ag6
(g10
S'\xaeG\xe1z\x14\xae\xd7?'
p328
tp329
Rp330
ag6
(g10
S'{\x14\xaeG\xe1z\xd4?'
p331
tp332
Rp333
ag6
(g10
S')\\\x8f\xc2\xf5(\xdc?'
p334
tp335
Rp336
ag6
(g10
S'\xaeG\xe1z\x14\xae\xd7?'
p337
tp338
Rp339
ag6
(g10
S'{\x14\xaeG\xe1z\xd4?'
p340
tp341
Rp342
ag6
(g10
S')\\\x8f\xc2\xf5(\xdc?'
p343
tp344
Rp345
ag6
(g10
S'\xaeG\xe1z\x14\xae\xd7?'
p346
tp347
Rp348
ag6
(g10
S'{\x14\xaeG\xe1z\xd4?'
p349
tp350
Rp351
ag6
(g10
S')\\\x8f\xc2\xf5(\xdc?'
p352
tp353
Rp354
ag6
(g10
S'\xaeG\xe1z\x14\xae\xd7?'
p355
tp356
Rp357
ag6
(g10
S'{\x14\xaeG\xe1z\xd4?'
p358
tp359
Rp360
ag6
(g10
S')\\\x8f\xc2\xf5(\xdc?'
p361
tp362
Rp363
ag6
(g10
S'\xaeG\xe1z\x14\xae\xd7?'
p364
tp365
Rp366
ag6
(g10
S'{\x14\xaeG\xe1z\xd4?'
p367
tp368
Rp369
ag6
(g10
S')\\\x8f\xc2\xf5(\xdc?'
p370
tp371
Rp372
ag6
(g10
S'\xaeG\xe1z\x14\xae\xd7?'
p373
tp374
Rp375
ag6
(g10
S'{\x14\xaeG\xe1z\xd4?'
p376
tp377
Rp378
ag6
(g10
S')\\\x8f\xc2\xf5(\xdc?'
p379
tp380
Rp381
ag6
(g10
S'\xaeG\xe1z\x14\xae\xd7?'
p382
tp383
Rp384
ag6
(g10
S'{\x14\xaeG\xe1z\xd4?'
p385
tp386
Rp387
ag6
(g10
S')\\\x8f\xc2\xf5(\xdc?'
p388
tp389
Rp390
ag6
(g10
S'\xaeG\xe1z\x14\xae\xd7?'
p391
tp392
Rp393
ag6
(g10
S'{\x14\xaeG\xe1z\xd4?'
p394
tp395
Rp396
ag6
(g10
S')\\\x8f\xc2\xf5(\xdc?'
p397
tp398
Rp399
ag6
(g10
S'\xaeG\xe1z\x14\xae\xd7?'
p400
tp401
Rp402
ag6
(g10
S'{\x14\xaeG\xe1z\xd4?'
p403
tp404
Rp405
ag6
(g10
S')\\\x8f\xc2\xf5(\xdc?'
p406
tp407
Rp408
ag6
(g10
S'\xaeG\xe1z\x14\xae\xd7?'
p409
tp410
Rp411
ag6
(g10
S'{\x14\xaeG\xe1z\xd4?'
p412
tp413
Rp414
ag6
(g10
S')\\\x8f\xc2\xf5(\xdc?'
p415
tp416
Rp417
ag6
(g10
S'\xaeG\xe1z\x14\xae\xd7?'
p418
tp419
Rp420
ag6
(g10
S'{\x14\xaeG\xe1z\xd4?'
p421
tp422
Rp423
ag6
(g10
S')\\\x8f\xc2\xf5(\xdc?'
p424
tp425
Rp426
ag6
(g10
S'\xaeG\xe1z\x14\xae\xd7?'
p427
tp428
Rp429
ag6
(g10
S'{\x14\xaeG\xe1z\xd4?'
p430
tp431
Rp432
ag6
(g10
S')\\\x8f\xc2\xf5(\xdc?'
p433
tp434
Rp435
ag6
(g10
S'\xaeG\xe1z\x14\xae\xd7?'
p436
tp437
Rp438
aa(lp439
(lp440
S'gini'
p441
aF0.8626903632435095
aI8
aI5
aI5
aa(lp442
S'entropy'
p443
aF0.489490361114548
aI24
aI1
aI10
aa(lp444
g441
aF0.8626903632435095
aI24
aI6
aI11
aa(lp445
g441
aF0.8626903632435095
aI8
aI5
aI5
aa(lp446
g443
aF0.489490361114548
aI24
aI1
aI10
aa(lp447
g441
aF0.8626903632435095
aI24
aI6
aI11
aa(lp448
g441
aF0.8626903632435095
aI8
aI5
aI5
aa(lp449
g443
aF0.489490361114548
aI24
aI1
aI10
aa(lp450
g441
aF0.8626903632435095
aI24
aI6
aI11
aa(lp451
g441
aF0.8626903632435095
aI8
aI5
aI5
aa(lp452
g443
aF0.489490361114548
aI24
aI1
aI10
aa(lp453
g441
aF0.8626903632435095
aI24
aI6
aI11
aa(lp454
g441
aF0.8626903632435095
aI8
aI5
aI5
aa(lp455
g443
aF0.489490361114548
aI24
aI1
aI10
aa(lp456
g441
aF0.8626903632435095
aI24
aI6
aI11
aa(lp457
g441
aF0.8626903632435095
aI8
aI5
aI5
aa(lp458
g443
aF0.489490361114548
aI24
aI1
aI10
aa(lp459
g441
aF0.8626903632435095
aI24
aI6
aI11
aa(lp460
g441
aF0.8626903632435095
aI8
aI5
aI5
aa(lp461
g443
aF0.489490361114548
aI24
aI1
aI10
aa(lp462
g441
aF0.8626903632435095
aI24
aI6
aI11
aa(lp463
g441
aF0.8626903632435095
aI8
aI5
aI5
aa(lp464
g443
aF0.489490361114548
aI24
aI1
aI10
aa(lp465
g441
aF0.8626903632435095
aI24
aI6
aI11
aa(lp466
g441
aF0.8626903632435095
aI8
aI5
aI5
aa(lp467
g443
aF0.489490361114548
aI24
aI1
aI10
aa(lp468
g441
aF0.8626903632435095
aI24
aI6
aI11
aa(lp469
g441
aF0.8626903632435095
aI8
aI5
aI5
aa(lp470
g443
aF0.489490361114548
aI24
aI1
aI10
aa(lp471
g441
aF0.8626903632435095
aI24
aI6
aI11
aa(lp472
g441
aF0.8626903632435095
aI8
aI5
aI5
aa(lp473
g443
aF0.489490361114548
aI24
aI1
aI10
aa(lp474
g441
aF0.8626903632435095
aI24
aI6
aI11
aa(lp475
g441
aF0.8626903632435095
aI8
aI5
aI5
aa(lp476
g443
aF0.489490361114548
aI24
aI1
aI10
aa(lp477
g441
aF0.8626903632435095
aI24
aI6
aI11
aa(lp478
g441
aF0.8626903632435095
aI8
aI5
aI5
aa(lp479
g443
aF0.489490361114548
aI24
aI1
aI10
aa(lp480
g441
aF0.8626903632435095
aI24
aI6
aI11
aa(lp481
g441
aF0.8626903632435095
aI8
aI5
aI5
aa(lp482
g443
aF0.489490361114548
aI24
aI1
aI10
aa(lp483
g441
aF0.8626903632435095
aI24
aI6
aI11
aa(lp484
g441
aF0.8626903632435095
aI8
aI5
aI5
aa(lp485
g443
aF0.489490361114548
aI24
aI1
aI10
aa(lp486
g441
aF0.8626903632435095
aI24
aI6
aI11
aa(lp487
g441
aF0.8626903632435095
aI8
aI5
aI5
aa(lp488
g443
aF0.489490361114548
aI24
aI1
aI10
aa(lp489
g441
aF0.8626903632435095
aI24
aI6
aI11
aa(lp490
g441
aF0.8626903632435095
aI8
aI5
aI5
aa(lp491
g443
aF0.489490361114548
aI24
aI1
aI10
aa(lp492
g441
aF0.8626903632435095
aI24
aI6
aI11
aa(lp493
g441
aF0.8626903632435095
aI8
aI5
aI5
aa(lp494
g443
aF0.489490361114548
aI24
aI1
aI10
aa(lp495
g441
aF0.8626903632435095
aI24
aI6
aI11
aa(lp496
g441
aF0.8626903632435095
aI8
aI5
aI5
aa(lp497
g443
aF0.489490361114548
aI24
aI1
aI10
aa(lp498
g441
aF0.8626903632435095
aI24
aI6
aI11
aa(lp499
g441
aF0.8626903632435095
aI8
aI5
aI5
aa(lp500
g443
aF0.489490361114548
aI24
aI1
aI10
aa(lp501
g441
aF0.8626903632435095
aI24
aI6
aI11
aaaF1.5864810943603516
asS'RF'
p502
(lp503
(lp504
g6
(g10
S'\xaeG\xe1z\x14\xae\xd7?'
p505
tp506
Rp507
ag6
(g10
S'{\x14\xaeG\xe1z\xd4?'
p508
tp509
Rp510
ag6
(g10
S'\xd7\xa3p=\n\xd7\xd3?'
p511
tp512
Rp513
ag6
(g10
S'\xaeG\xe1z\x14\xae\xd7?'
p514
tp515
Rp516
ag6
(g10
S'{\x14\xaeG\xe1z\xd4?'
p517
tp518
Rp519
ag6
(g10
S'\xd7\xa3p=\n\xd7\xd3?'
p520
tp521
Rp522
ag6
(g10
S'\xaeG\xe1z\x14\xae\xd7?'
p523
tp524
Rp525
ag6
(g10
S'{\x14\xaeG\xe1z\xd4?'
p526
tp527
Rp528
ag6
(g10
S'\xd7\xa3p=\n\xd7\xd3?'
p529
tp530
Rp531
ag6
(g10
S'\xaeG\xe1z\x14\xae\xd7?'
p532
tp533
Rp534
ag6
(g10
S'{\x14\xaeG\xe1z\xd4?'
p535
tp536
Rp537
ag6
(g10
S'\xd7\xa3p=\n\xd7\xd3?'
p538
tp539
Rp540
ag6
(g10
S'\xaeG\xe1z\x14\xae\xd7?'
p541
tp542
Rp543
ag6
(g10
S'{\x14\xaeG\xe1z\xd4?'
p544
tp545
Rp546
ag6
(g10
S'\xd7\xa3p=\n\xd7\xd3?'
p547
tp548
Rp549
ag6
(g10
S'\xaeG\xe1z\x14\xae\xd7?'
p550
tp551
Rp552
ag6
(g10
S'{\x14\xaeG\xe1z\xd4?'
p553
tp554
Rp555
ag6
(g10
S'\xd7\xa3p=\n\xd7\xd3?'
p556
tp557
Rp558
ag6
(g10
S'\xaeG\xe1z\x14\xae\xd7?'
p559
tp560
Rp561
ag6
(g10
S'{\x14\xaeG\xe1z\xd4?'
p562
tp563
Rp564
ag6
(g10
S'\xd7\xa3p=\n\xd7\xd3?'
p565
tp566
Rp567
ag6
(g10
S'\xaeG\xe1z\x14\xae\xd7?'
p568
tp569
Rp570
ag6
(g10
S'{\x14\xaeG\xe1z\xd4?'
p571
tp572
Rp573
ag6
(g10
S'\xd7\xa3p=\n\xd7\xd3?'
p574
tp575
Rp576
ag6
(g10
S'\xaeG\xe1z\x14\xae\xd7?'
p577
tp578
Rp579
ag6
(g10
S'{\x14\xaeG\xe1z\xd4?'
p580
tp581
Rp582
ag6
(g10
S'\xd7\xa3p=\n\xd7\xd3?'
p583
tp584
Rp585
ag6
(g10
S'\xaeG\xe1z\x14\xae\xd7?'
p586
tp587
Rp588
ag6
(g10
S'{\x14\xaeG\xe1z\xd4?'
p589
tp590
Rp591
ag6
(g10
S'\xd7\xa3p=\n\xd7\xd3?'
p592
tp593
Rp594
ag6
(g10
S'\xaeG\xe1z\x14\xae\xd7?'
p595
tp596
Rp597
ag6
(g10
S'{\x14\xaeG\xe1z\xd4?'
p598
tp599
Rp600
ag6
(g10
S'\xd7\xa3p=\n\xd7\xd3?'
p601
tp602
Rp603
ag6
(g10
S'\xaeG\xe1z\x14\xae\xd7?'
p604
tp605
Rp606
ag6
(g10
S'{\x14\xaeG\xe1z\xd4?'
p607
tp608
Rp609
ag6
(g10
S'\xd7\xa3p=\n\xd7\xd3?'
p610
tp611
Rp612
ag6
(g10
S'\xaeG\xe1z\x14\xae\xd7?'
p613
tp614
Rp615
ag6
(g10
S'{\x14\xaeG\xe1z\xd4?'
p616
tp617
Rp618
ag6
(g10
S'\xd7\xa3p=\n\xd7\xd3?'
p619
tp620
Rp621
ag6
(g10
S'\xaeG\xe1z\x14\xae\xd7?'
p622
tp623
Rp624
ag6
(g10
S'{\x14\xaeG\xe1z\xd4?'
p625
tp626
Rp627
ag6
(g10
S'\xd7\xa3p=\n\xd7\xd3?'
p628
tp629
Rp630
ag6
(g10
S'\xaeG\xe1z\x14\xae\xd7?'
p631
tp632
Rp633
ag6
(g10
S'{\x14\xaeG\xe1z\xd4?'
p634
tp635
Rp636
ag6
(g10
S'\xd7\xa3p=\n\xd7\xd3?'
p637
tp638
Rp639
ag6
(g10
S'\xaeG\xe1z\x14\xae\xd7?'
p640
tp641
Rp642
ag6
(g10
S'{\x14\xaeG\xe1z\xd4?'
p643
tp644
Rp645
ag6
(g10
S'\xd7\xa3p=\n\xd7\xd3?'
p646
tp647
Rp648
ag6
(g10
S'\xaeG\xe1z\x14\xae\xd7?'
p649
tp650
Rp651
ag6
(g10
S'{\x14\xaeG\xe1z\xd4?'
p652
tp653
Rp654
ag6
(g10
S'\xd7\xa3p=\n\xd7\xd3?'
p655
tp656
Rp657
ag6
(g10
S'\xaeG\xe1z\x14\xae\xd7?'
p658
tp659
Rp660
ag6
(g10
S'{\x14\xaeG\xe1z\xd4?'
p661
tp662
Rp663
ag6
(g10
S'\xd7\xa3p=\n\xd7\xd3?'
p664
tp665
Rp666
ag6
(g10
S'\xaeG\xe1z\x14\xae\xd7?'
p667
tp668
Rp669
ag6
(g10
S'{\x14\xaeG\xe1z\xd4?'
p670
tp671
Rp672
ag6
(g10
S'\xd7\xa3p=\n\xd7\xd3?'
p673
tp674
Rp675
ag6
(g10
S'\xaeG\xe1z\x14\xae\xd7?'
p676
tp677
Rp678
ag6
(g10
S'{\x14\xaeG\xe1z\xd4?'
p679
tp680
Rp681
ag6
(g10
S'\xd7\xa3p=\n\xd7\xd3?'
p682
tp683
Rp684
aa(lp685
(lp686
g441
aF0.6864336754504866
aI24
aI2
aI12
aa(lp687
g441
aF0.6864336754504866
aI7
aI3
aI91
aa(lp688
g441
aF0.8626903632435095
aI24
aI6
aI55
aa(lp689
g441
aF0.6864336754504866
aI24
aI2
aI12
aa(lp690
g441
aF0.6864336754504866
aI7
aI3
aI91
aa(lp691
g441
aF0.8626903632435095
aI24
aI6
aI55
aa(lp692
g441
aF0.6864336754504866
aI24
aI2
aI12
aa(lp693
g441
aF0.6864336754504866
aI7
aI3
aI91
aa(lp694
g441
aF0.8626903632435095
aI24
aI6
aI55
aa(lp695
g441
aF0.6864336754504866
aI24
aI2
aI12
aa(lp696
g441
aF0.6864336754504866
aI7
aI3
aI91
aa(lp697
g441
aF0.8626903632435095
aI24
aI6
aI55
aa(lp698
g441
aF0.6864336754504866
aI24
aI2
aI12
aa(lp699
g441
aF0.6864336754504866
aI7
aI3
aI91
aa(lp700
g441
aF0.8626903632435095
aI24
aI6
aI55
aa(lp701
g441
aF0.6864336754504866
aI24
aI2
aI12
aa(lp702
g441
aF0.6864336754504866
aI7
aI3
aI91
aa(lp703
g441
aF0.8626903632435095
aI24
aI6
aI55
aa(lp704
g441
aF0.6864336754504866
aI24
aI2
aI12
aa(lp705
g441
aF0.6864336754504866
aI7
aI3
aI91
aa(lp706
g441
aF0.8626903632435095
aI24
aI6
aI55
aa(lp707
g441
aF0.6864336754504866
aI24
aI2
aI12
aa(lp708
g441
aF0.6864336754504866
aI7
aI3
aI91
aa(lp709
g441
aF0.8626903632435095
aI24
aI6
aI55
aa(lp710
g441
aF0.6864336754504866
aI24
aI2
aI12
aa(lp711
g441
aF0.6864336754504866
aI7
aI3
aI91
aa(lp712
g441
aF0.8626903632435095
aI24
aI6
aI55
aa(lp713
g441
aF0.6864336754504866
aI24
aI2
aI12
aa(lp714
g441
aF0.6864336754504866
aI7
aI3
aI91
aa(lp715
g441
aF0.8626903632435095
aI24
aI6
aI55
aa(lp716
g441
aF0.6864336754504866
aI24
aI2
aI12
aa(lp717
g441
aF0.6864336754504866
aI7
aI3
aI91
aa(lp718
g441
aF0.8626903632435095
aI24
aI6
aI55
aa(lp719
g441
aF0.6864336754504866
aI24
aI2
aI12
aa(lp720
g441
aF0.6864336754504866
aI7
aI3
aI91
aa(lp721
g441
aF0.8626903632435095
aI24
aI6
aI55
aa(lp722
g441
aF0.6864336754504866
aI24
aI2
aI12
aa(lp723
g441
aF0.6864336754504866
aI7
aI3
aI91
aa(lp724
g441
aF0.8626903632435095
aI24
aI6
aI55
aa(lp725
g441
aF0.6864336754504866
aI24
aI2
aI12
aa(lp726
g441
aF0.6864336754504866
aI7
aI3
aI91
aa(lp727
g441
aF0.8626903632435095
aI24
aI6
aI55
aa(lp728
g441
aF0.6864336754504866
aI24
aI2
aI12
aa(lp729
g441
aF0.6864336754504866
aI7
aI3
aI91
aa(lp730
g441
aF0.8626903632435095
aI24
aI6
aI55
aa(lp731
g441
aF0.6864336754504866
aI24
aI2
aI12
aa(lp732
g441
aF0.6864336754504866
aI7
aI3
aI91
aa(lp733
g441
aF0.8626903632435095
aI24
aI6
aI55
aa(lp734
g441
aF0.6864336754504866
aI24
aI2
aI12
aa(lp735
g441
aF0.6864336754504866
aI7
aI3
aI91
aa(lp736
g441
aF0.8626903632435095
aI24
aI6
aI55
aa(lp737
g441
aF0.6864336754504866
aI24
aI2
aI12
aa(lp738
g441
aF0.6864336754504866
aI7
aI3
aI91
aa(lp739
g441
aF0.8626903632435095
aI24
aI6
aI55
aa(lp740
g441
aF0.6864336754504866
aI24
aI2
aI12
aa(lp741
g441
aF0.6864336754504866
aI7
aI3
aI91
aa(lp742
g441
aF0.8626903632435095
aI24
aI6
aI55
aa(lp743
g441
aF0.6864336754504866
aI24
aI2
aI12
aa(lp744
g441
aF0.6864336754504866
aI7
aI3
aI91
aa(lp745
g441
aF0.8626903632435095
aI24
aI6
aI55
aaaF141.39058804512024
asS'SVM'
p746
(lp747
(lp748
g6
(g10
S'\x00\x00\x00\x00\x00\x00\x00\x00'
p749
tp750
Rp751
ag6
(g10
S'\x00\x00\x00\x00\x00\x00\x00\x00'
p752
tp753
Rp754
ag6
(g10
S'\x00\x00\x00\x00\x00\x00\x00\x00'
p755
tp756
Rp757
ag6
(g10
S'\x00\x00\x00\x00\x00\x00\x00\x00'
p758
tp759
Rp760
ag6
(g10
S'\x00\x00\x00\x00\x00\x00\x00\x00'
p761
tp762
Rp763
ag6
(g10
S'\x00\x00\x00\x00\x00\x00\x00\x00'
p764
tp765
Rp766
ag6
(g10
S'\x00\x00\x00\x00\x00\x00\x00\x00'
p767
tp768
Rp769
ag6
(g10
S'\x00\x00\x00\x00\x00\x00\x00\x00'
p770
tp771
Rp772
ag6
(g10
S'\x00\x00\x00\x00\x00\x00\x00\x00'
p773
tp774
Rp775
ag6
(g10
S'\x00\x00\x00\x00\x00\x00\x00\x00'
p776
tp777
Rp778
ag6
(g10
S'\x00\x00\x00\x00\x00\x00\x00\x00'
p779
tp780
Rp781
ag6
(g10
S'\x00\x00\x00\x00\x00\x00\x00\x00'
p782
tp783
Rp784
ag6
(g10
S'\x00\x00\x00\x00\x00\x00\x00\x00'
p785
tp786
Rp787
ag6
(g10
S'\x00\x00\x00\x00\x00\x00\x00\x00'
p788
tp789
Rp790
ag6
(g10
S'\x00\x00\x00\x00\x00\x00\x00\x00'
p791
tp792
Rp793
ag6
(g10
S'\x00\x00\x00\x00\x00\x00\x00\x00'
p794
tp795
Rp796
ag6
(g10
S'\x00\x00\x00\x00\x00\x00\x00\x00'
p797
tp798
Rp799
ag6
(g10
S'\x00\x00\x00\x00\x00\x00\x00\x00'
p800
tp801
Rp802
ag6
(g10
S'\x00\x00\x00\x00\x00\x00\x00\x00'
p803
tp804
Rp805
ag6
(g10
S'\x00\x00\x00\x00\x00\x00\x00\x00'
p806
tp807
Rp808
ag6
(g10
S'\x00\x00\x00\x00\x00\x00\x00\x00'
p809
tp810
Rp811
ag6
(g10
S'\x00\x00\x00\x00\x00\x00\x00\x00'
p812
tp813
Rp814
ag6
(g10
S'\x00\x00\x00\x00\x00\x00\x00\x00'
p815
tp816
Rp817
ag6
(g10
S'\x00\x00\x00\x00\x00\x00\x00\x00'
p818
tp819
Rp820
ag6
(g10
S'\x00\x00\x00\x00\x00\x00\x00\x00'
p821
tp822
Rp823
ag6
(g10
S'\x00\x00\x00\x00\x00\x00\x00\x00'
p824
tp825
Rp826
ag6
(g10
S'\x00\x00\x00\x00\x00\x00\x00\x00'
p827
tp828
Rp829
ag6
(g10
S'\x00\x00\x00\x00\x00\x00\x00\x00'
p830
tp831
Rp832
ag6
(g10
S'\x00\x00\x00\x00\x00\x00\x00\x00'
p833
tp834
Rp835
ag6
(g10
S'\x00\x00\x00\x00\x00\x00\x00\x00'
p836
tp837
Rp838
ag6
(g10
S'\x00\x00\x00\x00\x00\x00\x00\x00'
p839
tp840
Rp841
ag6
(g10
S'\x00\x00\x00\x00\x00\x00\x00\x00'
p842
tp843
Rp844
ag6
(g10
S'\x00\x00\x00\x00\x00\x00\x00\x00'
p845
tp846
Rp847
ag6
(g10
S'\x00\x00\x00\x00\x00\x00\x00\x00'
p848
tp849
Rp850
ag6
(g10
S'\x00\x00\x00\x00\x00\x00\x00\x00'
p851
tp852
Rp853
ag6
(g10
S'\x00\x00\x00\x00\x00\x00\x00\x00'
p854
tp855
Rp856
ag6
(g10
S'\x00\x00\x00\x00\x00\x00\x00\x00'
p857
tp858
Rp859
ag6
(g10
S'\x00\x00\x00\x00\x00\x00\x00\x00'
p860
tp861
Rp862
ag6
(g10
S'\x00\x00\x00\x00\x00\x00\x00\x00'
p863
tp864
Rp865
ag6
(g10
S'\x00\x00\x00\x00\x00\x00\x00\x00'
p866
tp867
Rp868
ag6
(g10
S'\x00\x00\x00\x00\x00\x00\x00\x00'
p869
tp870
Rp871
ag6
(g10
S'\x00\x00\x00\x00\x00\x00\x00\x00'
p872
tp873
Rp874
ag6
(g10
S'\x00\x00\x00\x00\x00\x00\x00\x00'
p875
tp876
Rp877
ag6
(g10
S'\x00\x00\x00\x00\x00\x00\x00\x00'
p878
tp879
Rp880
ag6
(g10
S'\x00\x00\x00\x00\x00\x00\x00\x00'
p881
tp882
Rp883
ag6
(g10
S'\x00\x00\x00\x00\x00\x00\x00\x00'
p884
tp885
Rp886
ag6
(g10
S'\x00\x00\x00\x00\x00\x00\x00\x00'
p887
tp888
Rp889
ag6
(g10
S'\x00\x00\x00\x00\x00\x00\x00\x00'
p890
tp891
Rp892
ag6
(g10
S'\x00\x00\x00\x00\x00\x00\x00\x00'
p893
tp894
Rp895
ag6
(g10
S'\x00\x00\x00\x00\x00\x00\x00\x00'
p896
tp897
Rp898
ag6
(g10
S'\x00\x00\x00\x00\x00\x00\x00\x00'
p899
tp900
Rp901
ag6
(g10
S'\x00\x00\x00\x00\x00\x00\x00\x00'
p902
tp903
Rp904
ag6
(g10
S'\x00\x00\x00\x00\x00\x00\x00\x00'
p905
tp906
Rp907
ag6
(g10
S'\x00\x00\x00\x00\x00\x00\x00\x00'
p908
tp909
Rp910
ag6
(g10
S'\x00\x00\x00\x00\x00\x00\x00\x00'
p911
tp912
Rp913
ag6
(g10
S'\x00\x00\x00\x00\x00\x00\x00\x00'
p914
tp915
Rp916
ag6
(g10
S'\x00\x00\x00\x00\x00\x00\x00\x00'
p917
tp918
Rp919
ag6
(g10
S'\x00\x00\x00\x00\x00\x00\x00\x00'
p920
tp921
Rp922
ag6
(g10
S'\x00\x00\x00\x00\x00\x00\x00\x00'
p923
tp924
Rp925
ag6
(g10
S'\x00\x00\x00\x00\x00\x00\x00\x00'
p926
tp927
Rp928
aa(lp929
(lp930
I23
aS'sigmoid'
p931
aF0.9112847118503352
aF0.1275309847301982
aa(lp932
I23
ag931
aF0.9112847118503352
aF0.1275309847301982
aa(lp933
I23
ag931
aF0.9112847118503352
aF0.1275309847301982
aa(lp934
I59
ag931
aF0.9112847118503352
aF0.1275309847301982
aa(lp935
I23
ag931
aF0.9112847118503352
aF0.1275309847301982
aa(lp936
I23
ag931
aF0.9112847118503352
aF0.1275309847301982
aa(lp937
I59
ag931
aF0.9112847118503352
aF0.1275309847301982
aa(lp938
I23
ag931
aF0.9112847118503352
aF0.1275309847301982
aa(lp939
I23
ag931
aF0.9112847118503352
aF0.1275309847301982
aa(lp940
I59
ag931
aF0.9112847118503352
aF0.1275309847301982
aa(lp941
I23
ag931
aF0.9112847118503352
aF0.1275309847301982
aa(lp942
I23
ag931
aF0.9112847118503352
aF0.1275309847301982
aa(lp943
I59
ag931
aF0.9112847118503352
aF0.1275309847301982
aa(lp944
I23
ag931
aF0.9112847118503352
aF0.1275309847301982
aa(lp945
I23
ag931
aF0.9112847118503352
aF0.1275309847301982
aa(lp946
I59
ag931
aF0.9112847118503352
aF0.1275309847301982
aa(lp947
I23
ag931
aF0.9112847118503352
aF0.1275309847301982
aa(lp948
I23
ag931
aF0.9112847118503352
aF0.1275309847301982
aa(lp949
I59
ag931
aF0.9112847118503352
aF0.1275309847301982
aa(lp950
I23
ag931
aF0.9112847118503352
aF0.1275309847301982
aa(lp951
I23
ag931
aF0.9112847118503352
aF0.1275309847301982
aa(lp952
I59
ag931
aF0.9112847118503352
aF0.1275309847301982
aa(lp953
I23
ag931
aF0.9112847118503352
aF0.1275309847301982
aa(lp954
I23
ag931
aF0.9112847118503352
aF0.1275309847301982
aa(lp955
I59
ag931
aF0.9112847118503352
aF0.1275309847301982
aa(lp956
I23
ag931
aF0.9112847118503352
aF0.1275309847301982
aa(lp957
I23
ag931
aF0.9112847118503352
aF0.1275309847301982
aa(lp958
I59
ag931
aF0.9112847118503352
aF0.1275309847301982
aa(lp959
I23
ag931
aF0.9112847118503352
aF0.1275309847301982
aa(lp960
I23
ag931
aF0.9112847118503352
aF0.1275309847301982
aa(lp961
I59
ag931
aF0.9112847118503352
aF0.1275309847301982
aa(lp962
I23
ag931
aF0.9112847118503352
aF0.1275309847301982
aa(lp963
I23
ag931
aF0.9112847118503352
aF0.1275309847301982
aa(lp964
I59
ag931
aF0.9112847118503352
aF0.1275309847301982
aa(lp965
I23
ag931
aF0.9112847118503352
aF0.1275309847301982
aa(lp966
I23
ag931
aF0.9112847118503352
aF0.1275309847301982
aa(lp967
I59
ag931
aF0.9112847118503352
aF0.1275309847301982
aa(lp968
I23
ag931
aF0.9112847118503352
aF0.1275309847301982
aa(lp969
I23
ag931
aF0.9112847118503352
aF0.1275309847301982
aa(lp970
I59
ag931
aF0.9112847118503352
aF0.1275309847301982
aa(lp971
I23
ag931
aF0.9112847118503352
aF0.1275309847301982
aa(lp972
I23
ag931
aF0.9112847118503352
aF0.1275309847301982
aa(lp973
I59
ag931
aF0.9112847118503352
aF0.1275309847301982
aa(lp974
I23
ag931
aF0.9112847118503352
aF0.1275309847301982
aa(lp975
I23
ag931
aF0.9112847118503352
aF0.1275309847301982
aa(lp976
I59
ag931
aF0.9112847118503352
aF0.1275309847301982
aa(lp977
I23
ag931
aF0.9112847118503352
aF0.1275309847301982
aa(lp978
I23
ag931
aF0.9112847118503352
aF0.1275309847301982
aa(lp979
I59
ag931
aF0.9112847118503352
aF0.1275309847301982
aa(lp980
I23
ag931
aF0.9112847118503352
aF0.1275309847301982
aa(lp981
I23
ag931
aF0.9112847118503352
aF0.1275309847301982
aa(lp982
I59
ag931
aF0.9112847118503352
aF0.1275309847301982
aa(lp983
I23
ag931
aF0.9112847118503352
aF0.1275309847301982
aa(lp984
I23
ag931
aF0.9112847118503352
aF0.1275309847301982
aa(lp985
I59
ag931
aF0.9112847118503352
aF0.1275309847301982
aa(lp986
I23
ag931
aF0.9112847118503352
aF0.1275309847301982
aa(lp987
I23
ag931
aF0.9112847118503352
aF0.1275309847301982
aa(lp988
I59
ag931
aF0.9112847118503352
aF0.1275309847301982
aa(lp989
I23
ag931
aF0.9112847118503352
aF0.1275309847301982
aa(lp990
I23
ag931
aF0.9112847118503352
aF0.1275309847301982
aaaF4.181235074996948
ass.