(dp0
S'f1'
p1
(dp2
S'KNN'
p3
(lp4
(lp5
cnumpy.core.multiarray
scalar
p6
(cnumpy
dtype
p7
(S'f8'
p8
I0
I1
tp9
Rp10
(I3
S'<'
p11
NNNI-1
I-1
I0
tp12
bS'\xb8\x1e\x85\xebQ\xb8\xde?'
p13
tp14
Rp15
ag6
(g10
S'\xcd\xcc\xcc\xcc\xcc\xcc\xdc?'
p16
tp17
Rp18
ag6
(g10
S'\xb8\x1e\x85\xebQ\xb8\xde?'
p19
tp20
Rp21
ag6
(g10
S'\xcd\xcc\xcc\xcc\xcc\xcc\xdc?'
p22
tp23
Rp24
ag6
(g10
S'\xcd\xcc\xcc\xcc\xcc\xcc\xdc?'
p25
tp26
Rp27
ag6
(g10
S'\xb8\x1e\x85\xebQ\xb8\xde?'
p28
tp29
Rp30
ag6
(g10
S'\xcd\xcc\xcc\xcc\xcc\xcc\xdc?'
p31
tp32
Rp33
ag6
(g10
S'\xcd\xcc\xcc\xcc\xcc\xcc\xdc?'
p34
tp35
Rp36
ag6
(g10
S'\xb8\x1e\x85\xebQ\xb8\xde?'
p37
tp38
Rp39
ag6
(g10
S'\xcd\xcc\xcc\xcc\xcc\xcc\xdc?'
p40
tp41
Rp42
ag6
(g10
S'\xcd\xcc\xcc\xcc\xcc\xcc\xdc?'
p43
tp44
Rp45
ag6
(g10
S'\xb8\x1e\x85\xebQ\xb8\xde?'
p46
tp47
Rp48
ag6
(g10
S'\xcd\xcc\xcc\xcc\xcc\xcc\xdc?'
p49
tp50
Rp51
ag6
(g10
S'\xcd\xcc\xcc\xcc\xcc\xcc\xdc?'
p52
tp53
Rp54
ag6
(g10
S'\xb8\x1e\x85\xebQ\xb8\xde?'
p55
tp56
Rp57
ag6
(g10
S'\xcd\xcc\xcc\xcc\xcc\xcc\xdc?'
p58
tp59
Rp60
ag6
(g10
S'\xcd\xcc\xcc\xcc\xcc\xcc\xdc?'
p61
tp62
Rp63
ag6
(g10
S'\xb8\x1e\x85\xebQ\xb8\xde?'
p64
tp65
Rp66
ag6
(g10
S'\xcd\xcc\xcc\xcc\xcc\xcc\xdc?'
p67
tp68
Rp69
ag6
(g10
S'\xcd\xcc\xcc\xcc\xcc\xcc\xdc?'
p70
tp71
Rp72
ag6
(g10
S'\xb8\x1e\x85\xebQ\xb8\xde?'
p73
tp74
Rp75
ag6
(g10
S'\xcd\xcc\xcc\xcc\xcc\xcc\xdc?'
p76
tp77
Rp78
ag6
(g10
S'\xcd\xcc\xcc\xcc\xcc\xcc\xdc?'
p79
tp80
Rp81
ag6
(g10
S'\xb8\x1e\x85\xebQ\xb8\xde?'
p82
tp83
Rp84
ag6
(g10
S'\xcd\xcc\xcc\xcc\xcc\xcc\xdc?'
p85
tp86
Rp87
ag6
(g10
S'\xcd\xcc\xcc\xcc\xcc\xcc\xdc?'
p88
tp89
Rp90
ag6
(g10
S'\xb8\x1e\x85\xebQ\xb8\xde?'
p91
tp92
Rp93
ag6
(g10
S'\xcd\xcc\xcc\xcc\xcc\xcc\xdc?'
p94
tp95
Rp96
ag6
(g10
S'\xcd\xcc\xcc\xcc\xcc\xcc\xdc?'
p97
tp98
Rp99
ag6
(g10
S'\xb8\x1e\x85\xebQ\xb8\xde?'
p100
tp101
Rp102
ag6
(g10
S'\xcd\xcc\xcc\xcc\xcc\xcc\xdc?'
p103
tp104
Rp105
ag6
(g10
S'\xcd\xcc\xcc\xcc\xcc\xcc\xdc?'
p106
tp107
Rp108
ag6
(g10
S'\xb8\x1e\x85\xebQ\xb8\xde?'
p109
tp110
Rp111
ag6
(g10
S'\xcd\xcc\xcc\xcc\xcc\xcc\xdc?'
p112
tp113
Rp114
ag6
(g10
S'\xcd\xcc\xcc\xcc\xcc\xcc\xdc?'
p115
tp116
Rp117
ag6
(g10
S'\xb8\x1e\x85\xebQ\xb8\xde?'
p118
tp119
Rp120
ag6
(g10
S'\xcd\xcc\xcc\xcc\xcc\xcc\xdc?'
p121
tp122
Rp123
ag6
(g10
S'\xcd\xcc\xcc\xcc\xcc\xcc\xdc?'
p124
tp125
Rp126
ag6
(g10
S'\xb8\x1e\x85\xebQ\xb8\xde?'
p127
tp128
Rp129
ag6
(g10
S'\xcd\xcc\xcc\xcc\xcc\xcc\xdc?'
p130
tp131
Rp132
ag6
(g10
S'\xcd\xcc\xcc\xcc\xcc\xcc\xdc?'
p133
tp134
Rp135
ag6
(g10
S'\xb8\x1e\x85\xebQ\xb8\xde?'
p136
tp137
Rp138
ag6
(g10
S'\xcd\xcc\xcc\xcc\xcc\xcc\xdc?'
p139
tp140
Rp141
ag6
(g10
S'\xcd\xcc\xcc\xcc\xcc\xcc\xdc?'
p142
tp143
Rp144
ag6
(g10
S'\xb8\x1e\x85\xebQ\xb8\xde?'
p145
tp146
Rp147
ag6
(g10
S'\xcd\xcc\xcc\xcc\xcc\xcc\xdc?'
p148
tp149
Rp150
ag6
(g10
S'\xcd\xcc\xcc\xcc\xcc\xcc\xdc?'
p151
tp152
Rp153
ag6
(g10
S'\xb8\x1e\x85\xebQ\xb8\xde?'
p154
tp155
Rp156
ag6
(g10
S'\xcd\xcc\xcc\xcc\xcc\xcc\xdc?'
p157
tp158
Rp159
ag6
(g10
S'\xcd\xcc\xcc\xcc\xcc\xcc\xdc?'
p160
tp161
Rp162
ag6
(g10
S'\xb8\x1e\x85\xebQ\xb8\xde?'
p163
tp164
Rp165
ag6
(g10
S'\xcd\xcc\xcc\xcc\xcc\xcc\xdc?'
p166
tp167
Rp168
ag6
(g10
S'\xcd\xcc\xcc\xcc\xcc\xcc\xdc?'
p169
tp170
Rp171
ag6
(g10
S'\xb8\x1e\x85\xebQ\xb8\xde?'
p172
tp173
Rp174
ag6
(g10
S'\xcd\xcc\xcc\xcc\xcc\xcc\xdc?'
p175
tp176
Rp177
ag6
(g10
S'\xcd\xcc\xcc\xcc\xcc\xcc\xdc?'
p178
tp179
Rp180
ag6
(g10
S'\xb8\x1e\x85\xebQ\xb8\xde?'
p181
tp182
Rp183
ag6
(g10
S'\xcd\xcc\xcc\xcc\xcc\xcc\xdc?'
p184
tp185
Rp186
ag6
(g10
S'\xcd\xcc\xcc\xcc\xcc\xcc\xdc?'
p187
tp188
Rp189
ag6
(g10
S'\xb8\x1e\x85\xebQ\xb8\xde?'
p190
tp191
Rp192
aa(lp193
(lp194
I9
aS'distance'
p195
aa(lp196
I5
aS'uniform'
p197
aa(lp198
I9
ag195
aa(lp199
I9
ag197
aa(lp200
I5
ag197
aa(lp201
I9
ag195
aa(lp202
I9
ag197
aa(lp203
I5
ag197
aa(lp204
I9
ag195
aa(lp205
I9
ag197
aa(lp206
I5
ag197
aa(lp207
I9
ag195
aa(lp208
I9
ag197
aa(lp209
I5
ag197
aa(lp210
I9
ag195
aa(lp211
I9
ag197
aa(lp212
I5
ag197
aa(lp213
I9
ag195
aa(lp214
I9
ag197
aa(lp215
I5
ag197
aa(lp216
I9
ag195
aa(lp217
I9
ag197
aa(lp218
I5
ag197
aa(lp219
I9
ag195
aa(lp220
I9
ag197
aa(lp221
I5
ag197
aa(lp222
I9
ag195
aa(lp223
I9
ag197
aa(lp224
I5
ag197
aa(lp225
I9
ag195
aa(lp226
I9
ag197
aa(lp227
I5
ag197
aa(lp228
I9
ag195
aa(lp229
I9
ag197
aa(lp230
I5
ag197
aa(lp231
I9
ag195
aa(lp232
I9
ag197
aa(lp233
I5
ag197
aa(lp234
I9
ag195
aa(lp235
I9
ag197
aa(lp236
I5
ag197
aa(lp237
I9
ag195
aa(lp238
I9
ag197
aa(lp239
I5
ag197
aa(lp240
I9
ag195
aa(lp241
I9
ag197
aa(lp242
I5
ag197
aa(lp243
I9
ag195
aa(lp244
I9
ag197
aa(lp245
I5
ag197
aa(lp246
I9
ag195
aa(lp247
I9
ag197
aa(lp248
I5
ag197
aa(lp249
I9
ag195
aa(lp250
I9
ag197
aa(lp251
I5
ag197
aa(lp252
I9
ag195
aa(lp253
I9
ag197
aa(lp254
I5
ag197
aa(lp255
I9
ag195
aaaF2.0700321197509766
asS'DTC'
p256
(lp257
(lp258
g6
(g10
S'R\xb8\x1e\x85\xebQ\xd8?'
p259
tp260
Rp261
ag6
(g10
S'\xd7\xa3p=\n\xd7\xd3?'
p262
tp263
Rp264
ag6
(g10
S'\xf6(\\\x8f\xc2\xf5\xd8?'
p265
tp266
Rp267
ag6
(g10
S'R\xb8\x1e\x85\xebQ\xd8?'
p268
tp269
Rp270
ag6
(g10
S'\xd7\xa3p=\n\xd7\xd3?'
p271
tp272
Rp273
ag6
(g10
S'\xf6(\\\x8f\xc2\xf5\xd8?'
p274
tp275
Rp276
ag6
(g10
S'R\xb8\x1e\x85\xebQ\xd8?'
p277
tp278
Rp279
ag6
(g10
S'\xd7\xa3p=\n\xd7\xd3?'
p280
tp281
Rp282
ag6
(g10
S'\xf6(\\\x8f\xc2\xf5\xd8?'
p283
tp284
Rp285
ag6
(g10
S'R\xb8\x1e\x85\xebQ\xd8?'
p286
tp287
Rp288
ag6
(g10
S'\xd7\xa3p=\n\xd7\xd3?'
p289
tp290
Rp291
ag6
(g10
S'\xf6(\\\x8f\xc2\xf5\xd8?'
p292
tp293
Rp294
ag6
(g10
S'R\xb8\x1e\x85\xebQ\xd8?'
p295
tp296
Rp297
ag6
(g10
S'\xd7\xa3p=\n\xd7\xd3?'
p298
tp299
Rp300
ag6
(g10
S'\xf6(\\\x8f\xc2\xf5\xd8?'
p301
tp302
Rp303
ag6
(g10
S'R\xb8\x1e\x85\xebQ\xd8?'
p304
tp305
Rp306
ag6
(g10
S'\xd7\xa3p=\n\xd7\xd3?'
p307
tp308
Rp309
ag6
(g10
S'\xf6(\\\x8f\xc2\xf5\xd8?'
p310
tp311
Rp312
ag6
(g10
S'R\xb8\x1e\x85\xebQ\xd8?'
p313
tp314
Rp315
ag6
(g10
S'\xd7\xa3p=\n\xd7\xd3?'
p316
tp317
Rp318
ag6
(g10
S'\xf6(\\\x8f\xc2\xf5\xd8?'
p319
tp320
Rp321
ag6
(g10
S'R\xb8\x1e\x85\xebQ\xd8?'
p322
tp323
Rp324
ag6
(g10
S'\xd7\xa3p=\n\xd7\xd3?'
p325
tp326
Rp327
ag6
(g10
S'\xf6(\\\x8f\xc2\xf5\xd8?'
p328
tp329
Rp330
ag6
(g10
S'R\xb8\x1e\x85\xebQ\xd8?'
p331
tp332
Rp333
ag6
(g10
S'\xd7\xa3p=\n\xd7\xd3?'
p334
tp335
Rp336
ag6
(g10
S'\xf6(\\\x8f\xc2\xf5\xd8?'
p337
tp338
Rp339
ag6
(g10
S'R\xb8\x1e\x85\xebQ\xd8?'
p340
tp341
Rp342
ag6
(g10
S'\xd7\xa3p=\n\xd7\xd3?'
p343
tp344
Rp345
ag6
(g10
S'\xf6(\\\x8f\xc2\xf5\xd8?'
p346
tp347
Rp348
ag6
(g10
S'R\xb8\x1e\x85\xebQ\xd8?'
p349
tp350
Rp351
ag6
(g10
S'\xd7\xa3p=\n\xd7\xd3?'
p352
tp353
Rp354
ag6
(g10
S'\xf6(\\\x8f\xc2\xf5\xd8?'
p355
tp356
Rp357
ag6
(g10
S'R\xb8\x1e\x85\xebQ\xd8?'
p358
tp359
Rp360
ag6
(g10
S'\xd7\xa3p=\n\xd7\xd3?'
p361
tp362
Rp363
ag6
(g10
S'\xf6(\\\x8f\xc2\xf5\xd8?'
p364
tp365
Rp366
ag6
(g10
S'R\xb8\x1e\x85\xebQ\xd8?'
p367
tp368
Rp369
ag6
(g10
S'\xd7\xa3p=\n\xd7\xd3?'
p370
tp371
Rp372
ag6
(g10
S'\xf6(\\\x8f\xc2\xf5\xd8?'
p373
tp374
Rp375
ag6
(g10
S'R\xb8\x1e\x85\xebQ\xd8?'
p376
tp377
Rp378
ag6
(g10
S'\xd7\xa3p=\n\xd7\xd3?'
p379
tp380
Rp381
ag6
(g10
S'\xf6(\\\x8f\xc2\xf5\xd8?'
p382
tp383
Rp384
ag6
(g10
S'R\xb8\x1e\x85\xebQ\xd8?'
p385
tp386
Rp387
ag6
(g10
S'\xd7\xa3p=\n\xd7\xd3?'
p388
tp389
Rp390
ag6
(g10
S'\xf6(\\\x8f\xc2\xf5\xd8?'
p391
tp392
Rp393
ag6
(g10
S'R\xb8\x1e\x85\xebQ\xd8?'
p394
tp395
Rp396
ag6
(g10
S'\xd7\xa3p=\n\xd7\xd3?'
p397
tp398
Rp399
ag6
(g10
S'\xf6(\\\x8f\xc2\xf5\xd8?'
p400
tp401
Rp402
ag6
(g10
S'R\xb8\x1e\x85\xebQ\xd8?'
p403
tp404
Rp405
ag6
(g10
S'\xd7\xa3p=\n\xd7\xd3?'
p406
tp407
Rp408
ag6
(g10
S'\xf6(\\\x8f\xc2\xf5\xd8?'
p409
tp410
Rp411
ag6
(g10
S'R\xb8\x1e\x85\xebQ\xd8?'
p412
tp413
Rp414
ag6
(g10
S'\xd7\xa3p=\n\xd7\xd3?'
p415
tp416
Rp417
ag6
(g10
S'\xf6(\\\x8f\xc2\xf5\xd8?'
p418
tp419
Rp420
ag6
(g10
S'R\xb8\x1e\x85\xebQ\xd8?'
p421
tp422
Rp423
ag6
(g10
S'\xd7\xa3p=\n\xd7\xd3?'
p424
tp425
Rp426
ag6
(g10
S'\xf6(\\\x8f\xc2\xf5\xd8?'
p427
tp428
Rp429
ag6
(g10
S'R\xb8\x1e\x85\xebQ\xd8?'
p430
tp431
Rp432
ag6
(g10
S'\xd7\xa3p=\n\xd7\xd3?'
p433
tp434
Rp435
ag6
(g10
S'\xf6(\\\x8f\xc2\xf5\xd8?'
p436
tp437
Rp438
aa(lp439
(lp440
S'entropy'
p441
aF0.8626903632435095
aI12
aI10
aI11
aa(lp442
g441
aF0.489490361114548
aI24
aI1
aI10
aa(lp443
g441
aF0.489490361114548
aI19
aI1
aI6
aa(lp444
g441
aF0.8626903632435095
aI12
aI10
aI11
aa(lp445
g441
aF0.489490361114548
aI24
aI1
aI10
aa(lp446
g441
aF0.489490361114548
aI19
aI1
aI6
aa(lp447
g441
aF0.8626903632435095
aI12
aI10
aI11
aa(lp448
g441
aF0.489490361114548
aI24
aI1
aI10
aa(lp449
g441
aF0.489490361114548
aI19
aI1
aI6
aa(lp450
g441
aF0.8626903632435095
aI12
aI10
aI11
aa(lp451
g441
aF0.489490361114548
aI24
aI1
aI10
aa(lp452
g441
aF0.489490361114548
aI19
aI1
aI6
aa(lp453
g441
aF0.8626903632435095
aI12
aI10
aI11
aa(lp454
g441
aF0.489490361114548
aI24
aI1
aI10
aa(lp455
g441
aF0.489490361114548
aI19
aI1
aI6
aa(lp456
g441
aF0.8626903632435095
aI12
aI10
aI11
aa(lp457
g441
aF0.489490361114548
aI24
aI1
aI10
aa(lp458
g441
aF0.489490361114548
aI19
aI1
aI6
aa(lp459
g441
aF0.8626903632435095
aI12
aI10
aI11
aa(lp460
g441
aF0.489490361114548
aI24
aI1
aI10
aa(lp461
g441
aF0.489490361114548
aI19
aI1
aI6
aa(lp462
g441
aF0.8626903632435095
aI12
aI10
aI11
aa(lp463
g441
aF0.489490361114548
aI24
aI1
aI10
aa(lp464
g441
aF0.489490361114548
aI19
aI1
aI6
aa(lp465
g441
aF0.8626903632435095
aI12
aI10
aI11
aa(lp466
g441
aF0.489490361114548
aI24
aI1
aI10
aa(lp467
g441
aF0.489490361114548
aI19
aI1
aI6
aa(lp468
g441
aF0.8626903632435095
aI12
aI10
aI11
aa(lp469
g441
aF0.489490361114548
aI24
aI1
aI10
aa(lp470
g441
aF0.489490361114548
aI19
aI1
aI6
aa(lp471
g441
aF0.8626903632435095
aI12
aI10
aI11
aa(lp472
g441
aF0.489490361114548
aI24
aI1
aI10
aa(lp473
g441
aF0.489490361114548
aI19
aI1
aI6
aa(lp474
g441
aF0.8626903632435095
aI12
aI10
aI11
aa(lp475
g441
aF0.489490361114548
aI24
aI1
aI10
aa(lp476
g441
aF0.489490361114548
aI19
aI1
aI6
aa(lp477
g441
aF0.8626903632435095
aI12
aI10
aI11
aa(lp478
g441
aF0.489490361114548
aI24
aI1
aI10
aa(lp479
g441
aF0.489490361114548
aI19
aI1
aI6
aa(lp480
g441
aF0.8626903632435095
aI12
aI10
aI11
aa(lp481
g441
aF0.489490361114548
aI24
aI1
aI10
aa(lp482
g441
aF0.489490361114548
aI19
aI1
aI6
aa(lp483
g441
aF0.8626903632435095
aI12
aI10
aI11
aa(lp484
g441
aF0.489490361114548
aI24
aI1
aI10
aa(lp485
g441
aF0.489490361114548
aI19
aI1
aI6
aa(lp486
g441
aF0.8626903632435095
aI12
aI10
aI11
aa(lp487
g441
aF0.489490361114548
aI24
aI1
aI10
aa(lp488
g441
aF0.489490361114548
aI19
aI1
aI6
aa(lp489
g441
aF0.8626903632435095
aI12
aI10
aI11
aa(lp490
g441
aF0.489490361114548
aI24
aI1
aI10
aa(lp491
g441
aF0.489490361114548
aI19
aI1
aI6
aa(lp492
g441
aF0.8626903632435095
aI12
aI10
aI11
aa(lp493
g441
aF0.489490361114548
aI24
aI1
aI10
aa(lp494
g441
aF0.489490361114548
aI19
aI1
aI6
aa(lp495
g441
aF0.8626903632435095
aI12
aI10
aI11
aa(lp496
g441
aF0.489490361114548
aI24
aI1
aI10
aa(lp497
g441
aF0.489490361114548
aI19
aI1
aI6
aa(lp498
g441
aF0.8626903632435095
aI12
aI10
aI11
aa(lp499
g441
aF0.489490361114548
aI24
aI1
aI10
aa(lp500
g441
aF0.489490361114548
aI19
aI1
aI6
aaaF1.568052053451538
asS'RF'
p501
(lp502
(lp503
g6
(g10
S'\x14\xaeG\xe1z\x14\xde?'
p504
tp505
Rp506
ag6
(g10
S'ffffff\xd6?'
p507
tp508
Rp509
ag6
(g10
S'R\xb8\x1e\x85\xebQ\xd8?'
p510
tp511
Rp512
ag6
(g10
S'\x14\xaeG\xe1z\x14\xde?'
p513
tp514
Rp515
ag6
(g10
S'ffffff\xd6?'
p516
tp517
Rp518
ag6
(g10
S'R\xb8\x1e\x85\xebQ\xd8?'
p519
tp520
Rp521
ag6
(g10
S'\x14\xaeG\xe1z\x14\xde?'
p522
tp523
Rp524
ag6
(g10
S'ffffff\xd6?'
p525
tp526
Rp527
ag6
(g10
S'R\xb8\x1e\x85\xebQ\xd8?'
p528
tp529
Rp530
ag6
(g10
S'\x14\xaeG\xe1z\x14\xde?'
p531
tp532
Rp533
ag6
(g10
S'ffffff\xd6?'
p534
tp535
Rp536
ag6
(g10
S'R\xb8\x1e\x85\xebQ\xd8?'
p537
tp538
Rp539
ag6
(g10
S'\x14\xaeG\xe1z\x14\xde?'
p540
tp541
Rp542
ag6
(g10
S'ffffff\xd6?'
p543
tp544
Rp545
ag6
(g10
S'R\xb8\x1e\x85\xebQ\xd8?'
p546
tp547
Rp548
ag6
(g10
S'\x14\xaeG\xe1z\x14\xde?'
p549
tp550
Rp551
ag6
(g10
S'ffffff\xd6?'
p552
tp553
Rp554
ag6
(g10
S'R\xb8\x1e\x85\xebQ\xd8?'
p555
tp556
Rp557
ag6
(g10
S'\x14\xaeG\xe1z\x14\xde?'
p558
tp559
Rp560
ag6
(g10
S'ffffff\xd6?'
p561
tp562
Rp563
ag6
(g10
S'R\xb8\x1e\x85\xebQ\xd8?'
p564
tp565
Rp566
ag6
(g10
S'\x14\xaeG\xe1z\x14\xde?'
p567
tp568
Rp569
ag6
(g10
S'ffffff\xd6?'
p570
tp571
Rp572
ag6
(g10
S'R\xb8\x1e\x85\xebQ\xd8?'
p573
tp574
Rp575
ag6
(g10
S'\x14\xaeG\xe1z\x14\xde?'
p576
tp577
Rp578
ag6
(g10
S'ffffff\xd6?'
p579
tp580
Rp581
ag6
(g10
S'R\xb8\x1e\x85\xebQ\xd8?'
p582
tp583
Rp584
ag6
(g10
S'\x14\xaeG\xe1z\x14\xde?'
p585
tp586
Rp587
ag6
(g10
S'ffffff\xd6?'
p588
tp589
Rp590
ag6
(g10
S'R\xb8\x1e\x85\xebQ\xd8?'
p591
tp592
Rp593
ag6
(g10
S'\x14\xaeG\xe1z\x14\xde?'
p594
tp595
Rp596
ag6
(g10
S'ffffff\xd6?'
p597
tp598
Rp599
ag6
(g10
S'R\xb8\x1e\x85\xebQ\xd8?'
p600
tp601
Rp602
ag6
(g10
S'\x14\xaeG\xe1z\x14\xde?'
p603
tp604
Rp605
ag6
(g10
S'ffffff\xd6?'
p606
tp607
Rp608
ag6
(g10
S'R\xb8\x1e\x85\xebQ\xd8?'
p609
tp610
Rp611
ag6
(g10
S'\x14\xaeG\xe1z\x14\xde?'
p612
tp613
Rp614
ag6
(g10
S'ffffff\xd6?'
p615
tp616
Rp617
ag6
(g10
S'R\xb8\x1e\x85\xebQ\xd8?'
p618
tp619
Rp620
ag6
(g10
S'\x14\xaeG\xe1z\x14\xde?'
p621
tp622
Rp623
ag6
(g10
S'ffffff\xd6?'
p624
tp625
Rp626
ag6
(g10
S'R\xb8\x1e\x85\xebQ\xd8?'
p627
tp628
Rp629
ag6
(g10
S'\x14\xaeG\xe1z\x14\xde?'
p630
tp631
Rp632
ag6
(g10
S'ffffff\xd6?'
p633
tp634
Rp635
ag6
(g10
S'R\xb8\x1e\x85\xebQ\xd8?'
p636
tp637
Rp638
ag6
(g10
S'\x14\xaeG\xe1z\x14\xde?'
p639
tp640
Rp641
ag6
(g10
S'ffffff\xd6?'
p642
tp643
Rp644
ag6
(g10
S'R\xb8\x1e\x85\xebQ\xd8?'
p645
tp646
Rp647
ag6
(g10
S'\x14\xaeG\xe1z\x14\xde?'
p648
tp649
Rp650
ag6
(g10
S'ffffff\xd6?'
p651
tp652
Rp653
ag6
(g10
S'R\xb8\x1e\x85\xebQ\xd8?'
p654
tp655
Rp656
ag6
(g10
S'\x14\xaeG\xe1z\x14\xde?'
p657
tp658
Rp659
ag6
(g10
S'ffffff\xd6?'
p660
tp661
Rp662
ag6
(g10
S'R\xb8\x1e\x85\xebQ\xd8?'
p663
tp664
Rp665
ag6
(g10
S'\x14\xaeG\xe1z\x14\xde?'
p666
tp667
Rp668
ag6
(g10
S'ffffff\xd6?'
p669
tp670
Rp671
ag6
(g10
S'R\xb8\x1e\x85\xebQ\xd8?'
p672
tp673
Rp674
ag6
(g10
S'\x14\xaeG\xe1z\x14\xde?'
p675
tp676
Rp677
ag6
(g10
S'ffffff\xd6?'
p678
tp679
Rp680
ag6
(g10
S'R\xb8\x1e\x85\xebQ\xd8?'
p681
tp682
Rp683
aa(lp684
(lp685
S'gini'
p686
aF0.6864336754504866
aI22
aI21
aI63
aa(lp687
g441
aF0.8626903632435095
aI9
aI3
aI66
aa(lp688
g686
aF0.489490361114548
aI7
aI3
aI91
aa(lp689
g686
aF0.6864336754504866
aI22
aI21
aI63
aa(lp690
g441
aF0.8626903632435095
aI9
aI3
aI66
aa(lp691
g686
aF0.489490361114548
aI7
aI3
aI91
aa(lp692
g686
aF0.6864336754504866
aI22
aI21
aI63
aa(lp693
g441
aF0.8626903632435095
aI9
aI3
aI66
aa(lp694
g686
aF0.489490361114548
aI7
aI3
aI91
aa(lp695
g686
aF0.6864336754504866
aI22
aI21
aI63
aa(lp696
g441
aF0.8626903632435095
aI9
aI3
aI66
aa(lp697
g686
aF0.489490361114548
aI7
aI3
aI91
aa(lp698
g686
aF0.6864336754504866
aI22
aI21
aI63
aa(lp699
g441
aF0.8626903632435095
aI9
aI3
aI66
aa(lp700
g686
aF0.489490361114548
aI7
aI3
aI91
aa(lp701
g686
aF0.6864336754504866
aI22
aI21
aI63
aa(lp702
g441
aF0.8626903632435095
aI9
aI3
aI66
aa(lp703
g686
aF0.489490361114548
aI7
aI3
aI91
aa(lp704
g686
aF0.6864336754504866
aI22
aI21
aI63
aa(lp705
g441
aF0.8626903632435095
aI9
aI3
aI66
aa(lp706
g686
aF0.489490361114548
aI7
aI3
aI91
aa(lp707
g686
aF0.6864336754504866
aI22
aI21
aI63
aa(lp708
g441
aF0.8626903632435095
aI9
aI3
aI66
aa(lp709
g686
aF0.489490361114548
aI7
aI3
aI91
aa(lp710
g686
aF0.6864336754504866
aI22
aI21
aI63
aa(lp711
g441
aF0.8626903632435095
aI9
aI3
aI66
aa(lp712
g686
aF0.489490361114548
aI7
aI3
aI91
aa(lp713
g686
aF0.6864336754504866
aI22
aI21
aI63
aa(lp714
g441
aF0.8626903632435095
aI9
aI3
aI66
aa(lp715
g686
aF0.489490361114548
aI7
aI3
aI91
aa(lp716
g686
aF0.6864336754504866
aI22
aI21
aI63
aa(lp717
g441
aF0.8626903632435095
aI9
aI3
aI66
aa(lp718
g686
aF0.489490361114548
aI7
aI3
aI91
aa(lp719
g686
aF0.6864336754504866
aI22
aI21
aI63
aa(lp720
g441
aF0.8626903632435095
aI9
aI3
aI66
aa(lp721
g686
aF0.489490361114548
aI7
aI3
aI91
aa(lp722
g686
aF0.6864336754504866
aI22
aI21
aI63
aa(lp723
g441
aF0.8626903632435095
aI9
aI3
aI66
aa(lp724
g686
aF0.489490361114548
aI7
aI3
aI91
aa(lp725
g686
aF0.6864336754504866
aI22
aI21
aI63
aa(lp726
g441
aF0.8626903632435095
aI9
aI3
aI66
aa(lp727
g686
aF0.489490361114548
aI7
aI3
aI91
aa(lp728
g686
aF0.6864336754504866
aI22
aI21
aI63
aa(lp729
g441
aF0.8626903632435095
aI9
aI3
aI66
aa(lp730
g686
aF0.489490361114548
aI7
aI3
aI91
aa(lp731
g686
aF0.6864336754504866
aI22
aI21
aI63
aa(lp732
g441
aF0.8626903632435095
aI9
aI3
aI66
aa(lp733
g686
aF0.489490361114548
aI7
aI3
aI91
aa(lp734
g686
aF0.6864336754504866
aI22
aI21
aI63
aa(lp735
g441
aF0.8626903632435095
aI9
aI3
aI66
aa(lp736
g686
aF0.489490361114548
aI7
aI3
aI91
aa(lp737
g686
aF0.6864336754504866
aI22
aI21
aI63
aa(lp738
g441
aF0.8626903632435095
aI9
aI3
aI66
aa(lp739
g686
aF0.489490361114548
aI7
aI3
aI91
aa(lp740
g686
aF0.6864336754504866
aI22
aI21
aI63
aa(lp741
g441
aF0.8626903632435095
aI9
aI3
aI66
aa(lp742
g686
aF0.489490361114548
aI7
aI3
aI91
aa(lp743
g686
aF0.6864336754504866
aI22
aI21
aI63
aa(lp744
g441
aF0.8626903632435095
aI9
aI3
aI66
aa(lp745
g686
aF0.489490361114548
aI7
aI3
aI91
aaaF149.1779339313507
asS'SVM'
p746
(lp747
(lp748
g6
(g10
S'ffffff\xd6?'
p749
tp750
Rp751
ag6
(g10
S'\x85\xebQ\xb8\x1e\x85\xdb?'
p752
tp753
Rp754
ag6
(g10
S'\x85\xebQ\xb8\x1e\x85\xdb?'
p755
tp756
Rp757
ag6
(g10
S'ffffff\xd6?'
p758
tp759
Rp760
ag6
(g10
S'\xb8\x1e\x85\xebQ\xb8\xde?'
p761
tp762
Rp763
ag6
(g10
S'ffffff\xd6?'
p764
tp765
Rp766
ag6
(g10
S'ffffff\xd6?'
p767
tp768
Rp769
ag6
(g10
S'\xb8\x1e\x85\xebQ\xb8\xde?'
p770
tp771
Rp772
ag6
(g10
S'ffffff\xd6?'
p773
tp774
Rp775
ag6
(g10
S'ffffff\xd6?'
p776
tp777
Rp778
ag6
(g10
S'\xb8\x1e\x85\xebQ\xb8\xde?'
p779
tp780
Rp781
ag6
(g10
S'ffffff\xd6?'
p782
tp783
Rp784
ag6
(g10
S'ffffff\xd6?'
p785
tp786
Rp787
ag6
(g10
S'\xb8\x1e\x85\xebQ\xb8\xde?'
p788
tp789
Rp790
ag6
(g10
S'ffffff\xd6?'
p791
tp792
Rp793
ag6
(g10
S'ffffff\xd6?'
p794
tp795
Rp796
ag6
(g10
S'\xb8\x1e\x85\xebQ\xb8\xde?'
p797
tp798
Rp799
ag6
(g10
S'ffffff\xd6?'
p800
tp801
Rp802
ag6
(g10
S'ffffff\xd6?'
p803
tp804
Rp805
ag6
(g10
S'\xb8\x1e\x85\xebQ\xb8\xde?'
p806
tp807
Rp808
ag6
(g10
S'ffffff\xd6?'
p809
tp810
Rp811
ag6
(g10
S'ffffff\xd6?'
p812
tp813
Rp814
ag6
(g10
S'\xb8\x1e\x85\xebQ\xb8\xde?'
p815
tp816
Rp817
ag6
(g10
S'ffffff\xd6?'
p818
tp819
Rp820
ag6
(g10
S'ffffff\xd6?'
p821
tp822
Rp823
ag6
(g10
S'\xb8\x1e\x85\xebQ\xb8\xde?'
p824
tp825
Rp826
ag6
(g10
S'ffffff\xd6?'
p827
tp828
Rp829
ag6
(g10
S'ffffff\xd6?'
p830
tp831
Rp832
ag6
(g10
S'\xb8\x1e\x85\xebQ\xb8\xde?'
p833
tp834
Rp835
ag6
(g10
S'ffffff\xd6?'
p836
tp837
Rp838
ag6
(g10
S'ffffff\xd6?'
p839
tp840
Rp841
ag6
(g10
S'\xb8\x1e\x85\xebQ\xb8\xde?'
p842
tp843
Rp844
ag6
(g10
S'ffffff\xd6?'
p845
tp846
Rp847
ag6
(g10
S'ffffff\xd6?'
p848
tp849
Rp850
ag6
(g10
S'\xb8\x1e\x85\xebQ\xb8\xde?'
p851
tp852
Rp853
ag6
(g10
S'ffffff\xd6?'
p854
tp855
Rp856
ag6
(g10
S'ffffff\xd6?'
p857
tp858
Rp859
ag6
(g10
S'\xb8\x1e\x85\xebQ\xb8\xde?'
p860
tp861
Rp862
ag6
(g10
S'ffffff\xd6?'
p863
tp864
Rp865
ag6
(g10
S'ffffff\xd6?'
p866
tp867
Rp868
ag6
(g10
S'\xb8\x1e\x85\xebQ\xb8\xde?'
p869
tp870
Rp871
ag6
(g10
S'ffffff\xd6?'
p872
tp873
Rp874
ag6
(g10
S'ffffff\xd6?'
p875
tp876
Rp877
ag6
(g10
S'\xb8\x1e\x85\xebQ\xb8\xde?'
p878
tp879
Rp880
ag6
(g10
S'ffffff\xd6?'
p881
tp882
Rp883
ag6
(g10
S'ffffff\xd6?'
p884
tp885
Rp886
ag6
(g10
S'\xb8\x1e\x85\xebQ\xb8\xde?'
p887
tp888
Rp889
ag6
(g10
S'ffffff\xd6?'
p890
tp891
Rp892
ag6
(g10
S'ffffff\xd6?'
p893
tp894
Rp895
ag6
(g10
S'\xb8\x1e\x85\xebQ\xb8\xde?'
p896
tp897
Rp898
ag6
(g10
S'ffffff\xd6?'
p899
tp900
Rp901
ag6
(g10
S'ffffff\xd6?'
p902
tp903
Rp904
ag6
(g10
S'\xb8\x1e\x85\xebQ\xb8\xde?'
p905
tp906
Rp907
ag6
(g10
S'ffffff\xd6?'
p908
tp909
Rp910
ag6
(g10
S'ffffff\xd6?'
p911
tp912
Rp913
ag6
(g10
S'\xb8\x1e\x85\xebQ\xb8\xde?'
p914
tp915
Rp916
ag6
(g10
S'ffffff\xd6?'
p917
tp918
Rp919
ag6
(g10
S'ffffff\xd6?'
p920
tp921
Rp922
ag6
(g10
S'\xb8\x1e\x85\xebQ\xb8\xde?'
p923
tp924
Rp925
ag6
(g10
S'ffffff\xd6?'
p926
tp927
Rp928
aa(lp929
(lp930
I23
aS'sigmoid'
p931
aF0.9112847118503352
aF0.1275309847301982
aa(lp932
I84
ag931
aF0.8521885935278827
aF0.489490361114548
aa(lp933
I84
ag931
aF0.8521885935278827
aF0.489490361114548
aa(lp934
I23
ag931
aF0.9112847118503352
aF0.1275309847301982
aa(lp935
I59
ag931
aF0.9112847118503352
aF0.1275309847301982
aa(lp936
I23
ag931
aF0.9112847118503352
aF0.1275309847301982
aa(lp937
I23
ag931
aF0.9112847118503352
aF0.1275309847301982
aa(lp938
I59
ag931
aF0.9112847118503352
aF0.1275309847301982
aa(lp939
I23
ag931
aF0.9112847118503352
aF0.1275309847301982
aa(lp940
I23
ag931
aF0.9112847118503352
aF0.1275309847301982
aa(lp941
I59
ag931
aF0.9112847118503352
aF0.1275309847301982
aa(lp942
I23
ag931
aF0.9112847118503352
aF0.1275309847301982
aa(lp943
I23
ag931
aF0.9112847118503352
aF0.1275309847301982
aa(lp944
I59
ag931
aF0.9112847118503352
aF0.1275309847301982
aa(lp945
I23
ag931
aF0.9112847118503352
aF0.1275309847301982
aa(lp946
I23
ag931
aF0.9112847118503352
aF0.1275309847301982
aa(lp947
I59
ag931
aF0.9112847118503352
aF0.1275309847301982
aa(lp948
I23
ag931
aF0.9112847118503352
aF0.1275309847301982
aa(lp949
I23
ag931
aF0.9112847118503352
aF0.1275309847301982
aa(lp950
I59
ag931
aF0.9112847118503352
aF0.1275309847301982
aa(lp951
I23
ag931
aF0.9112847118503352
aF0.1275309847301982
aa(lp952
I23
ag931
aF0.9112847118503352
aF0.1275309847301982
aa(lp953
I59
ag931
aF0.9112847118503352
aF0.1275309847301982
aa(lp954
I23
ag931
aF0.9112847118503352
aF0.1275309847301982
aa(lp955
I23
ag931
aF0.9112847118503352
aF0.1275309847301982
aa(lp956
I59
ag931
aF0.9112847118503352
aF0.1275309847301982
aa(lp957
I23
ag931
aF0.9112847118503352
aF0.1275309847301982
aa(lp958
I23
ag931
aF0.9112847118503352
aF0.1275309847301982
aa(lp959
I59
ag931
aF0.9112847118503352
aF0.1275309847301982
aa(lp960
I23
ag931
aF0.9112847118503352
aF0.1275309847301982
aa(lp961
I23
ag931
aF0.9112847118503352
aF0.1275309847301982
aa(lp962
I59
ag931
aF0.9112847118503352
aF0.1275309847301982
aa(lp963
I23
ag931
aF0.9112847118503352
aF0.1275309847301982
aa(lp964
I23
ag931
aF0.9112847118503352
aF0.1275309847301982
aa(lp965
I59
ag931
aF0.9112847118503352
aF0.1275309847301982
aa(lp966
I23
ag931
aF0.9112847118503352
aF0.1275309847301982
aa(lp967
I23
ag931
aF0.9112847118503352
aF0.1275309847301982
aa(lp968
I59
ag931
aF0.9112847118503352
aF0.1275309847301982
aa(lp969
I23
ag931
aF0.9112847118503352
aF0.1275309847301982
aa(lp970
I23
ag931
aF0.9112847118503352
aF0.1275309847301982
aa(lp971
I59
ag931
aF0.9112847118503352
aF0.1275309847301982
aa(lp972
I23
ag931
aF0.9112847118503352
aF0.1275309847301982
aa(lp973
I23
ag931
aF0.9112847118503352
aF0.1275309847301982
aa(lp974
I59
ag931
aF0.9112847118503352
aF0.1275309847301982
aa(lp975
I23
ag931
aF0.9112847118503352
aF0.1275309847301982
aa(lp976
I23
ag931
aF0.9112847118503352
aF0.1275309847301982
aa(lp977
I59
ag931
aF0.9112847118503352
aF0.1275309847301982
aa(lp978
I23
ag931
aF0.9112847118503352
aF0.1275309847301982
aa(lp979
I23
ag931
aF0.9112847118503352
aF0.1275309847301982
aa(lp980
I59
ag931
aF0.9112847118503352
aF0.1275309847301982
aa(lp981
I23
ag931
aF0.9112847118503352
aF0.1275309847301982
aa(lp982
I23
ag931
aF0.9112847118503352
aF0.1275309847301982
aa(lp983
I59
ag931
aF0.9112847118503352
aF0.1275309847301982
aa(lp984
I23
ag931
aF0.9112847118503352
aF0.1275309847301982
aa(lp985
I23
ag931
aF0.9112847118503352
aF0.1275309847301982
aa(lp986
I59
ag931
aF0.9112847118503352
aF0.1275309847301982
aa(lp987
I23
ag931
aF0.9112847118503352
aF0.1275309847301982
aa(lp988
I23
ag931
aF0.9112847118503352
aF0.1275309847301982
aa(lp989
I59
ag931
aF0.9112847118503352
aF0.1275309847301982
aa(lp990
I23
ag931
aF0.9112847118503352
aF0.1275309847301982
aaaF3.9091920852661133
ass.