(dp0
S'f1'
p1
(dp2
S'KNN'
p3
(lp4
(lp5
cnumpy.core.multiarray
scalar
p6
(cnumpy
dtype
p7
(S'f8'
p8
I0
I1
tp9
Rp10
(I3
S'<'
p11
NNNI-1
I-1
I0
tp12
bS'\n\xd7\xa3p=\n\xc7?'
p13
tp14
Rp15
ag6
(g10
S'\xd7\xa3p=\n\xd7\xd3?'
p16
tp17
Rp18
ag6
(g10
S'{\x14\xaeG\xe1z\xc4?'
p19
tp20
Rp21
ag6
(g10
S'\xa4p=\n\xd7\xa3\xd0?'
p22
tp23
Rp24
ag6
(g10
S'{\x14\xaeG\xe1z\xc4?'
p25
tp26
Rp27
ag6
(g10
S'{\x14\xaeG\xe1z\xc4?'
p28
tp29
Rp30
ag6
(g10
S'\n\xd7\xa3p=\n\xc7?'
p31
tp32
Rp33
ag6
(g10
S'\n\xd7\xa3p=\n\xc7?'
p34
tp35
Rp36
ag6
(g10
S'\xc3\xf5(\\\x8f\xc2\xd5?'
p37
tp38
Rp39
ag6
(g10
S'{\x14\xaeG\xe1z\xd4?'
p40
tp41
Rp42
ag6
(g10
S'{\x14\xaeG\xe1z\xd4?'
p43
tp44
Rp45
ag6
(g10
S'{\x14\xaeG\xe1z\xc4?'
p46
tp47
Rp48
ag6
(g10
S'\n\xd7\xa3p=\n\xc7?'
p49
tp50
Rp51
ag6
(g10
S'\xecQ\xb8\x1e\x85\xeb\xd1?'
p52
tp53
Rp54
ag6
(g10
S'{\x14\xaeG\xe1z\xc4?'
p55
tp56
Rp57
ag6
(g10
S'\n\xd7\xa3p=\n\xc7?'
p58
tp59
Rp60
ag6
(g10
S'333333\xd3?'
p61
tp62
Rp63
ag6
(g10
S'\n\xd7\xa3p=\n\xc7?'
p64
tp65
Rp66
ag6
(g10
S'\n\xd7\xa3p=\n\xc7?'
p67
tp68
Rp69
ag6
(g10
S'\n\xd7\xa3p=\n\xc7?'
p70
tp71
Rp72
ag6
(g10
S'\n\xd7\xa3p=\n\xc7?'
p73
tp74
Rp75
ag6
(g10
S'\xecQ\xb8\x1e\x85\xeb\xd1?'
p76
tp77
Rp78
ag6
(g10
S'\xf6(\\\x8f\xc2\xf5\xd8?'
p79
tp80
Rp81
ag6
(g10
S'\xd7\xa3p=\n\xd7\xd3?'
p82
tp83
Rp84
ag6
(g10
S'R\xb8\x1e\x85\xebQ\xc8?'
p85
tp86
Rp87
ag6
(g10
S'\n\xd7\xa3p=\n\xc7?'
p88
tp89
Rp90
ag6
(g10
S'\n\xd7\xa3p=\n\xc7?'
p91
tp92
Rp93
ag6
(g10
S'\x1f\x85\xebQ\xb8\x1e\xd5?'
p94
tp95
Rp96
ag6
(g10
S'\xd7\xa3p=\n\xd7\xd3?'
p97
tp98
Rp99
ag6
(g10
S'333333\xd3?'
p100
tp101
Rp102
ag6
(g10
S'\n\xd7\xa3p=\n\xc7?'
p103
tp104
Rp105
ag6
(g10
S'\x1f\x85\xebQ\xb8\x1e\xd5?'
p106
tp107
Rp108
ag6
(g10
S'\n\xd7\xa3p=\n\xc7?'
p109
tp110
Rp111
ag6
(g10
S'\n\xd7\xa3p=\n\xc7?'
p112
tp113
Rp114
ag6
(g10
S'\xb8\x1e\x85\xebQ\xb8\xce?'
p115
tp116
Rp117
ag6
(g10
S'\n\xd7\xa3p=\n\xc7?'
p118
tp119
Rp120
ag6
(g10
S'\n\xd7\xa3p=\n\xc7?'
p121
tp122
Rp123
ag6
(g10
S'333333\xd3?'
p124
tp125
Rp126
ag6
(g10
S'{\x14\xaeG\xe1z\xd4?'
p127
tp128
Rp129
ag6
(g10
S'\n\xd7\xa3p=\n\xc7?'
p130
tp131
Rp132
ag6
(g10
S'\xa4p=\n\xd7\xa3\xd0?'
p133
tp134
Rp135
ag6
(g10
S'\n\xd7\xa3p=\n\xc7?'
p136
tp137
Rp138
ag6
(g10
S'333333\xd3?'
p139
tp140
Rp141
ag6
(g10
S'{\x14\xaeG\xe1z\xd4?'
p142
tp143
Rp144
ag6
(g10
S'\n\xd7\xa3p=\n\xc7?'
p145
tp146
Rp147
ag6
(g10
S'{\x14\xaeG\xe1z\xd4?'
p148
tp149
Rp150
ag6
(g10
S'\n\xd7\xa3p=\n\xc7?'
p151
tp152
Rp153
ag6
(g10
S'333333\xd3?'
p154
tp155
Rp156
ag6
(g10
S'333333\xd3?'
p157
tp158
Rp159
ag6
(g10
S'333333\xd3?'
p160
tp161
Rp162
ag6
(g10
S'\n\xd7\xa3p=\n\xc7?'
p163
tp164
Rp165
ag6
(g10
S'333333\xd3?'
p166
tp167
Rp168
ag6
(g10
S'\xd7\xa3p=\n\xd7\xd3?'
p169
tp170
Rp171
ag6
(g10
S'\n\xd7\xa3p=\n\xc7?'
p172
tp173
Rp174
ag6
(g10
S'333333\xd3?'
p175
tp176
Rp177
ag6
(g10
S'\n\xd7\xa3p=\n\xc7?'
p178
tp179
Rp180
ag6
(g10
S'\n\xd7\xa3p=\n\xc7?'
p181
tp182
Rp183
ag6
(g10
S'{\x14\xaeG\xe1z\xd4?'
p184
tp185
Rp186
ag6
(g10
S'R\xb8\x1e\x85\xebQ\xc8?'
p187
tp188
Rp189
ag6
(g10
S'\xb8\x1e\x85\xebQ\xb8\xce?'
p190
tp191
Rp192
aa(lp193
(lp194
I3
aS'distance'
p195
aa(lp196
I8
ag195
aa(lp197
I3
aS'uniform'
p198
aa(lp199
I6
ag195
aa(lp200
I3
ag198
aa(lp201
I3
ag198
aa(lp202
I2
ag195
aa(lp203
I2
ag195
aa(lp204
I7
ag198
aa(lp205
I9
ag195
aa(lp206
I9
ag195
aa(lp207
I3
ag198
aa(lp208
I2
ag195
aa(lp209
I10
ag195
aa(lp210
I3
ag198
aa(lp211
I3
ag195
aa(lp212
I7
ag195
aa(lp213
I2
ag195
aa(lp214
I3
ag195
aa(lp215
I3
ag195
aa(lp216
I2
ag195
aa(lp217
I10
ag195
aa(lp218
I8
ag198
aa(lp219
I8
ag195
aa(lp220
I4
ag195
aa(lp221
I2
ag195
aa(lp222
I3
ag195
aa(lp223
I9
ag198
aa(lp224
I8
ag195
aa(lp225
I5
ag198
aa(lp226
I3
ag195
aa(lp227
I9
ag198
aa(lp228
I3
ag195
aa(lp229
I3
ag195
aa(lp230
I5
ag195
aa(lp231
I2
ag195
aa(lp232
I3
ag195
aa(lp233
I5
ag198
aa(lp234
I9
ag195
aa(lp235
I2
ag195
aa(lp236
I6
ag195
aa(lp237
I2
ag195
aa(lp238
I5
ag198
aa(lp239
I9
ag195
aa(lp240
I3
ag195
aa(lp241
I9
ag195
aa(lp242
I2
ag195
aa(lp243
I7
ag195
aa(lp244
I7
ag195
aa(lp245
I5
ag198
aa(lp246
I3
ag195
aa(lp247
I5
ag198
aa(lp248
I8
ag195
aa(lp249
I3
ag195
aa(lp250
I7
ag195
aa(lp251
I3
ag195
aa(lp252
I2
ag195
aa(lp253
I9
ag195
aa(lp254
I4
ag195
aa(lp255
I5
ag195
aaaF1.929731845855713
asS'DTC'
p256
(lp257
(lp258
g6
(g10
S'\x00\x00\x00\x00\x00\x00\xd0?'
p259
tp260
Rp261
ag6
(g10
S'\xecQ\xb8\x1e\x85\xeb\xd1?'
p262
tp263
Rp264
ag6
(g10
S'\x9a\x99\x99\x99\x99\x99\xc9?'
p265
tp266
Rp267
ag6
(g10
S')\\\x8f\xc2\xf5(\xcc?'
p268
tp269
Rp270
ag6
(g10
S'\n\xd7\xa3p=\n\xd7?'
p271
tp272
Rp273
ag6
(g10
S'R\xb8\x1e\x85\xebQ\xd8?'
p274
tp275
Rp276
ag6
(g10
S'{\x14\xaeG\xe1z\xd4?'
p277
tp278
Rp279
ag6
(g10
S'H\xe1z\x14\xaeG\xd1?'
p280
tp281
Rp282
ag6
(g10
S'{\x14\xaeG\xe1z\xd4?'
p283
tp284
Rp285
ag6
(g10
S'\n\xd7\xa3p=\n\xc7?'
p286
tp287
Rp288
ag6
(g10
S'\xd7\xa3p=\n\xd7\xd3?'
p289
tp290
Rp291
ag6
(g10
S'\xe1z\x14\xaeG\xe1\xda?'
p292
tp293
Rp294
ag6
(g10
S'ffffff\xd6?'
p295
tp296
Rp297
ag6
(g10
S'\xa4p=\n\xd7\xa3\xd0?'
p298
tp299
Rp300
ag6
(g10
S'\n\xd7\xa3p=\n\xc7?'
p301
tp302
Rp303
ag6
(g10
S'{\x14\xaeG\xe1z\xd4?'
p304
tp305
Rp306
ag6
(g10
S'\x00\x00\x00\x00\x00\x00\xd0?'
p307
tp308
Rp309
ag6
(g10
S'{\x14\xaeG\xe1z\xd4?'
p310
tp311
Rp312
ag6
(g10
S'\x8f\xc2\xf5(\\\x8f\xd2?'
p313
tp314
Rp315
ag6
(g10
S'\xe1z\x14\xaeG\xe1\xda?'
p316
tp317
Rp318
ag6
(g10
S'\xc3\xf5(\\\x8f\xc2\xc5?'
p319
tp320
Rp321
ag6
(g10
S'H\xe1z\x14\xaeG\xd1?'
p322
tp323
Rp324
ag6
(g10
S'\xc3\xf5(\\\x8f\xc2\xd5?'
p325
tp326
Rp327
ag6
(g10
S'\xc3\xf5(\\\x8f\xc2\xd5?'
p328
tp329
Rp330
ag6
(g10
S'\x1f\x85\xebQ\xb8\x1e\xd5?'
p331
tp332
Rp333
ag6
(g10
S'333333\xd3?'
p334
tp335
Rp336
ag6
(g10
S'\x1f\x85\xebQ\xb8\x1e\xd5?'
p337
tp338
Rp339
ag6
(g10
S'{\x14\xaeG\xe1z\xd4?'
p340
tp341
Rp342
ag6
(g10
S'\xe1z\x14\xaeG\xe1\xca?'
p343
tp344
Rp345
ag6
(g10
S'{\x14\xaeG\xe1z\xd4?'
p346
tp347
Rp348
ag6
(g10
S'\xf6(\\\x8f\xc2\xf5\xd8?'
p349
tp350
Rp351
ag6
(g10
S'\x1f\x85\xebQ\xb8\x1e\xd5?'
p352
tp353
Rp354
ag6
(g10
S'{\x14\xaeG\xe1z\xd4?'
p355
tp356
Rp357
ag6
(g10
S'R\xb8\x1e\x85\xebQ\xd8?'
p358
tp359
Rp360
ag6
(g10
S'\xd7\xa3p=\n\xd7\xd3?'
p361
tp362
Rp363
ag6
(g10
S'\n\xd7\xa3p=\n\xc7?'
p364
tp365
Rp366
ag6
(g10
S'\x1f\x85\xebQ\xb8\x1e\xd5?'
p367
tp368
Rp369
ag6
(g10
S'{\x14\xaeG\xe1z\xd4?'
p370
tp371
Rp372
ag6
(g10
S'\x00\x00\x00\x00\x00\x00\xd0?'
p373
tp374
Rp375
ag6
(g10
S'R\xb8\x1e\x85\xebQ\xd8?'
p376
tp377
Rp378
ag6
(g10
S'\n\xd7\xa3p=\n\xd7?'
p379
tp380
Rp381
ag6
(g10
S'{\x14\xaeG\xe1z\xd4?'
p382
tp383
Rp384
ag6
(g10
S'{\x14\xaeG\xe1z\xd4?'
p385
tp386
Rp387
ag6
(g10
S'\xa4p=\n\xd7\xa3\xd0?'
p388
tp389
Rp390
ag6
(g10
S'{\x14\xaeG\xe1z\xd4?'
p391
tp392
Rp393
ag6
(g10
S'\xf6(\\\x8f\xc2\xf5\xd8?'
p394
tp395
Rp396
ag6
(g10
S'\n\xd7\xa3p=\n\xd7?'
p397
tp398
Rp399
ag6
(g10
S'333333\xd3?'
p400
tp401
Rp402
ag6
(g10
S'333333\xd3?'
p403
tp404
Rp405
ag6
(g10
S'R\xb8\x1e\x85\xebQ\xd8?'
p406
tp407
Rp408
ag6
(g10
S'{\x14\xaeG\xe1z\xd4?'
p409
tp410
Rp411
ag6
(g10
S'333333\xd3?'
p412
tp413
Rp414
ag6
(g10
S'\xa4p=\n\xd7\xa3\xc0?'
p415
tp416
Rp417
ag6
(g10
S'q=\n\xd7\xa3p\xcd?'
p418
tp419
Rp420
ag6
(g10
S'333333\xd3?'
p421
tp422
Rp423
ag6
(g10
S'\n\xd7\xa3p=\n\xd7?'
p424
tp425
Rp426
ag6
(g10
S'333333\xd3?'
p427
tp428
Rp429
ag6
(g10
S'\x8f\xc2\xf5(\\\x8f\xd2?'
p430
tp431
Rp432
ag6
(g10
S'R\xb8\x1e\x85\xebQ\xd8?'
p433
tp434
Rp435
ag6
(g10
S'\x9a\x99\x99\x99\x99\x99\xc9?'
p436
tp437
Rp438
aa(lp439
(lp440
S'gini'
p441
aF0.43529754424299383
aI15
aI4
aI20
aa(lp442
g441
aF0.8282274849704265
aI26
aI2
aI18
aa(lp443
g441
aF0.5747787828457024
aI24
aI5
aI7
aa(lp444
S'entropy'
p445
aF0.5646638965019802
aI11
aI6
aI17
aa(lp446
g441
aF0.7974027136641677
aI28
aI5
aI13
aa(lp447
g441
aF0.9271773332170032
aI7
aI11
aI3
aa(lp448
g441
aF0.6364937915667317
aI16
aI5
aI4
aa(lp449
g441
aF0.8546413926540405
aI19
aI5
aI6
aa(lp450
g441
aF0.2336433362537236
aI11
aI9
aI16
aa(lp451
g441
aF0.36151592783854924
aI5
aI1
aI11
aa(lp452
g441
aF0.48871815342631686
aI4
aI3
aI19
aa(lp453
g445
aF0.39830132984977606
aI30
aI18
aI15
aa(lp454
g441
aF0.8021518304970735
aI13
aI4
aI9
aa(lp455
g441
aF0.4961056318209389
aI22
aI16
aI1
aa(lp456
g445
aF0.7273800797800792
aI5
aI9
aI18
aa(lp457
g441
aF0.15843753122511495
aI13
aI8
aI2
aa(lp458
g445
aF0.2086546112927979
aI9
aI2
aI11
aa(lp459
g445
aF0.1930910861056162
aI8
aI7
aI2
aa(lp460
g441
aF0.5562682950387594
aI14
aI9
aI2
aa(lp461
g445
aF0.3513364448036256
aI6
aI11
aI3
aa(lp462
g441
aF0.37741328441489397
aI9
aI18
aI2
aa(lp463
g445
aF0.7353520317798308
aI2
aI8
aI8
aa(lp464
g445
aF0.9924668372928089
aI20
aI3
aI3
aa(lp465
g441
aF0.9219509946017287
aI25
aI7
aI18
aa(lp466
g441
aF0.24759011613915616
aI16
aI3
aI7
aa(lp467
g445
aF0.9891506833232356
aI5
aI7
aI17
aa(lp468
g441
aF0.7013880738608869
aI12
aI2
aI21
aa(lp469
g441
aF0.6904788156631826
aI20
aI6
aI11
aa(lp470
g441
aF0.29389102864074124
aI5
aI13
aI19
aa(lp471
g445
aF0.17695783730714879
aI28
aI20
aI2
aa(lp472
g445
aF0.2286383129681598
aI7
aI11
aI11
aa(lp473
g445
aF0.8419519387502474
aI5
aI4
aI7
aa(lp474
g441
aF0.7373038839307473
aI20
aI2
aI18
aa(lp475
g441
aF0.13173228023801456
aI18
aI5
aI17
aa(lp476
g445
aF0.460258529649042
aI21
aI8
aI20
aa(lp477
g445
aF0.7251784990433612
aI9
aI10
aI7
aa(lp478
g445
aF0.5022796610998864
aI2
aI11
aI21
aa(lp479
g441
aF0.31370600738294885
aI8
aI7
aI14
aa(lp480
g445
aF0.9292784880935597
aI3
aI4
aI15
aa(lp481
g441
aF0.13676686413107605
aI16
aI5
aI10
aa(lp482
g445
aF0.8816137887554051
aI28
aI5
aI2
aa(lp483
g441
aF0.26154227781401906
aI28
aI9
aI8
aa(lp484
g445
aF0.3065762645146928
aI12
aI1
aI13
aa(lp485
g441
aF0.9841972939723929
aI12
aI5
aI6
aa(lp486
g445
aF0.5854797301948812
aI19
aI12
aI21
aa(lp487
g445
aF0.21098127430598657
aI17
aI16
aI13
aa(lp488
g445
aF0.40957324327684663
aI21
aI14
aI15
aa(lp489
g441
aF0.3650962725335929
aI5
aI21
aI4
aa(lp490
g441
aF0.5452396327088781
aI26
aI13
aI2
aa(lp491
g445
aF0.12973007376522086
aI10
aI8
aI5
aa(lp492
g445
aF0.5461759846868661
aI29
aI4
aI20
aa(lp493
g445
aF0.45186822202299426
aI19
aI14
aI2
aa(lp494
g445
aF0.1641624736296173
aI8
aI11
aI19
aa(lp495
g445
aF0.8532717557047946
aI2
aI7
aI11
aa(lp496
g445
aF0.6453563684954218
aI30
aI14
aI3
aa(lp497
g445
aF0.17643884820115646
aI12
aI1
aI9
aa(lp498
g445
aF0.49114710997154987
aI4
aI11
aI18
aa(lp499
g441
aF0.8711632021661648
aI4
aI2
aI15
aa(lp500
g445
aF0.19959998522094596
aI29
aI15
aI21
aa(lp501
g445
aF0.17652292203303924
aI2
aI3
aI10
aaaF1.3259549140930176
asS'RF'
p502
(lp503
(lp504
g6
(g10
S'ffffff\xd6?'
p505
tp506
Rp507
ag6
(g10
S'\xaeG\xe1z\x14\xae\xd7?'
p508
tp509
Rp510
ag6
(g10
S'\xf6(\\\x8f\xc2\xf5\xd8?'
p511
tp512
Rp513
ag6
(g10
S'\xc3\xf5(\\\x8f\xc2\xd5?'
p514
tp515
Rp516
ag6
(g10
S'\x1f\x85\xebQ\xb8\x1e\xd5?'
p517
tp518
Rp519
ag6
(g10
S'\n\xd7\xa3p=\n\xd7?'
p520
tp521
Rp522
ag6
(g10
S'=\n\xd7\xa3p=\xda?'
p523
tp524
Rp525
ag6
(g10
S'\xc3\xf5(\\\x8f\xc2\xd5?'
p526
tp527
Rp528
ag6
(g10
S'ffffff\xd6?'
p529
tp530
Rp531
ag6
(g10
S'R\xb8\x1e\x85\xebQ\xd8?'
p532
tp533
Rp534
ag6
(g10
S'\n\xd7\xa3p=\n\xd7?'
p535
tp536
Rp537
ag6
(g10
S'\x1f\x85\xebQ\xb8\x1e\xd5?'
p538
tp539
Rp540
ag6
(g10
S'{\x14\xaeG\xe1z\xd4?'
p541
tp542
Rp543
ag6
(g10
S'R\xb8\x1e\x85\xebQ\xd8?'
p544
tp545
Rp546
ag6
(g10
S'\xaeG\xe1z\x14\xae\xd7?'
p547
tp548
Rp549
ag6
(g10
S'R\xb8\x1e\x85\xebQ\xd8?'
p550
tp551
Rp552
ag6
(g10
S'\xe1z\x14\xaeG\xe1\xda?'
p553
tp554
Rp555
ag6
(g10
S'\xd7\xa3p=\n\xd7\xd3?'
p556
tp557
Rp558
ag6
(g10
S'ffffff\xd6?'
p559
tp560
Rp561
ag6
(g10
S'\n\xd7\xa3p=\n\xd7?'
p562
tp563
Rp564
ag6
(g10
S'ffffff\xd6?'
p565
tp566
Rp567
ag6
(g10
S'ffffff\xd6?'
p568
tp569
Rp570
ag6
(g10
S'\xaeG\xe1z\x14\xae\xd7?'
p571
tp572
Rp573
ag6
(g10
S'\xaeG\xe1z\x14\xae\xd7?'
p574
tp575
Rp576
ag6
(g10
S'\xc3\xf5(\\\x8f\xc2\xd5?'
p577
tp578
Rp579
ag6
(g10
S'\x9a\x99\x99\x99\x99\x99\xd9?'
p580
tp581
Rp582
ag6
(g10
S'\x9a\x99\x99\x99\x99\x99\xd9?'
p583
tp584
Rp585
ag6
(g10
S'=\n\xd7\xa3p=\xda?'
p586
tp587
Rp588
ag6
(g10
S'R\xb8\x1e\x85\xebQ\xd8?'
p589
tp590
Rp591
ag6
(g10
S'R\xb8\x1e\x85\xebQ\xd8?'
p592
tp593
Rp594
ag6
(g10
S'R\xb8\x1e\x85\xebQ\xd8?'
p595
tp596
Rp597
ag6
(g10
S'333333\xd3?'
p598
tp599
Rp600
ag6
(g10
S'\xd7\xa3p=\n\xd7\xd3?'
p601
tp602
Rp603
ag6
(g10
S'\xe1z\x14\xaeG\xe1\xda?'
p604
tp605
Rp606
ag6
(g10
S'R\xb8\x1e\x85\xebQ\xd8?'
p607
tp608
Rp609
ag6
(g10
S'\x85\xebQ\xb8\x1e\x85\xdb?'
p610
tp611
Rp612
ag6
(g10
S'\x9a\x99\x99\x99\x99\x99\xd9?'
p613
tp614
Rp615
ag6
(g10
S'\n\xd7\xa3p=\n\xd7?'
p616
tp617
Rp618
ag6
(g10
S'R\xb8\x1e\x85\xebQ\xd8?'
p619
tp620
Rp621
ag6
(g10
S'{\x14\xaeG\xe1z\xd4?'
p622
tp623
Rp624
ag6
(g10
S')\\\x8f\xc2\xf5(\xdc?'
p625
tp626
Rp627
ag6
(g10
S'R\xb8\x1e\x85\xebQ\xd8?'
p628
tp629
Rp630
ag6
(g10
S'=\n\xd7\xa3p=\xda?'
p631
tp632
Rp633
ag6
(g10
S'\x1f\x85\xebQ\xb8\x1e\xd5?'
p634
tp635
Rp636
ag6
(g10
S'R\xb8\x1e\x85\xebQ\xd8?'
p637
tp638
Rp639
ag6
(g10
S'\xecQ\xb8\x1e\x85\xeb\xd1?'
p640
tp641
Rp642
ag6
(g10
S'=\n\xd7\xa3p=\xda?'
p643
tp644
Rp645
ag6
(g10
S'\xf6(\\\x8f\xc2\xf5\xd8?'
p646
tp647
Rp648
ag6
(g10
S'{\x14\xaeG\xe1z\xd4?'
p649
tp650
Rp651
ag6
(g10
S'\x9a\x99\x99\x99\x99\x99\xd9?'
p652
tp653
Rp654
ag6
(g10
S'\xf6(\\\x8f\xc2\xf5\xd8?'
p655
tp656
Rp657
ag6
(g10
S'=\n\xd7\xa3p=\xda?'
p658
tp659
Rp660
ag6
(g10
S'R\xb8\x1e\x85\xebQ\xd8?'
p661
tp662
Rp663
ag6
(g10
S'R\xb8\x1e\x85\xebQ\xd8?'
p664
tp665
Rp666
ag6
(g10
S'H\xe1z\x14\xaeG\xd1?'
p667
tp668
Rp669
ag6
(g10
S'\xe1z\x14\xaeG\xe1\xda?'
p670
tp671
Rp672
ag6
(g10
S'\xc3\xf5(\\\x8f\xc2\xd5?'
p673
tp674
Rp675
ag6
(g10
S'\x8f\xc2\xf5(\\\x8f\xd2?'
p676
tp677
Rp678
ag6
(g10
S'\x1f\x85\xebQ\xb8\x1e\xd5?'
p679
tp680
Rp681
ag6
(g10
S'R\xb8\x1e\x85\xebQ\xd8?'
p682
tp683
Rp684
aa(lp685
(lp686
g441
aF0.8400294342038076
aI12
aI2
aI70
aa(lp687
g445
aF0.6924719555796005
aI17
aI1
aI96
aa(lp688
g441
aF0.9743858486490445
aI28
aI12
aI27
aa(lp689
g441
aF0.5662130213723732
aI7
aI1
aI63
aa(lp690
g441
aF0.8095449601426592
aI5
aI1
aI68
aa(lp691
g441
aF0.8383238148742561
aI23
aI5
aI97
aa(lp692
g441
aF0.3441388402572805
aI6
aI6
aI68
aa(lp693
g441
aF0.4825071334866977
aI3
aI5
aI26
aa(lp694
g445
aF0.8342204249522127
aI10
aI6
aI43
aa(lp695
g445
aF0.31435590549727027
aI29
aI5
aI94
aa(lp696
g445
aF0.4096587692040896
aI2
aI1
aI95
aa(lp697
g445
aF0.9301429097818903
aI7
aI4
aI86
aa(lp698
g441
aF0.8321669882056524
aI4
aI1
aI72
aa(lp699
g445
aF0.47867732956433084
aI24
aI2
aI85
aa(lp700
g441
aF0.85701804184405
aI5
aI3
aI26
aa(lp701
g441
aF0.97762268301127
aI23
aI1
aI86
aa(lp702
g445
aF0.8180001035826306
aI2
aI14
aI62
aa(lp703
g445
aF0.3478394893699832
aI7
aI3
aI80
aa(lp704
g445
aF0.6541498529223898
aI24
aI7
aI12
aa(lp705
g445
aF0.9113515873110236
aI2
aI3
aI45
aa(lp706
g445
aF0.9067042216083062
aI14
aI1
aI81
aa(lp707
g441
aF0.45557165797197385
aI16
aI1
aI90
aa(lp708
g445
aF0.899810301836975
aI8
aI8
aI21
aa(lp709
g445
aF0.9583407974314243
aI26
aI2
aI36
aa(lp710
g441
aF0.8284645160449213
aI28
aI1
aI20
aa(lp711
g445
aF0.8792392231490244
aI28
aI8
aI85
aa(lp712
g441
aF0.9586959926192644
aI9
aI8
aI72
aa(lp713
g445
aF0.46226155742329
aI28
aI1
aI91
aa(lp714
g445
aF0.9923661724014183
aI5
aI6
aI57
aa(lp715
g445
aF0.22699270561467683
aI18
aI12
aI51
aa(lp716
g445
aF0.7916865329771098
aI26
aI6
aI69
aa(lp717
g445
aF0.19770198303192174
aI5
aI2
aI57
aa(lp718
g445
aF0.8764322609584905
aI7
aI1
aI32
aa(lp719
g441
aF0.672015946386764
aI19
aI5
aI81
aa(lp720
g441
aF0.16988226214642485
aI15
aI3
aI97
aa(lp721
g445
aF0.28436068436548123
aI21
aI12
aI66
aa(lp722
g445
aF0.3573046401498805
aI30
aI1
aI53
aa(lp723
g445
aF0.844716858449926
aI17
aI4
aI91
aa(lp724
g445
aF0.9418521243799433
aI4
aI17
aI50
aa(lp725
g441
aF0.8067123555710192
aI2
aI2
aI34
aa(lp726
g445
aF0.1571036221255154
aI19
aI10
aI60
aa(lp727
g441
aF0.5305881104102258
aI22
aI3
aI17
aa(lp728
g445
aF0.10357604557142158
aI21
aI4
aI47
aa(lp729
g441
aF0.8407364216070105
aI6
aI2
aI72
aa(lp730
g441
aF0.48378876723042163
aI20
aI3
aI22
aa(lp731
g445
aF0.8712033901002125
aI8
aI1
aI16
aa(lp732
g445
aF0.1734783527561209
aI10
aI5
aI97
aa(lp733
g445
aF0.2454415462790468
aI5
aI14
aI32
aa(lp734
g441
aF0.7375800873908138
aI6
aI1
aI66
aa(lp735
g445
aF0.8114889892067374
aI30
aI14
aI76
aa(lp736
g441
aF0.9153611690948182
aI20
aI9
aI64
aa(lp737
g441
aF0.4552841012570942
aI25
aI2
aI88
aa(lp738
g445
aF0.5323949018020832
aI16
aI10
aI82
aa(lp739
g441
aF0.488153217261159
aI13
aI4
aI47
aa(lp740
g445
aF0.3906468137442207
aI6
aI4
aI41
aa(lp741
g445
aF0.9031081155429339
aI12
aI13
aI47
aa(lp742
g441
aF0.9630253496299424
aI21
aI1
aI90
aa(lp743
g445
aF0.5718606726360287
aI3
aI1
aI98
aa(lp744
g445
aF0.7105029756258171
aI8
aI2
aI48
aa(lp745
g445
aF0.944093714453123
aI9
aI7
aI37
aaaF688.0003850460052
asS'SVM'
p746
(lp747
(lp748
g6
(g10
S'\x00\x00\x00\x00\x00\x00\x00\x00'
p749
tp750
Rp751
ag6
(g10
S'\x00\x00\x00\x00\x00\x00\x00\x00'
p752
tp753
Rp754
ag6
(g10
S'\x00\x00\x00\x00\x00\x00\x00\x00'
p755
tp756
Rp757
ag6
(g10
S'\x00\x00\x00\x00\x00\x00\x00\x00'
p758
tp759
Rp760
ag6
(g10
S'\x00\x00\x00\x00\x00\x00\x00\x00'
p761
tp762
Rp763
ag6
(g10
S'\x00\x00\x00\x00\x00\x00\x00\x00'
p764
tp765
Rp766
ag6
(g10
S'\x00\x00\x00\x00\x00\x00\x00\x00'
p767
tp768
Rp769
ag6
(g10
S'\x00\x00\x00\x00\x00\x00\x00\x00'
p770
tp771
Rp772
ag6
(g10
S'\x00\x00\x00\x00\x00\x00\x00\x00'
p773
tp774
Rp775
ag6
(g10
S'\x00\x00\x00\x00\x00\x00\x00\x00'
p776
tp777
Rp778
ag6
(g10
S'\x00\x00\x00\x00\x00\x00\x00\x00'
p779
tp780
Rp781
ag6
(g10
S'\x00\x00\x00\x00\x00\x00\x00\x00'
p782
tp783
Rp784
ag6
(g10
S'\x00\x00\x00\x00\x00\x00\x00\x00'
p785
tp786
Rp787
ag6
(g10
S'\x00\x00\x00\x00\x00\x00\x00\x00'
p788
tp789
Rp790
ag6
(g10
S'\x00\x00\x00\x00\x00\x00\x00\x00'
p791
tp792
Rp793
ag6
(g10
S'\x00\x00\x00\x00\x00\x00\x00\x00'
p794
tp795
Rp796
ag6
(g10
S'\x00\x00\x00\x00\x00\x00\x00\x00'
p797
tp798
Rp799
ag6
(g10
S'\x00\x00\x00\x00\x00\x00\x00\x00'
p800
tp801
Rp802
ag6
(g10
S'\x00\x00\x00\x00\x00\x00\x00\x00'
p803
tp804
Rp805
ag6
(g10
S'\x00\x00\x00\x00\x00\x00\x00\x00'
p806
tp807
Rp808
ag6
(g10
S'\x00\x00\x00\x00\x00\x00\x00\x00'
p809
tp810
Rp811
ag6
(g10
S'\x00\x00\x00\x00\x00\x00\x00\x00'
p812
tp813
Rp814
ag6
(g10
S'\x00\x00\x00\x00\x00\x00\x00\x00'
p815
tp816
Rp817
ag6
(g10
S'\x00\x00\x00\x00\x00\x00\x00\x00'
p818
tp819
Rp820
ag6
(g10
S'\x00\x00\x00\x00\x00\x00\x00\x00'
p821
tp822
Rp823
ag6
(g10
S'\x00\x00\x00\x00\x00\x00\x00\x00'
p824
tp825
Rp826
ag6
(g10
S'\x00\x00\x00\x00\x00\x00\x00\x00'
p827
tp828
Rp829
ag6
(g10
S'\x00\x00\x00\x00\x00\x00\x00\x00'
p830
tp831
Rp832
ag6
(g10
S'\x00\x00\x00\x00\x00\x00\x00\x00'
p833
tp834
Rp835
ag6
(g10
S'\x00\x00\x00\x00\x00\x00\x00\x00'
p836
tp837
Rp838
ag6
(g10
S'\x00\x00\x00\x00\x00\x00\x00\x00'
p839
tp840
Rp841
ag6
(g10
S'\x00\x00\x00\x00\x00\x00\x00\x00'
p842
tp843
Rp844
ag6
(g10
S'\x00\x00\x00\x00\x00\x00\x00\x00'
p845
tp846
Rp847
ag6
(g10
S'\x00\x00\x00\x00\x00\x00\x00\x00'
p848
tp849
Rp850
ag6
(g10
S'\x00\x00\x00\x00\x00\x00\x00\x00'
p851
tp852
Rp853
ag6
(g10
S'\x00\x00\x00\x00\x00\x00\x00\x00'
p854
tp855
Rp856
ag6
(g10
S'\x00\x00\x00\x00\x00\x00\x00\x00'
p857
tp858
Rp859
ag6
(g10
S'\x00\x00\x00\x00\x00\x00\x00\x00'
p860
tp861
Rp862
ag6
(g10
S'\x00\x00\x00\x00\x00\x00\x00\x00'
p863
tp864
Rp865
ag6
(g10
S'\x00\x00\x00\x00\x00\x00\x00\x00'
p866
tp867
Rp868
ag6
(g10
S'\x00\x00\x00\x00\x00\x00\x00\x00'
p869
tp870
Rp871
ag6
(g10
S'\x00\x00\x00\x00\x00\x00\x00\x00'
p872
tp873
Rp874
ag6
(g10
S'\x00\x00\x00\x00\x00\x00\x00\x00'
p875
tp876
Rp877
ag6
(g10
S'\x00\x00\x00\x00\x00\x00\x00\x00'
p878
tp879
Rp880
ag6
(g10
S'\x00\x00\x00\x00\x00\x00\x00\x00'
p881
tp882
Rp883
ag6
(g10
S'\x00\x00\x00\x00\x00\x00\x00\x00'
p884
tp885
Rp886
ag6
(g10
S'\x00\x00\x00\x00\x00\x00\x00\x00'
p887
tp888
Rp889
ag6
(g10
S'\x00\x00\x00\x00\x00\x00\x00\x00'
p890
tp891
Rp892
ag6
(g10
S'\x00\x00\x00\x00\x00\x00\x00\x00'
p893
tp894
Rp895
ag6
(g10
S'\x00\x00\x00\x00\x00\x00\x00\x00'
p896
tp897
Rp898
ag6
(g10
S'\x00\x00\x00\x00\x00\x00\x00\x00'
p899
tp900
Rp901
ag6
(g10
S'\x00\x00\x00\x00\x00\x00\x00\x00'
p902
tp903
Rp904
ag6
(g10
S'\x00\x00\x00\x00\x00\x00\x00\x00'
p905
tp906
Rp907
ag6
(g10
S'\x00\x00\x00\x00\x00\x00\x00\x00'
p908
tp909
Rp910
ag6
(g10
S'\x00\x00\x00\x00\x00\x00\x00\x00'
p911
tp912
Rp913
ag6
(g10
S'\x00\x00\x00\x00\x00\x00\x00\x00'
p914
tp915
Rp916
ag6
(g10
S'\x00\x00\x00\x00\x00\x00\x00\x00'
p917
tp918
Rp919
ag6
(g10
S'\x00\x00\x00\x00\x00\x00\x00\x00'
p920
tp921
Rp922
ag6
(g10
S'\x00\x00\x00\x00\x00\x00\x00\x00'
p923
tp924
Rp925
ag6
(g10
S'\x00\x00\x00\x00\x00\x00\x00\x00'
p926
tp927
Rp928
aa(lp929
(lp930
I57
aS'rbf'
p931
aF0.5709426377904226
aF0.42317390216886175
aa(lp932
I57
aS'sigmoid'
p933
aF0.1595723569650538
aF0.8103023585592666
aa(lp934
I49
ag933
aF0.19435876032148652
aF0.5369151570789853
aa(lp935
I80
ag931
aF0.20276807802961666
aF0.6079739148401224
aa(lp936
I21
ag933
aF0.7020864810142825
aF0.25894163518619046
aa(lp937
I33
ag933
aF0.8836977982104898
aF0.8426860284784577
aa(lp938
I31
ag931
aF0.9225566597498253
aF0.48769604755082574
aa(lp939
I52
ag931
aF0.27402979025065655
aF0.2687666747871116
aa(lp940
I15
ag931
aF0.8753846013210788
aF0.697958232100772
aa(lp941
I4
ag931
aF0.4746134989551132
aF0.20394148160107273
aa(lp942
I81
ag931
aF0.49416580971371826
aF0.19567002275551382
aa(lp943
I86
ag931
aF0.8755887924296922
aF0.17664279877960337
aa(lp944
I55
ag933
aF0.1735504442789001
aF0.6419035000755223
aa(lp945
I98
ag931
aF0.5470478094231422
aF0.2753301408945128
aa(lp946
I57
ag931
aF0.3712971600957795
aF0.20646806163149378
aa(lp947
I33
ag931
aF0.6414751452482619
aF0.4623675456784784
aa(lp948
I36
ag933
aF0.7761897802170139
aF0.42657194993075576
aa(lp949
I56
ag931
aF0.5432034290142422
aF0.5426889497404804
aa(lp950
I17
ag933
aF0.9549323096238023
aF0.7427408747769476
aa(lp951
I90
ag933
aF0.24790408631168365
aF0.2731205794299917
aa(lp952
I43
ag931
aF0.28365242649633693
aF0.558685944334256
aa(lp953
I63
ag933
aF0.32801295857236473
aF0.998167960234416
aa(lp954
I11
ag931
aF0.6105742730361035
aF0.9820875926515132
aa(lp955
I17
ag931
aF0.36200415339318204
aF0.9003001523164171
aa(lp956
I62
ag933
aF0.6956624518847326
aF0.14634190045532164
aa(lp957
I39
ag931
aF0.9374471950552217
aF0.2901757392381842
aa(lp958
I80
ag931
aF0.3940077654108164
aF0.1297093656870917
aa(lp959
I57
ag931
aF0.8945471577881021
aF0.13887080712132274
aa(lp960
I41
ag931
aF0.593767824869859
aF0.2032312447934992
aa(lp961
I97
ag931
aF0.8312407343434179
aF0.11314818529927023
aa(lp962
I26
ag931
aF0.8369905375209096
aF0.8840272547368443
aa(lp963
I16
ag933
aF0.8994134509531533
aF0.9798310040762087
aa(lp964
I59
ag933
aF0.34747386220633425
aF0.13109414643991946
aa(lp965
I12
ag933
aF0.9469833493300525
aF0.47895504370181563
aa(lp966
I50
ag933
aF0.9991664181869978
aF0.9298878439294567
aa(lp967
I94
ag931
aF0.7218466428533834
aF0.143289605691995
aa(lp968
I85
ag931
aF0.4814954495597855
aF0.6003987964144201
aa(lp969
I38
ag931
aF0.8966125996940956
aF0.9610234338547846
aa(lp970
I91
ag933
aF0.1352818109602545
aF0.7121687204961484
aa(lp971
I80
ag931
aF0.42039248831032217
aF0.1615270158161574
aa(lp972
I99
ag931
aF0.5274574414532105
aF0.6055612205258709
aa(lp973
I13
ag931
aF0.8071096310778074
aF0.1694227830946334
aa(lp974
I47
ag933
aF0.3827518248551244
aF0.3537565563386731
aa(lp975
I100
ag931
aF0.6219924894917613
aF0.9820637338472247
aa(lp976
I26
ag933
aF0.8191848080701765
aF0.4566370241240454
aa(lp977
I94
ag933
aF0.8962498453759656
aF0.4799842085088555
aa(lp978
I30
ag931
aF0.7190472646719765
aF0.16031940895410457
aa(lp979
I38
ag931
aF0.8778789615997569
aF0.13952414320557016
aa(lp980
I30
ag933
aF0.5004191755249315
aF0.9169735673943427
aa(lp981
I67
ag931
aF0.9584809669526637
aF0.14916969961735982
aa(lp982
I62
ag933
aF0.18775733172515652
aF0.314595420385012
aa(lp983
I8
ag931
aF0.6565381975045834
aF0.49190895175100635
aa(lp984
I98
ag933
aF0.5122800136608645
aF0.4220518554185013
aa(lp985
I17
ag931
aF0.6799354201761327
aF0.6836407112092521
aa(lp986
I10
ag931
aF0.2923826187151354
aF0.8235638708078671
aa(lp987
I83
ag931
aF0.49035565735423225
aF0.15083876667986262
aa(lp988
I34
ag931
aF0.3405317029446848
aF0.2643478567895121
aa(lp989
I53
ag933
aF0.7196920801167664
aF0.1923607628472625
aa(lp990
I88
ag933
aF0.6491326088719858
aF0.517479761088128
aa(lp991
I93
ag933
aF0.7080419237232337
aF0.8432443391066868
aaaF2.9344429969787598
ass.