(dp0
S'f1'
p1
(dp2
S'KNN'
p3
(lp4
(lp5
cnumpy.core.multiarray
scalar
p6
(cnumpy
dtype
p7
(S'f8'
p8
I0
I1
tp9
Rp10
(I3
S'<'
p11
NNNI-1
I-1
I0
tp12
bS'\n\xd7\xa3p=\n\xe7?'
p13
tp14
Rp15
ag6
(g10
S'ffffff\xe6?'
p16
tp17
Rp18
ag6
(g10
S'\x14\xaeG\xe1z\x14\xe6?'
p19
tp20
Rp21
ag6
(g10
S'ffffff\xe6?'
p22
tp23
Rp24
ag6
(g10
S'\x14\xaeG\xe1z\x14\xe6?'
p25
tp26
Rp27
ag6
(g10
S'\x14\xaeG\xe1z\x14\xe6?'
p28
tp29
Rp30
ag6
(g10
S'\xc3\xf5(\\\x8f\xc2\xe5?'
p31
tp32
Rp33
ag6
(g10
S'ffffff\xe6?'
p34
tp35
Rp36
ag6
(g10
S'\x14\xaeG\xe1z\x14\xe6?'
p37
tp38
Rp39
ag6
(g10
S'ffffff\xe6?'
p40
tp41
Rp42
ag6
(g10
S'\x14\xaeG\xe1z\x14\xe6?'
p43
tp44
Rp45
ag6
(g10
S'ffffff\xe6?'
p46
tp47
Rp48
ag6
(g10
S'\n\xd7\xa3p=\n\xe7?'
p49
tp50
Rp51
ag6
(g10
S'\n\xd7\xa3p=\n\xe7?'
p52
tp53
Rp54
ag6
(g10
S'ffffff\xe6?'
p55
tp56
Rp57
ag6
(g10
S'\x14\xaeG\xe1z\x14\xe6?'
p58
tp59
Rp60
ag6
(g10
S'\n\xd7\xa3p=\n\xe7?'
p61
tp62
Rp63
ag6
(g10
S'ffffff\xe6?'
p64
tp65
Rp66
ag6
(g10
S'\x14\xaeG\xe1z\x14\xe6?'
p67
tp68
Rp69
ag6
(g10
S'\x14\xaeG\xe1z\x14\xe6?'
p70
tp71
Rp72
ag6
(g10
S'ffffff\xe6?'
p73
tp74
Rp75
ag6
(g10
S'\n\xd7\xa3p=\n\xe7?'
p76
tp77
Rp78
ag6
(g10
S'\xc3\xf5(\\\x8f\xc2\xe5?'
p79
tp80
Rp81
ag6
(g10
S'ffffff\xe6?'
p82
tp83
Rp84
ag6
(g10
S'ffffff\xe6?'
p85
tp86
Rp87
ag6
(g10
S'ffffff\xe6?'
p88
tp89
Rp90
ag6
(g10
S'\x14\xaeG\xe1z\x14\xe6?'
p91
tp92
Rp93
ag6
(g10
S'ffffff\xe6?'
p94
tp95
Rp96
ag6
(g10
S'\n\xd7\xa3p=\n\xe7?'
p97
tp98
Rp99
ag6
(g10
S'ffffff\xe6?'
p100
tp101
Rp102
ag6
(g10
S'\x14\xaeG\xe1z\x14\xe6?'
p103
tp104
Rp105
ag6
(g10
S'ffffff\xe6?'
p106
tp107
Rp108
ag6
(g10
S'\x14\xaeG\xe1z\x14\xe6?'
p109
tp110
Rp111
ag6
(g10
S'ffffff\xe6?'
p112
tp113
Rp114
ag6
(g10
S'\n\xd7\xa3p=\n\xe7?'
p115
tp116
Rp117
ag6
(g10
S'\x14\xaeG\xe1z\x14\xe6?'
p118
tp119
Rp120
ag6
(g10
S'\n\xd7\xa3p=\n\xe7?'
p121
tp122
Rp123
ag6
(g10
S'\n\xd7\xa3p=\n\xe7?'
p124
tp125
Rp126
ag6
(g10
S'\xb8\x1e\x85\xebQ\xb8\xe6?'
p127
tp128
Rp129
ag6
(g10
S'ffffff\xe6?'
p130
tp131
Rp132
ag6
(g10
S'ffffff\xe6?'
p133
tp134
Rp135
ag6
(g10
S'\x14\xaeG\xe1z\x14\xe6?'
p136
tp137
Rp138
ag6
(g10
S'ffffff\xe6?'
p139
tp140
Rp141
ag6
(g10
S'\x14\xaeG\xe1z\x14\xe6?'
p142
tp143
Rp144
ag6
(g10
S'ffffff\xe6?'
p145
tp146
Rp147
ag6
(g10
S'\xb8\x1e\x85\xebQ\xb8\xe6?'
p148
tp149
Rp150
ag6
(g10
S'ffffff\xe6?'
p151
tp152
Rp153
ag6
(g10
S'\n\xd7\xa3p=\n\xe7?'
p154
tp155
Rp156
ag6
(g10
S'\x14\xaeG\xe1z\x14\xe6?'
p157
tp158
Rp159
ag6
(g10
S'\n\xd7\xa3p=\n\xe7?'
p160
tp161
Rp162
ag6
(g10
S'ffffff\xe6?'
p163
tp164
Rp165
ag6
(g10
S'\n\xd7\xa3p=\n\xe7?'
p166
tp167
Rp168
ag6
(g10
S'\n\xd7\xa3p=\n\xe7?'
p169
tp170
Rp171
ag6
(g10
S'ffffff\xe6?'
p172
tp173
Rp174
ag6
(g10
S'ffffff\xe6?'
p175
tp176
Rp177
ag6
(g10
S'ffffff\xe6?'
p178
tp179
Rp180
ag6
(g10
S'\x14\xaeG\xe1z\x14\xe6?'
p181
tp182
Rp183
ag6
(g10
S'ffffff\xe6?'
p184
tp185
Rp186
ag6
(g10
S'ffffff\xe6?'
p187
tp188
Rp189
ag6
(g10
S'ffffff\xe6?'
p190
tp191
Rp192
aa(lp193
(lp194
I9
aS'uniform'
p195
aa(lp196
I5
ag195
aa(lp197
I9
aS'distance'
p198
aa(lp199
I8
ag198
aa(lp200
I7
ag198
aa(lp201
I3
ag195
aa(lp202
I3
ag198
aa(lp203
I10
ag198
aa(lp204
I9
ag198
aa(lp205
I5
ag195
aa(lp206
I9
ag198
aa(lp207
I10
ag198
aa(lp208
I9
ag195
aa(lp209
I7
ag195
aa(lp210
I8
ag198
aa(lp211
I3
ag195
aa(lp212
I7
ag195
aa(lp213
I8
ag198
aa(lp214
I5
ag198
aa(lp215
I7
ag198
aa(lp216
I8
ag195
aa(lp217
I9
ag195
aa(lp218
I3
ag198
aa(lp219
I10
ag198
aa(lp220
I8
ag195
aa(lp221
I8
ag198
aa(lp222
I9
ag198
aa(lp223
I10
ag195
aa(lp224
I9
ag195
aa(lp225
I10
ag198
aa(lp226
I4
ag198
aa(lp227
I5
ag195
aa(lp228
I5
ag198
aa(lp229
I10
ag198
aa(lp230
I7
ag195
aa(lp231
I9
ag198
aa(lp232
I9
ag195
aa(lp233
I7
ag195
aa(lp234
I6
ag198
aa(lp235
I5
ag195
aa(lp236
I10
ag198
aa(lp237
I3
ag195
aa(lp238
I5
ag195
aa(lp239
I9
ag198
aa(lp240
I10
ag195
aa(lp241
I6
ag198
aa(lp242
I10
ag195
aa(lp243
I9
ag195
aa(lp244
I9
ag198
aa(lp245
I7
ag195
aa(lp246
I10
ag195
aa(lp247
I7
ag195
aa(lp248
I9
ag195
aa(lp249
I8
ag198
aa(lp250
I10
ag195
aa(lp251
I10
ag195
aa(lp252
I5
ag198
aa(lp253
I10
ag198
aa(lp254
I10
ag198
aa(lp255
I8
ag198
aaaF2.054529905319214
asS'DTC'
p256
(lp257
(lp258
g6
(g10
S'\x14\xaeG\xe1z\x14\xe6?'
p259
tp260
Rp261
ag6
(g10
S'ffffff\xe6?'
p262
tp263
Rp264
ag6
(g10
S'\x14\xaeG\xe1z\x14\xe6?'
p265
tp266
Rp267
ag6
(g10
S'\xb8\x1e\x85\xebQ\xb8\xe6?'
p268
tp269
Rp270
ag6
(g10
S'\x1f\x85\xebQ\xb8\x1e\xe5?'
p271
tp272
Rp273
ag6
(g10
S'\xa4p=\n\xd7\xa3\xe8?'
p274
tp275
Rp276
ag6
(g10
S'\\\x8f\xc2\xf5(\\\xe7?'
p277
tp278
Rp279
ag6
(g10
S'R\xb8\x1e\x85\xebQ\xe8?'
p280
tp281
Rp282
ag6
(g10
S'\xc3\xf5(\\\x8f\xc2\xe5?'
p283
tp284
Rp285
ag6
(g10
S'\xb8\x1e\x85\xebQ\xb8\xe6?'
p286
tp287
Rp288
ag6
(g10
S'\xf6(\\\x8f\xc2\xf5\xe8?'
p289
tp290
Rp291
ag6
(g10
S'ffffff\xe6?'
p292
tp293
Rp294
ag6
(g10
S'ffffff\xe6?'
p295
tp296
Rp297
ag6
(g10
S'ffffff\xe6?'
p298
tp299
Rp300
ag6
(g10
S'\xc3\xf5(\\\x8f\xc2\xe5?'
p301
tp302
Rp303
ag6
(g10
S'\xf6(\\\x8f\xc2\xf5\xe8?'
p304
tp305
Rp306
ag6
(g10
S'\xcd\xcc\xcc\xcc\xcc\xcc\xe4?'
p307
tp308
Rp309
ag6
(g10
S'\xaeG\xe1z\x14\xae\xe7?'
p310
tp311
Rp312
ag6
(g10
S'ffffff\xe6?'
p313
tp314
Rp315
ag6
(g10
S'ffffff\xe6?'
p316
tp317
Rp318
ag6
(g10
S'\x85\xebQ\xb8\x1e\x85\xe3?'
p319
tp320
Rp321
ag6
(g10
S'\x00\x00\x00\x00\x00\x00\xe8?'
p322
tp323
Rp324
ag6
(g10
S'ffffff\xe6?'
p325
tp326
Rp327
ag6
(g10
S'\x9a\x99\x99\x99\x99\x99\xe9?'
p328
tp329
Rp330
ag6
(g10
S'ffffff\xe6?'
p331
tp332
Rp333
ag6
(g10
S'\xa4p=\n\xd7\xa3\xe8?'
p334
tp335
Rp336
ag6
(g10
S'\x14\xaeG\xe1z\x14\xe6?'
p337
tp338
Rp339
ag6
(g10
S'ffffff\xe6?'
p340
tp341
Rp342
ag6
(g10
S'\x14\xaeG\xe1z\x14\xe6?'
p343
tp344
Rp345
ag6
(g10
S'\xa4p=\n\xd7\xa3\xe8?'
p346
tp347
Rp348
ag6
(g10
S'\xa4p=\n\xd7\xa3\xe8?'
p349
tp350
Rp351
ag6
(g10
S'\x00\x00\x00\x00\x00\x00\xe8?'
p352
tp353
Rp354
ag6
(g10
S'ffffff\xe6?'
p355
tp356
Rp357
ag6
(g10
S'\n\xd7\xa3p=\n\xe7?'
p358
tp359
Rp360
ag6
(g10
S'ffffff\xe6?'
p361
tp362
Rp363
ag6
(g10
S'\xb8\x1e\x85\xebQ\xb8\xe6?'
p364
tp365
Rp366
ag6
(g10
S'q=\n\xd7\xa3p\xe5?'
p367
tp368
Rp369
ag6
(g10
S'\x1f\x85\xebQ\xb8\x1e\xe5?'
p370
tp371
Rp372
ag6
(g10
S'\xecQ\xb8\x1e\x85\xeb\xe9?'
p373
tp374
Rp375
ag6
(g10
S'\n\xd7\xa3p=\n\xe7?'
p376
tp377
Rp378
ag6
(g10
S'ffffff\xe6?'
p379
tp380
Rp381
ag6
(g10
S'\xb8\x1e\x85\xebQ\xb8\xe6?'
p382
tp383
Rp384
ag6
(g10
S'\xb8\x1e\x85\xebQ\xb8\xe6?'
p385
tp386
Rp387
ag6
(g10
S'ffffff\xe6?'
p388
tp389
Rp390
ag6
(g10
S'\n\xd7\xa3p=\n\xe7?'
p391
tp392
Rp393
ag6
(g10
S'\xa4p=\n\xd7\xa3\xe8?'
p394
tp395
Rp396
ag6
(g10
S'\\\x8f\xc2\xf5(\\\xe7?'
p397
tp398
Rp399
ag6
(g10
S'ffffff\xe6?'
p400
tp401
Rp402
ag6
(g10
S'\xcd\xcc\xcc\xcc\xcc\xcc\xe4?'
p403
tp404
Rp405
ag6
(g10
S'\x00\x00\x00\x00\x00\x00\xe8?'
p406
tp407
Rp408
ag6
(g10
S'R\xb8\x1e\x85\xebQ\xe8?'
p409
tp410
Rp411
ag6
(g10
S'\n\xd7\xa3p=\n\xe7?'
p412
tp413
Rp414
ag6
(g10
S'\x14\xaeG\xe1z\x14\xe6?'
p415
tp416
Rp417
ag6
(g10
S'\x00\x00\x00\x00\x00\x00\xe8?'
p418
tp419
Rp420
ag6
(g10
S'\xb8\x1e\x85\xebQ\xb8\xe6?'
p421
tp422
Rp423
ag6
(g10
S'\n\xd7\xa3p=\n\xe7?'
p424
tp425
Rp426
ag6
(g10
S'\x1f\x85\xebQ\xb8\x1e\xe5?'
p427
tp428
Rp429
ag6
(g10
S'\xf6(\\\x8f\xc2\xf5\xe8?'
p430
tp431
Rp432
ag6
(g10
S'\x85\xebQ\xb8\x1e\x85\xe3?'
p433
tp434
Rp435
ag6
(g10
S'\xf6(\\\x8f\xc2\xf5\xe8?'
p436
tp437
Rp438
aa(lp439
(lp440
S'entropy'
p441
aF0.9807578458655657
aI7
aI20
aI18
aa(lp442
S'gini'
p443
aF0.8282274849704265
aI24
aI5
aI6
aa(lp444
g443
aF0.2809678534908321
aI24
aI5
aI7
aa(lp445
g441
aF0.43636828847103293
aI6
aI11
aI6
aa(lp446
g443
aF0.7974027136641677
aI21
aI10
aI7
aa(lp447
g443
aF0.7833827792783988
aI16
aI2
aI8
aa(lp448
g443
aF0.7349467397375684
aI13
aI12
aI16
aa(lp449
g443
aF0.9776688279843845
aI14
aI3
aI11
aa(lp450
g443
aF0.2336433362537236
aI29
aI10
aI12
aa(lp451
g443
aF0.36151592783854924
aI10
aI17
aI10
aa(lp452
g441
aF0.21450776373616418
aI24
aI11
aI7
aa(lp453
g441
aF0.9497215391586927
aI13
aI18
aI21
aa(lp454
g441
aF0.8433983496734884
aI2
aI19
aI10
aa(lp455
g441
aF0.9889467893208581
aI17
aI17
aI10
aa(lp456
g441
aF0.2503418026855271
aI5
aI9
aI18
aa(lp457
g443
aF0.15843753122511495
aI23
aI16
aI17
aa(lp458
g441
aF0.2086546112927979
aI19
aI10
aI6
aa(lp459
g441
aF0.2617899575656884
aI3
aI7
aI6
aa(lp460
g443
aF0.9759604069084178
aI17
aI14
aI10
aa(lp461
g443
aF0.8324846934627284
aI22
aI11
aI9
aa(lp462
g441
aF0.37741328441489397
aI20
aI9
aI20
aa(lp463
g443
aF0.7353520317798308
aI17
aI21
aI1
aa(lp464
g443
aF0.9924668372928089
aI19
aI4
aI12
aa(lp465
g441
aF0.6594886462147136
aI22
aI16
aI20
aa(lp466
g443
aF0.37123098289569934
aI9
aI14
aI9
aa(lp467
g441
aF0.3632656450550168
aI29
aI4
aI10
aa(lp468
g441
aF0.7013880738608869
aI13
aI20
aI4
aa(lp469
g443
aF0.6904788156631826
aI3
aI19
aI10
aa(lp470
g441
aF0.29389102864074124
aI27
aI14
aI19
aa(lp471
g441
aF0.13734627051998938
aI13
aI3
aI14
aa(lp472
g441
aF0.1822940573035144
aI10
aI21
aI15
aa(lp473
g441
aF0.8419519387502474
aI5
aI4
aI7
aa(lp474
g441
aF0.7287767038117009
aI17
aI19
aI9
aa(lp475
g443
aF0.6094141741826458
aI2
aI6
aI4
aa(lp476
g441
aF0.460258529649042
aI23
aI8
aI5
aa(lp477
g443
aF0.36511708228882
aI7
aI16
aI8
aa(lp478
g443
aF0.5022796610998864
aI3
aI4
aI19
aa(lp479
g443
aF0.7623585354656861
aI5
aI10
aI13
aa(lp480
g441
aF0.8739239773121374
aI27
aI3
aI9
aa(lp481
g441
aF0.13676686413107605
aI29
aI18
aI5
aa(lp482
g443
aF0.8032871634550232
aI24
aI7
aI4
aa(lp483
g443
aF0.6106012516840443
aI19
aI6
aI8
aa(lp484
g441
aF0.45550353781079833
aI29
aI11
aI5
aa(lp485
g443
aF0.26198787779818233
aI15
aI5
aI15
aa(lp486
g443
aF0.6482243069509653
aI21
aI13
aI18
aa(lp487
g441
aF0.15055137236813326
aI26
aI18
aI21
aa(lp488
g441
aF0.40957324327684663
aI21
aI14
aI15
aa(lp489
g443
aF0.8319035803011643
aI8
aI13
aI4
aa(lp490
g443
aF0.369683270377681
aI2
aI8
aI3
aa(lp491
g441
aF0.777468434807205
aI20
aI4
aI14
aa(lp492
g443
aF0.23291519428525684
aI23
aI20
aI16
aa(lp493
g443
aF0.8581198109748911
aI18
aI18
aI9
aa(lp494
g443
aF0.4066789465350572
aI10
aI1
aI12
aa(lp495
g441
aF0.23736338003285012
aI21
aI3
aI2
aa(lp496
g441
aF0.2380505807408853
aI5
aI3
aI5
aa(lp497
g443
aF0.772984829353157
aI28
aI9
aI3
aa(lp498
g441
aF0.5196413570647544
aI12
aI4
aI11
aa(lp499
g441
aF0.6933322997003118
aI19
aI4
aI7
aa(lp500
g443
aF0.9328628619212498
aI8
aI9
aI17
aa(lp501
g441
aF0.17652292203303924
aI19
aI15
aI5
aaaF1.4350240230560303
asS'RF'
p502
(lp503
(lp504
g6
(g10
S'\x9a\x99\x99\x99\x99\x99\xe9?'
p505
tp506
Rp507
ag6
(g10
S'R\xb8\x1e\x85\xebQ\xe8?'
p508
tp509
Rp510
ag6
(g10
S'\x00\x00\x00\x00\x00\x00\xe8?'
p511
tp512
Rp513
ag6
(g10
S'\xf6(\\\x8f\xc2\xf5\xe8?'
p514
tp515
Rp516
ag6
(g10
S'H\xe1z\x14\xaeG\xe9?'
p517
tp518
Rp519
ag6
(g10
S'\x00\x00\x00\x00\x00\x00\xe8?'
p520
tp521
Rp522
ag6
(g10
S'\xf6(\\\x8f\xc2\xf5\xe8?'
p523
tp524
Rp525
ag6
(g10
S'\xf6(\\\x8f\xc2\xf5\xe8?'
p526
tp527
Rp528
ag6
(g10
S'\\\x8f\xc2\xf5(\\\xe7?'
p529
tp530
Rp531
ag6
(g10
S'\xf6(\\\x8f\xc2\xf5\xe8?'
p532
tp533
Rp534
ag6
(g10
S'H\xe1z\x14\xaeG\xe9?'
p535
tp536
Rp537
ag6
(g10
S'H\xe1z\x14\xaeG\xe9?'
p538
tp539
Rp540
ag6
(g10
S'\xa4p=\n\xd7\xa3\xe8?'
p541
tp542
Rp543
ag6
(g10
S'R\xb8\x1e\x85\xebQ\xe8?'
p544
tp545
Rp546
ag6
(g10
S'\xecQ\xb8\x1e\x85\xeb\xe9?'
p547
tp548
Rp549
ag6
(g10
S'\xf6(\\\x8f\xc2\xf5\xe8?'
p550
tp551
Rp552
ag6
(g10
S'\xecQ\xb8\x1e\x85\xeb\xe9?'
p553
tp554
Rp555
ag6
(g10
S'\\\x8f\xc2\xf5(\\\xe7?'
p556
tp557
Rp558
ag6
(g10
S'\xf6(\\\x8f\xc2\xf5\xe8?'
p559
tp560
Rp561
ag6
(g10
S'\xa4p=\n\xd7\xa3\xe8?'
p562
tp563
Rp564
ag6
(g10
S'R\xb8\x1e\x85\xebQ\xe8?'
p565
tp566
Rp567
ag6
(g10
S'H\xe1z\x14\xaeG\xe9?'
p568
tp569
Rp570
ag6
(g10
S'H\xe1z\x14\xaeG\xe9?'
p571
tp572
Rp573
ag6
(g10
S'H\xe1z\x14\xaeG\xe9?'
p574
tp575
Rp576
ag6
(g10
S'H\xe1z\x14\xaeG\xe9?'
p577
tp578
Rp579
ag6
(g10
S'\x9a\x99\x99\x99\x99\x99\xe9?'
p580
tp581
Rp582
ag6
(g10
S'\xa4p=\n\xd7\xa3\xe8?'
p583
tp584
Rp585
ag6
(g10
S'\xa4p=\n\xd7\xa3\xe8?'
p586
tp587
Rp588
ag6
(g10
S'R\xb8\x1e\x85\xebQ\xe8?'
p589
tp590
Rp591
ag6
(g10
S'H\xe1z\x14\xaeG\xe9?'
p592
tp593
Rp594
ag6
(g10
S'\xf6(\\\x8f\xc2\xf5\xe8?'
p595
tp596
Rp597
ag6
(g10
S'H\xe1z\x14\xaeG\xe9?'
p598
tp599
Rp600
ag6
(g10
S'\xa4p=\n\xd7\xa3\xe8?'
p601
tp602
Rp603
ag6
(g10
S'\xa4p=\n\xd7\xa3\xe8?'
p604
tp605
Rp606
ag6
(g10
S'\xf6(\\\x8f\xc2\xf5\xe8?'
p607
tp608
Rp609
ag6
(g10
S'\xf6(\\\x8f\xc2\xf5\xe8?'
p610
tp611
Rp612
ag6
(g10
S'H\xe1z\x14\xaeG\xe9?'
p613
tp614
Rp615
ag6
(g10
S'=\n\xd7\xa3p=\xea?'
p616
tp617
Rp618
ag6
(g10
S'H\xe1z\x14\xaeG\xe9?'
p619
tp620
Rp621
ag6
(g10
S'H\xe1z\x14\xaeG\xe9?'
p622
tp623
Rp624
ag6
(g10
S'\xf6(\\\x8f\xc2\xf5\xe8?'
p625
tp626
Rp627
ag6
(g10
S'\xf6(\\\x8f\xc2\xf5\xe8?'
p628
tp629
Rp630
ag6
(g10
S'\xf6(\\\x8f\xc2\xf5\xe8?'
p631
tp632
Rp633
ag6
(g10
S'H\xe1z\x14\xaeG\xe9?'
p634
tp635
Rp636
ag6
(g10
S'\xf6(\\\x8f\xc2\xf5\xe8?'
p637
tp638
Rp639
ag6
(g10
S'H\xe1z\x14\xaeG\xe9?'
p640
tp641
Rp642
ag6
(g10
S'\x00\x00\x00\x00\x00\x00\xe8?'
p643
tp644
Rp645
ag6
(g10
S'\xf6(\\\x8f\xc2\xf5\xe8?'
p646
tp647
Rp648
ag6
(g10
S'\xa4p=\n\xd7\xa3\xe8?'
p649
tp650
Rp651
ag6
(g10
S'\xf6(\\\x8f\xc2\xf5\xe8?'
p652
tp653
Rp654
ag6
(g10
S'\xa4p=\n\xd7\xa3\xe8?'
p655
tp656
Rp657
ag6
(g10
S'\xecQ\xb8\x1e\x85\xeb\xe9?'
p658
tp659
Rp660
ag6
(g10
S'\x9a\x99\x99\x99\x99\x99\xe9?'
p661
tp662
Rp663
ag6
(g10
S'R\xb8\x1e\x85\xebQ\xe8?'
p664
tp665
Rp666
ag6
(g10
S'H\xe1z\x14\xaeG\xe9?'
p667
tp668
Rp669
ag6
(g10
S'H\xe1z\x14\xaeG\xe9?'
p670
tp671
Rp672
ag6
(g10
S'\xaeG\xe1z\x14\xae\xe7?'
p673
tp674
Rp675
ag6
(g10
S'\xf6(\\\x8f\xc2\xf5\xe8?'
p676
tp677
Rp678
ag6
(g10
S'\xf6(\\\x8f\xc2\xf5\xe8?'
p679
tp680
Rp681
ag6
(g10
S'H\xe1z\x14\xaeG\xe9?'
p682
tp683
Rp684
aa(lp685
(lp686
g441
aF0.9910197019425554
aI22
aI21
aI88
aa(lp687
g441
aF0.8880449844025086
aI20
aI7
aI65
aa(lp688
g441
aF0.8962799995475994
aI2
aI9
aI26
aa(lp689
g441
aF0.5662130213723732
aI30
aI2
aI30
aa(lp690
g441
aF0.2430202604099803
aI6
aI13
aI84
aa(lp691
g441
aF0.8857316959323829
aI11
aI10
aI66
aa(lp692
g443
aF0.3441388402572805
aI11
aI1
aI52
aa(lp693
g443
aF0.7171463383725444
aI3
aI6
aI78
aa(lp694
g441
aF0.9458353283406189
aI16
aI9
aI24
aa(lp695
g441
aF0.5886515121400604
aI2
aI8
aI32
aa(lp696
g443
aF0.2329961379071476
aI25
aI6
aI91
aa(lp697
g441
aF0.14111597243094345
aI17
aI2
aI94
aa(lp698
g443
aF0.4644299141157967
aI9
aI1
aI97
aa(lp699
g441
aF0.7930439813978069
aI4
aI9
aI30
aa(lp700
g441
aF0.4283192749872836
aI9
aI18
aI25
aa(lp701
g441
aF0.97762268301127
aI11
aI3
aI61
aa(lp702
g441
aF0.12626933991081774
aI14
aI19
aI25
aa(lp703
g441
aF0.3478394893699832
aI7
aI3
aI80
aa(lp704
g441
aF0.6541498529223898
aI2
aI4
aI66
aa(lp705
g441
aF0.7549721862523151
aI29
aI8
aI47
aa(lp706
g441
aF0.544728587901946
aI14
aI1
aI81
aa(lp707
g443
aF0.6338513014422824
aI16
aI1
aI90
aa(lp708
g441
aF0.25288753467723246
aI20
aI4
aI51
aa(lp709
g441
aF0.18013264727525138
aI28
aI1
aI73
aa(lp710
g441
aF0.5725016814392485
aI20
aI3
aI100
aa(lp711
g441
aF0.12073475288343474
aI8
aI9
aI70
aa(lp712
g443
aF0.9586959926192644
aI7
aI14
aI22
aa(lp713
g443
aF0.7899300199910458
aI11
aI11
aI62
aa(lp714
g441
aF0.28482605465966493
aI5
aI6
aI57
aa(lp715
g443
aF0.8091785317422107
aI30
aI3
aI66
aa(lp716
g441
aF0.77408867427686
aI6
aI2
aI45
aa(lp717
g443
aF0.19770198303192174
aI4
aI4
aI56
aa(lp718
g441
aF0.8764322609584905
aI7
aI1
aI32
aa(lp719
g441
aF0.6305700859810449
aI9
aI7
aI60
aa(lp720
g443
aF0.835984028608998
aI17
aI1
aI19
aa(lp721
g441
aF0.5863056970351751
aI28
aI3
aI98
aa(lp722
g441
aF0.9696855860506803
aI10
aI2
aI100
aa(lp723
g441
aF0.4447047148134272
aI26
aI16
aI14
aa(lp724
g443
aF0.9418521243799433
aI23
aI2
aI23
aa(lp725
g443
aF0.8974241777247831
aI25
aI4
aI89
aa(lp726
g441
aF0.6658485738266153
aI15
aI4
aI30
aa(lp727
g443
aF0.703077574898438
aI8
aI5
aI82
aa(lp728
g441
aF0.46961103504271395
aI19
aI2
aI84
aa(lp729
g441
aF0.6579135007605323
aI4
aI10
aI15
aa(lp730
g443
aF0.1759974357582929
aI3
aI3
aI46
aa(lp731
g443
aF0.9408184886768741
aI4
aI8
aI95
aa(lp732
g441
aF0.7052016210427782
aI5
aI4
aI37
aa(lp733
g443
aF0.2454415462790468
aI2
aI3
aI40
aa(lp734
g441
aF0.7375800873908138
aI11
aI5
aI31
aa(lp735
g443
aF0.45498311083247556
aI18
aI2
aI87
aa(lp736
g443
aF0.870942271976055
aI10
aI9
aI87
aa(lp737
g441
aF0.13111172817714267
aI27
aI19
aI21
aa(lp738
g441
aF0.44856543944984073
aI29
aI9
aI21
aa(lp739
g441
aF0.488153217261159
aI21
aI4
aI15
aa(lp740
g443
aF0.7881103097851937
aI22
aI1
aI75
aa(lp741
g443
aF0.7852387464721592
aI29
aI6
aI32
aa(lp742
g443
aF0.36050170994981845
aI23
aI5
aI68
aa(lp743
g441
aF0.5718606726360287
aI14
aI10
aI17
aa(lp744
g441
aF0.657039290399169
aI28
aI2
aI75
aa(lp745
g441
aF0.944093714453123
aI15
aI5
aI69
aaaF686.4177241325378
asS'SVM'
p746
(lp747
(lp748
g6
(g10
S'H\xe1z\x14\xaeG\xe9?'
p749
tp750
Rp751
ag6
(g10
S'\xf6(\\\x8f\xc2\xf5\xe8?'
p752
tp753
Rp754
ag6
(g10
S'\xf6(\\\x8f\xc2\xf5\xe8?'
p755
tp756
Rp757
ag6
(g10
S'H\xe1z\x14\xaeG\xe9?'
p758
tp759
Rp760
ag6
(g10
S'\xf6(\\\x8f\xc2\xf5\xe8?'
p761
tp762
Rp763
ag6
(g10
S'H\xe1z\x14\xaeG\xe9?'
p764
tp765
Rp766
ag6
(g10
S'H\xe1z\x14\xaeG\xe9?'
p767
tp768
Rp769
ag6
(g10
S'H\xe1z\x14\xaeG\xe9?'
p770
tp771
Rp772
ag6
(g10
S'\xf6(\\\x8f\xc2\xf5\xe8?'
p773
tp774
Rp775
ag6
(g10
S'H\xe1z\x14\xaeG\xe9?'
p776
tp777
Rp778
ag6
(g10
S'H\xe1z\x14\xaeG\xe9?'
p779
tp780
Rp781
ag6
(g10
S'H\xe1z\x14\xaeG\xe9?'
p782
tp783
Rp784
ag6
(g10
S'\xf6(\\\x8f\xc2\xf5\xe8?'
p785
tp786
Rp787
ag6
(g10
S'H\xe1z\x14\xaeG\xe9?'
p788
tp789
Rp790
ag6
(g10
S'H\xe1z\x14\xaeG\xe9?'
p791
tp792
Rp793
ag6
(g10
S'H\xe1z\x14\xaeG\xe9?'
p794
tp795
Rp796
ag6
(g10
S'\xf6(\\\x8f\xc2\xf5\xe8?'
p797
tp798
Rp799
ag6
(g10
S'H\xe1z\x14\xaeG\xe9?'
p800
tp801
Rp802
ag6
(g10
S'\x9a\x99\x99\x99\x99\x99\xe9?'
p803
tp804
Rp805
ag6
(g10
S'H\xe1z\x14\xaeG\xe9?'
p806
tp807
Rp808
ag6
(g10
S'H\xe1z\x14\xaeG\xe9?'
p809
tp810
Rp811
ag6
(g10
S'H\xe1z\x14\xaeG\xe9?'
p812
tp813
Rp814
ag6
(g10
S'H\xe1z\x14\xaeG\xe9?'
p815
tp816
Rp817
ag6
(g10
S'H\xe1z\x14\xaeG\xe9?'
p818
tp819
Rp820
ag6
(g10
S'\xf6(\\\x8f\xc2\xf5\xe8?'
p821
tp822
Rp823
ag6
(g10
S'\xf6(\\\x8f\xc2\xf5\xe8?'
p824
tp825
Rp826
ag6
(g10
S'H\xe1z\x14\xaeG\xe9?'
p827
tp828
Rp829
ag6
(g10
S'\xf6(\\\x8f\xc2\xf5\xe8?'
p830
tp831
Rp832
ag6
(g10
S'H\xe1z\x14\xaeG\xe9?'
p833
tp834
Rp835
ag6
(g10
S'H\xe1z\x14\xaeG\xe9?'
p836
tp837
Rp838
ag6
(g10
S'H\xe1z\x14\xaeG\xe9?'
p839
tp840
Rp841
ag6
(g10
S'H\xe1z\x14\xaeG\xe9?'
p842
tp843
Rp844
ag6
(g10
S'\x9a\x99\x99\x99\x99\x99\xe9?'
p845
tp846
Rp847
ag6
(g10
S'\xf6(\\\x8f\xc2\xf5\xe8?'
p848
tp849
Rp850
ag6
(g10
S'\xf6(\\\x8f\xc2\xf5\xe8?'
p851
tp852
Rp853
ag6
(g10
S'H\xe1z\x14\xaeG\xe9?'
p854
tp855
Rp856
ag6
(g10
S'H\xe1z\x14\xaeG\xe9?'
p857
tp858
Rp859
ag6
(g10
S'\xf6(\\\x8f\xc2\xf5\xe8?'
p860
tp861
Rp862
ag6
(g10
S'\xf6(\\\x8f\xc2\xf5\xe8?'
p863
tp864
Rp865
ag6
(g10
S'\xf6(\\\x8f\xc2\xf5\xe8?'
p866
tp867
Rp868
ag6
(g10
S'\xf6(\\\x8f\xc2\xf5\xe8?'
p869
tp870
Rp871
ag6
(g10
S'\x9a\x99\x99\x99\x99\x99\xe9?'
p872
tp873
Rp874
ag6
(g10
S'H\xe1z\x14\xaeG\xe9?'
p875
tp876
Rp877
ag6
(g10
S'\xf6(\\\x8f\xc2\xf5\xe8?'
p878
tp879
Rp880
ag6
(g10
S'\x9a\x99\x99\x99\x99\x99\xe9?'
p881
tp882
Rp883
ag6
(g10
S'\xf6(\\\x8f\xc2\xf5\xe8?'
p884
tp885
Rp886
ag6
(g10
S'H\xe1z\x14\xaeG\xe9?'
p887
tp888
Rp889
ag6
(g10
S'\x9a\x99\x99\x99\x99\x99\xe9?'
p890
tp891
Rp892
ag6
(g10
S'H\xe1z\x14\xaeG\xe9?'
p893
tp894
Rp895
ag6
(g10
S'\x9a\x99\x99\x99\x99\x99\xe9?'
p896
tp897
Rp898
ag6
(g10
S'\xf6(\\\x8f\xc2\xf5\xe8?'
p899
tp900
Rp901
ag6
(g10
S'H\xe1z\x14\xaeG\xe9?'
p902
tp903
Rp904
ag6
(g10
S'\xf6(\\\x8f\xc2\xf5\xe8?'
p905
tp906
Rp907
ag6
(g10
S'\xf6(\\\x8f\xc2\xf5\xe8?'
p908
tp909
Rp910
ag6
(g10
S'H\xe1z\x14\xaeG\xe9?'
p911
tp912
Rp913
ag6
(g10
S'\x9a\x99\x99\x99\x99\x99\xe9?'
p914
tp915
Rp916
ag6
(g10
S'\xf6(\\\x8f\xc2\xf5\xe8?'
p917
tp918
Rp919
ag6
(g10
S'H\xe1z\x14\xaeG\xe9?'
p920
tp921
Rp922
ag6
(g10
S'\x9a\x99\x99\x99\x99\x99\xe9?'
p923
tp924
Rp925
ag6
(g10
S'\xf6(\\\x8f\xc2\xf5\xe8?'
p926
tp927
Rp928
aa(lp929
(lp930
I57
aS'rbf'
p931
aF0.5709426377904226
aF0.42317390216886175
aa(lp932
I57
aS'sigmoid'
p933
aF0.1595723569650538
aF0.8103023585592666
aa(lp934
I49
ag933
aF0.19435876032148652
aF0.5369151570789853
aa(lp935
I7
ag931
aF0.30468789887427317
aF0.4798885347349714
aa(lp936
I21
ag933
aF0.7020864810142825
aF0.25894163518619046
aa(lp937
I1
ag931
aF0.16832884721796287
aF0.5115027535979391
aa(lp938
I31
ag931
aF0.9225566597498253
aF0.48769604755082574
aa(lp939
I6
ag931
aF0.8597611591679186
aF0.3202136884612744
aa(lp940
I22
ag933
aF0.28534171242953144
aF0.5626405050622983
aa(lp941
I4
ag931
aF0.4746134989551132
aF0.20394148160107273
aa(lp942
I81
ag931
aF0.49416580971371826
aF0.19567002275551382
aa(lp943
I78
ag931
aF0.5430606361115563
aF0.2822492217648033
aa(lp944
I55
ag933
aF0.1735504442789001
aF0.6419035000755223
aa(lp945
I98
ag931
aF0.5470478094231422
aF0.2753301408945128
aa(lp946
I57
ag931
aF0.3712971600957795
aF0.20646806163149378
aa(lp947
I3
ag931
aF0.8955892982985406
aF0.14271732648642008
aa(lp948
I36
ag933
aF0.7761897802170139
aF0.42657194993075576
aa(lp949
I56
ag931
aF0.5432034290142422
aF0.5426889497404804
aa(lp950
I56
ag931
aF0.9960038938745326
aF0.161341930048736
aa(lp951
I97
ag931
aF0.7314135828335143
aF0.7626204119403427
aa(lp952
I36
ag931
aF0.37304938139743116
aF0.30116290691372627
aa(lp953
I37
ag931
aF0.6803492941236882
aF0.5585385496204761
aa(lp954
I10
ag931
aF0.304061322379546
aF0.11614537749579229
aa(lp955
I20
ag931
aF0.41151698383849566
aF0.12341255175780336
aa(lp956
I62
ag933
aF0.6956624518847326
aF0.14634190045532164
aa(lp957
I40
ag933
aF0.9374471950552217
aF0.2901757392381842
aa(lp958
I80
ag931
aF0.3940077654108164
aF0.1297093656870917
aa(lp959
I82
ag933
aF0.8233744924037134
aF0.11587417211649693
aa(lp960
I41
ag931
aF0.593767824869859
aF0.2032312447934992
aa(lp961
I100
ag931
aF0.4656926970769243
aF0.31495801007916824
aa(lp962
I30
ag931
aF0.27605236601941446
aF0.14694018700196967
aa(lp963
I49
ag931
aF0.28820456296179986
aF0.8556138015222864
aa(lp964
I40
ag931
aF0.7938387088274375
aF0.17055554009884866
aa(lp965
I12
ag933
aF0.9469833493300525
aF0.47895504370181563
aa(lp966
I50
ag933
aF0.9991664181869978
aF0.9298878439294567
aa(lp967
I94
ag931
aF0.7218466428533834
aF0.143289605691995
aa(lp968
I70
ag931
aF0.40426010539316093
aF0.12967135021377602
aa(lp969
I70
ag933
aF0.8966125996940956
aF0.9610234338547846
aa(lp970
I91
ag933
aF0.1352818109602545
aF0.7121687204961484
aa(lp971
I97
ag933
aF0.42039248831032217
aF0.1615270158161574
aa(lp972
I76
ag933
aF0.5954646193670451
aF0.870351516155813
aa(lp973
I13
ag931
aF0.8071096310778074
aF0.1694227830946334
aa(lp974
I10
ag931
aF0.3827518248551244
aF0.3537565563386731
aa(lp975
I3
ag933
aF0.22858659753240654
aF0.4221582034808645
aa(lp976
I1
ag931
aF0.7848814373747591
aF0.10833399477738691
aa(lp977
I94
ag933
aF0.8962498453759656
aF0.4799842085088555
aa(lp978
I30
ag931
aF0.4496416624995866
aF0.5382181017944618
aa(lp979
I3
ag931
aF0.6181520581366665
aF0.16213194050160845
aa(lp980
I8
ag931
aF0.5594576237972969
aF0.2954546618496717
aa(lp981
I67
ag931
aF0.9584809669526637
aF0.14916969961735982
aa(lp982
I62
ag933
aF0.18775733172515652
aF0.314595420385012
aa(lp983
I8
ag931
aF0.6565381975045834
aF0.49190895175100635
aa(lp984
I98
ag933
aF0.5122800136608645
aF0.4220518554185013
aa(lp985
I32
ag933
aF0.6573929904183856
aF0.3074326838746693
aa(lp986
I57
ag931
aF0.6087822612013707
aF0.10252273034591279
aa(lp987
I83
ag931
aF0.49035565735423225
aF0.15083876667986262
aa(lp988
I99
ag933
aF0.7393575669193556
aF0.7723728679476685
aa(lp989
I52
ag931
aF0.37781422639579754
aF0.3246248244889166
aa(lp990
I57
ag931
aF0.9028368304737006
aF0.17007154437016125
aa(lp991
I93
ag933
aF0.7080419237232337
aF0.8432443391066868
aaaF3.707348108291626
ass.