(dp0
S'f1'
p1
(dp2
S'KNN'
p3
(lp4
(lp5
cnumpy.core.multiarray
scalar
p6
(cnumpy
dtype
p7
(S'f8'
p8
I0
I1
tp9
Rp10
(I3
S'<'
p11
NNNI-1
I-1
I0
tp12
bS'\xa4p=\n\xd7\xa3\xc0?'
p13
tp14
Rp15
ag6
(g10
S'\x9a\x99\x99\x99\x99\x99\xc9?'
p16
tp17
Rp18
ag6
(g10
S'\x9a\x99\x99\x99\x99\x99\xc9?'
p19
tp20
Rp21
ag6
(g10
S'\xa4p=\n\xd7\xa3\xc0?'
p22
tp23
Rp24
ag6
(g10
S'\x9a\x99\x99\x99\x99\x99\xc9?'
p25
tp26
Rp27
ag6
(g10
S'\x9a\x99\x99\x99\x99\x99\xc9?'
p28
tp29
Rp30
ag6
(g10
S'\xa4p=\n\xd7\xa3\xc0?'
p31
tp32
Rp33
ag6
(g10
S'\xa4p=\n\xd7\xa3\xc0?'
p34
tp35
Rp36
ag6
(g10
S'\n\xd7\xa3p=\n\xc7?'
p37
tp38
Rp39
ag6
(g10
S'\xa4p=\n\xd7\xa3\xc0?'
p40
tp41
Rp42
ag6
(g10
S'\xa4p=\n\xd7\xa3\xc0?'
p43
tp44
Rp45
ag6
(g10
S'\x9a\x99\x99\x99\x99\x99\xc9?'
p46
tp47
Rp48
ag6
(g10
S'\xe1z\x14\xaeG\xe1\xca?'
p49
tp50
Rp51
ag6
(g10
S'\n\xd7\xa3p=\n\xc7?'
p52
tp53
Rp54
ag6
(g10
S'{\x14\xaeG\xe1z\xc4?'
p55
tp56
Rp57
ag6
(g10
S'\xa4p=\n\xd7\xa3\xc0?'
p58
tp59
Rp60
ag6
(g10
S'\xa4p=\n\xd7\xa3\xc0?'
p61
tp62
Rp63
ag6
(g10
S'\x9a\x99\x99\x99\x99\x99\xc9?'
p64
tp65
Rp66
ag6
(g10
S'333333\xc3?'
p67
tp68
Rp69
ag6
(g10
S'\xa4p=\n\xd7\xa3\xc0?'
p70
tp71
Rp72
aa(lp73
(lp74
I2
aS'distance'
p75
aa(lp76
I3
ag75
aa(lp77
I3
ag75
aa(lp78
I2
ag75
aa(lp79
I8
ag75
aa(lp80
I3
ag75
aa(lp81
I2
ag75
aa(lp82
I2
ag75
aa(lp83
I6
ag75
aa(lp84
I2
ag75
aa(lp85
I2
ag75
aa(lp86
I3
ag75
aa(lp87
I3
aS'uniform'
p88
aa(lp89
I6
ag75
aa(lp90
I4
ag75
aa(lp91
I2
ag75
aa(lp92
I2
ag75
aa(lp93
I8
ag75
aa(lp94
I9
ag75
aa(lp95
I2
ag75
aaa(lp96
I8
aI13
aI13
aI10
aI12
aI14
aI10
aI17
aI10
aI10
aI8
aI13
aI13
aI16
aI19
aI10
aI17
aI12
aI12
aI8
aa(lp97
F0.11226391792297363
aF0.13889598846435547
aF0.13985705375671387
aF0.12308692932128906
aF0.15746307373046875
aF0.14520478248596191
aF0.12580394744873047
aF0.17027902603149414
aF0.12107300758361816
aF0.12682390213012695
aF0.11562585830688477
aF0.1452779769897461
aF0.13967204093933105
aF0.16115808486938477
aF0.17983007431030273
aF0.12075996398925781
aF0.16370105743408203
aF0.13772821426391602
aF0.1328279972076416
aF0.10829997062683105
aasS'DTC'
p98
(lp99
(lp100
g6
(g10
S')\\\x8f\xc2\xf5(\xcc?'
p101
tp102
Rp103
ag6
(g10
S'333333\xc3?'
p104
tp105
Rp106
ag6
(g10
S'\xe1z\x14\xaeG\xe1\xca?'
p107
tp108
Rp109
ag6
(g10
S'\xa4p=\n\xd7\xa3\xd0?'
p110
tp111
Rp112
ag6
(g10
S'\x8f\xc2\xf5(\\\x8f\xd2?'
p113
tp114
Rp115
ag6
(g10
S'\x8f\xc2\xf5(\\\x8f\xd2?'
p116
tp117
Rp118
ag6
(g10
S'\xf6(\\\x8f\xc2\xf5\xd8?'
p119
tp120
Rp121
ag6
(g10
S'\x9a\x99\x99\x99\x99\x99\xc9?'
p122
tp123
Rp124
ag6
(g10
S'H\xe1z\x14\xaeG\xd1?'
p125
tp126
Rp127
ag6
(g10
S'R\xb8\x1e\x85\xebQ\xd8?'
p128
tp129
Rp130
ag6
(g10
S'333333\xc3?'
p131
tp132
Rp133
ag6
(g10
S'\xa4p=\n\xd7\xa3\xc0?'
p134
tp135
Rp136
ag6
(g10
S'\x8f\xc2\xf5(\\\x8f\xd2?'
p137
tp138
Rp139
ag6
(g10
S'\xecQ\xb8\x1e\x85\xeb\xc1?'
p140
tp141
Rp142
ag6
(g10
S')\\\x8f\xc2\xf5(\xcc?'
p143
tp144
Rp145
ag6
(g10
S'\x00\x00\x00\x00\x00\x00\x00\x00'
p146
tp147
Rp148
ag6
(g10
S'\x8f\xc2\xf5(\\\x8f\xd2?'
p149
tp150
Rp151
ag6
(g10
S')\\\x8f\xc2\xf5(\xcc?'
p152
tp153
Rp154
ag6
(g10
S'\x1f\x85\xebQ\xb8\x1e\xd5?'
p155
tp156
Rp157
ag6
(g10
S'\xe1z\x14\xaeG\xe1\xca?'
p158
tp159
Rp160
aa(lp161
(lp162
S'entropy'
p163
aF0.4731708171396415
aI18
aI3
aI20
aa(lp164
g163
aF0.9731837458830083
aI10
aI15
aI10
aa(lp165
g163
aF0.5669108129174206
aI6
aI2
aI13
aa(lp166
g163
aF0.7038113246124461
aI14
aI7
aI6
aa(lp167
g163
aF0.4973310840480557
aI6
aI3
aI20
aa(lp168
S'gini'
p169
aF0.6396908686631366
aI6
aI7
aI20
aa(lp170
g163
aF0.5814775934134274
aI22
aI15
aI21
aa(lp171
g169
aF0.5431747817245893
aI11
aI1
aI20
aa(lp172
g163
aF0.59144204586313
aI6
aI9
aI17
aa(lp173
g163
aF0.3145453482509845
aI17
aI9
aI20
aa(lp174
g169
aF0.9617581387525309
aI15
aI11
aI14
aa(lp175
g163
aF0.6220142930834986
aI10
aI4
aI6
aa(lp176
g163
aF0.4622393047186497
aI2
aI7
aI18
aa(lp177
g163
aF0.5446640420290877
aI17
aI6
aI11
aa(lp178
g169
aF0.8461629403069717
aI2
aI14
aI11
aa(lp179
g163
aF0.6053919964083916
aI21
aI19
aI13
aa(lp180
g163
aF0.4966490582892913
aI7
aI1
aI8
aa(lp181
g163
aF0.7372015601898337
aI22
aI2
aI19
aa(lp182
g169
aF0.3177614910488549
aI6
aI2
aI4
aa(lp183
g169
aF0.4980941287996409
aI5
aI2
aI18
aaa(lp184
I14
aI10
aI13
aI14
aI12
aI14
aI16
aI10
aI13
aI12
aI10
aI14
aI7
aI10
aI8
aI14
aI10
aI10
aI10
aI13
aa(lp185
F0.12653303146362305
aF0.10642004013061523
aF0.12136602401733398
aF0.12339901924133301
aF0.11395406723022461
aF0.131195068359375
aF0.1407608985900879
aF0.10480904579162598
aF0.12011885643005371
aF0.12063288688659668
aF0.10824799537658691
aF0.13491320610046387
aF0.08742690086364746
aF0.10557293891906738
aF0.09509992599487305
aF0.1268301010131836
aF0.1061859130859375
aF0.1117849349975586
aF0.10843396186828613
aF0.12144780158996582
aasS'RF'
p186
(lp187
(lp188
g6
(g10
S'{\x14\xaeG\xe1z\xc4?'
p189
tp190
Rp191
ag6
(g10
S'\xb8\x1e\x85\xebQ\xb8\xce?'
p192
tp193
Rp194
ag6
(g10
S'\n\xd7\xa3p=\n\xc7?'
p195
tp196
Rp197
ag6
(g10
S'333333\xc3?'
p198
tp199
Rp200
ag6
(g10
S'333333\xc3?'
p201
tp202
Rp203
ag6
(g10
S'333333\xc3?'
p204
tp205
Rp206
ag6
(g10
S'333333\xc3?'
p207
tp208
Rp209
ag6
(g10
S'H\xe1z\x14\xaeG\xd1?'
p210
tp211
Rp212
ag6
(g10
S'\n\xd7\xa3p=\n\xc7?'
p213
tp214
Rp215
ag6
(g10
S'\n\xd7\xa3p=\n\xc7?'
p216
tp217
Rp218
ag6
(g10
S')\\\x8f\xc2\xf5(\xcc?'
p219
tp220
Rp221
ag6
(g10
S'\xa4p=\n\xd7\xa3\xc0?'
p222
tp223
Rp224
ag6
(g10
S'333333\xc3?'
p225
tp226
Rp227
ag6
(g10
S')\\\x8f\xc2\xf5(\xcc?'
p228
tp229
Rp230
ag6
(g10
S')\\\x8f\xc2\xf5(\xbc?'
p231
tp232
Rp233
ag6
(g10
S')\\\x8f\xc2\xf5(\xcc?'
p234
tp235
Rp236
ag6
(g10
S'\x00\x00\x00\x00\x00\x00\x00\x00'
p237
tp238
Rp239
ag6
(g10
S'333333\xc3?'
p240
tp241
Rp242
ag6
(g10
S'\x9a\x99\x99\x99\x99\x99\xc9?'
p243
tp244
Rp245
ag6
(g10
S')\\\x8f\xc2\xf5(\xcc?'
p246
tp247
Rp248
aa(lp249
(lp250
g163
aF0.7811840188748062
aI15
aI2
aI68
aa(lp251
g169
aF0.8687309895271876
aI22
aI3
aI56
aa(lp252
g163
aF0.4962079322703795
aI6
aI1
aI33
aa(lp253
g163
aF0.8993960143690441
aI2
aI3
aI26
aa(lp254
g169
aF0.7699683249147643
aI29
aI10
aI20
aa(lp255
g169
aF0.41266763520426564
aI16
aI1
aI36
aa(lp256
g169
aF0.9749296375412781
aI5
aI2
aI78
aa(lp257
g169
aF0.8830941757620279
aI25
aI2
aI98
aa(lp258
g169
aF0.9622843468924606
aI9
aI1
aI62
aa(lp259
g163
aF0.6729232497531517
aI10
aI1
aI49
aa(lp260
g163
aF0.6078023301370327
aI13
aI3
aI68
aa(lp261
g169
aF0.7205088607883068
aI3
aI3
aI44
aa(lp262
g169
aF0.40504679838852
aI5
aI3
aI67
aa(lp263
g163
aF0.5573627181736506
aI23
aI7
aI28
aa(lp264
g163
aF0.6360343102485456
aI13
aI5
aI60
aa(lp265
g163
aF0.9503618607954223
aI16
aI3
aI95
aa(lp266
g169
aF0.5069151708404455
aI8
aI20
aI48
aa(lp267
g169
aF0.4291228872182603
aI23
aI5
aI72
aa(lp268
g163
aF0.6041353722647402
aI7
aI1
aI74
aa(lp269
g169
aF0.7455222518205906
aI21
aI1
aI57
aaa(lp270
I9
aI7
aI8
aI9
aI12
aI14
aI15
aI10
aI14
aI9
aI8
aI10
aI8
aI12
aI9
aI9
aI12
aI12
aI13
aI9
aa(lp271
F21.157013177871704
aF18.261087894439697
aF20.014485120773315
aF19.85789918899536
aF23.443325996398926
aF25.751124143600464
aF27.991336822509766
aF21.834036111831665
aF25.45680284500122
aF20.77625298500061
aF20.91738486289978
aF21.024014949798584
aF18.660181045532227
aF23.144659996032715
aF21.72041416168213
aF20.945334911346436
aF24.178235054016113
aF24.098673105239868
aF25.727632999420166
aF21.90001082420349
aasS'SVM'
p272
(lp273
(lp274
g6
(g10
S'\x9a\x99\x99\x99\x99\x99\xa9?'
p275
tp276
Rp277
ag6
(g10
S'\x00\x00\x00\x00\x00\x00\x00\x00'
p278
tp279
Rp280
ag6
(g10
S'\x00\x00\x00\x00\x00\x00\x00\x00'
p281
tp282
Rp283
ag6
(g10
S'\x00\x00\x00\x00\x00\x00\x00\x00'
p284
tp285
Rp286
ag6
(g10
S'\x9a\x99\x99\x99\x99\x99\xa9?'
p287
tp288
Rp289
ag6
(g10
S'\x00\x00\x00\x00\x00\x00\x00\x00'
p290
tp291
Rp292
ag6
(g10
S'\x9a\x99\x99\x99\x99\x99\xa9?'
p293
tp294
Rp295
ag6
(g10
S'\x00\x00\x00\x00\x00\x00\x00\x00'
p296
tp297
Rp298
ag6
(g10
S'\xecQ\xb8\x1e\x85\xeb\xb1?'
p299
tp300
Rp301
ag6
(g10
S'\x00\x00\x00\x00\x00\x00\x00\x00'
p302
tp303
Rp304
ag6
(g10
S'\x00\x00\x00\x00\x00\x00\x00\x00'
p305
tp306
Rp307
ag6
(g10
S'\xb8\x1e\x85\xebQ\xb8\x9e?'
p308
tp309
Rp310
ag6
(g10
S'\x00\x00\x00\x00\x00\x00\x00\x00'
p311
tp312
Rp313
ag6
(g10
S'\x00\x00\x00\x00\x00\x00\x00\x00'
p314
tp315
Rp316
ag6
(g10
S'\x9a\x99\x99\x99\x99\x99\xa9?'
p317
tp318
Rp319
ag6
(g10
S'\x00\x00\x00\x00\x00\x00\x00\x00'
p320
tp321
Rp322
ag6
(g10
S'\xecQ\xb8\x1e\x85\xeb\xb1?'
p323
tp324
Rp325
ag6
(g10
S'\x9a\x99\x99\x99\x99\x99\xa9?'
p326
tp327
Rp328
ag6
(g10
S'\x9a\x99\x99\x99\x99\x99\xa9?'
p329
tp330
Rp331
ag6
(g10
S'\x00\x00\x00\x00\x00\x00\x00\x00'
p332
tp333
Rp334
aa(lp335
(lp336
I68
aS'sigmoid'
p337
aF0.17062658278856827
aF0.17809716533011805
aa(lp338
I8
aS'rbf'
p339
aF0.5410639810586876
aF0.5592236939651369
aa(lp340
I4
ag339
aF0.307449015111737
aF0.7700878164806305
aa(lp341
I90
ag339
aF0.7262028419220545
aF0.18950112981880662
aa(lp342
I65
ag337
aF0.37485843368897476
aF0.13863120412295213
aa(lp343
I87
ag339
aF0.15246822000252003
aF0.3641884623042875
aa(lp344
I91
ag337
aF0.6381483981271744
aF0.1446366624026461
aa(lp345
I41
ag339
aF0.2486286457300505
aF0.2212207505016507
aa(lp346
I91
ag337
aF0.13485463547677543
aF0.35208460422940213
aa(lp347
I56
ag339
aF0.8260284991139201
aF0.5178472708412185
aa(lp348
I77
ag339
aF0.823613958980494
aF0.4907491242858374
aa(lp349
I52
ag337
aF0.1964475715628356
aF0.6343967265746168
aa(lp350
I73
ag339
aF0.19374607931049953
aF0.462780504000436
aa(lp351
I86
ag339
aF0.24708167102230916
aF0.7130403856733644
aa(lp352
I71
ag337
aF0.12435088659889935
aF0.10585641064393475
aa(lp353
I32
ag337
aF0.4154412752730646
aF0.1403434542441833
aa(lp354
I100
ag337
aF0.20110098623635903
aF0.3684104697414281
aa(lp355
I69
ag337
aF0.1818073487496976
aF0.41031162397469556
aa(lp356
I95
ag337
aF0.33848709811454714
aF0.5686389282461143
aa(lp357
I52
ag339
aF0.7321217739855531
aF0.7721809768484218
aaa(lp358
I12
aI7
aI9
aI9
aI13
aI12
aI10
aI8
aI10
aI9
aI12
aI12
aI8
aI12
aI10
aI13
aI9
aI9
aI10
aI10
aa(lp359
F0.1361219882965088
aF0.10766911506652832
aF0.12672996520996094
aF0.12633299827575684
aF0.14576506614685059
aF0.14300084114074707
aF0.13480186462402344
aF0.11955595016479492
aF0.13177704811096191
aF0.12614202499389648
aF0.14607810974121094
aF0.1474609375
aF0.11695504188537598
aF0.1516399383544922
aF0.13224005699157715
aF0.155548095703125
aF0.13056492805480957
aF0.11983799934387207
aF0.13614892959594727
aF0.12981200218200684
aassS'precision'
p360
(dp361
g3
(lp362
(lp363
g6
(g10
S'R\xb8\x1e\x85\xebQ\xc8?'
p364
tp365
Rp366
ag6
(g10
S'\x9a\x99\x99\x99\x99\x99\xb9?'
p367
tp368
Rp369
ag6
(g10
S'\xc3\xf5(\\\x8f\xc2\xc5?'
p370
tp371
Rp372
ag6
(g10
S'{\x14\xaeG\xe1z\xb4?'
p373
tp374
Rp375
ag6
(g10
S'R\xb8\x1e\x85\xebQ\xc8?'
p376
tp377
Rp378
ag6
(g10
S'R\xb8\x1e\x85\xebQ\xc8?'
p379
tp380
Rp381
ag6
(g10
S'\n\xd7\xa3p=\n\xc7?'
p382
tp383
Rp384
ag6
(g10
S'{\x14\xaeG\xe1z\xb4?'
p385
tp386
Rp387
ag6
(g10
S'R\xb8\x1e\x85\xebQ\xc8?'
p388
tp389
Rp390
ag6
(g10
S'\xa4p=\n\xd7\xa3\xc0?'
p391
tp392
Rp393
ag6
(g10
S'\xe1z\x14\xaeG\xe1\xca?'
p394
tp395
Rp396
ag6
(g10
S'\x9a\x99\x99\x99\x99\x99\xb9?'
p397
tp398
Rp399
ag6
(g10
S'{\x14\xaeG\xe1z\xb4?'
p400
tp401
Rp402
ag6
(g10
S'\x9a\x99\x99\x99\x99\x99\xb9?'
p403
tp404
Rp405
ag6
(g10
S'\x9a\x99\x99\x99\x99\x99\xa9?'
p406
tp407
Rp408
ag6
(g10
S'{\x14\xaeG\xe1z\xc4?'
p409
tp410
Rp411
ag6
(g10
S'{\x14\xaeG\xe1z\xb4?'
p412
tp413
Rp414
ag6
(g10
S'\xe1z\x14\xaeG\xe1\xca?'
p415
tp416
Rp417
ag6
(g10
S'{\x14\xaeG\xe1z\xc4?'
p418
tp419
Rp420
ag6
(g10
S'\xc3\xf5(\\\x8f\xc2\xc5?'
p421
tp422
Rp423
aa(lp424
(lp425
I9
ag75
aa(lp426
I2
ag75
aa(lp427
I3
ag88
aa(lp428
I2
ag88
aa(lp429
I9
ag75
aa(lp430
I9
ag75
aa(lp431
I10
ag75
aa(lp432
I2
ag88
aa(lp433
I9
ag75
aa(lp434
I4
ag75
aa(lp435
I8
ag75
aa(lp436
I2
ag75
aa(lp437
I2
ag88
aa(lp438
I2
ag75
aa(lp439
I4
ag88
aa(lp440
I3
ag75
aa(lp441
I2
ag88
aa(lp442
I8
ag75
aa(lp443
I3
ag75
aa(lp444
I3
ag88
aaa(lp445
I12
aI8
aI12
aI12
aI12
aI8
aI9
aI8
aI8
aI14
aI9
aI9
aI12
aI10
aI12
aI13
aI10
aI10
aI9
aI9
aa(lp446
F0.1401519775390625
aF0.11800599098205566
aF0.14432001113891602
aF0.1410531997680664
aF0.1419219970703125
aF0.11706900596618652
aF0.12223482131958008
aF0.11569094657897949
aF0.11484003067016602
aF0.15611982345581055
aF0.12166404724121094
aF0.1269068717956543
aF0.14125514030456543
aF0.1272120475769043
aF0.13846206665039062
aF0.14572501182556152
aF0.12865185737609863
aF0.12872910499572754
aF0.12290382385253906
aF0.1220250129699707
aasg98
(lp447
(lp448
g6
(g10
S'H\xe1z\x14\xaeG\xd1?'
p449
tp450
Rp451
ag6
(g10
S')\\\x8f\xc2\xf5(\xbc?'
p452
tp453
Rp454
ag6
(g10
S')\\\x8f\xc2\xf5(\xbc?'
p455
tp456
Rp457
ag6
(g10
S'\x9a\x99\x99\x99\x99\x99\xc9?'
p458
tp459
Rp460
ag6
(g10
S'\x00\x00\x00\x00\x00\x00\x00\x00'
p461
tp462
Rp463
ag6
(g10
S'\x00\x00\x00\x00\x00\x00\x00\x00'
p464
tp465
Rp466
ag6
(g10
S'ffffff\xd6?'
p467
tp468
Rp469
ag6
(g10
S'\xd7\xa3p=\n\xd7\xd3?'
p470
tp471
Rp472
ag6
(g10
S'333333\xc3?'
p473
tp474
Rp475
ag6
(g10
S'\xa4p=\n\xd7\xa3\xc0?'
p476
tp477
Rp478
ag6
(g10
S'\x9a\x99\x99\x99\x99\x99\xb9?'
p479
tp480
Rp481
ag6
(g10
S'\xecQ\xb8\x1e\x85\xeb\xc1?'
p482
tp483
Rp484
ag6
(g10
S'333333\xc3?'
p485
tp486
Rp487
ag6
(g10
S'{\x14\xaeG\xe1z\xc4?'
p488
tp489
Rp490
ag6
(g10
S'\xc3\xf5(\\\x8f\xc2\xc5?'
p491
tp492
Rp493
ag6
(g10
S'\xb8\x1e\x85\xebQ\xb8\xbe?'
p494
tp495
Rp496
ag6
(g10
S')\\\x8f\xc2\xf5(\xcc?'
p497
tp498
Rp499
ag6
(g10
S'\xe1z\x14\xaeG\xe1\xda?'
p500
tp501
Rp502
ag6
(g10
S'\xd7\xa3p=\n\xd7\xd3?'
p503
tp504
Rp505
ag6
(g10
S'\xb8\x1e\x85\xebQ\xb8\xae?'
p506
tp507
Rp508
aa(lp509
(lp510
g169
aF0.4876291605352574
aI23
aI5
aI11
aa(lp511
g163
aF0.6584918445185454
aI20
aI9
aI20
aa(lp512
g169
aF0.9681362099722652
aI15
aI11
aI13
aa(lp513
g163
aF0.11964398957008926
aI25
aI1
aI15
aa(lp514
g169
aF0.7814624791368986
aI26
aI18
aI11
aa(lp515
g163
aF0.8113066420719363
aI8
aI19
aI15
aa(lp516
g163
aF0.3468614632195269
aI14
aI14
aI3
aa(lp517
g163
aF0.5738032594218293
aI15
aI12
aI10
aa(lp518
g163
aF0.1870582868615642
aI5
aI4
aI9
aa(lp519
g163
aF0.6692582608078551
aI5
aI7
aI17
aa(lp520
g169
aF0.5256283045421161
aI21
aI11
aI15
aa(lp521
g163
aF0.369220242769703
aI11
aI4
aI14
aa(lp522
g163
aF0.5620749302052138
aI5
aI6
aI13
aa(lp523
g163
aF0.9985980566612895
aI14
aI6
aI20
aa(lp524
g163
aF0.5501867479099852
aI26
aI8
aI20
aa(lp525
g163
aF0.8912803412591073
aI16
aI6
aI20
aa(lp526
g163
aF0.13736491791627187
aI24
aI3
aI7
aa(lp527
g169
aF0.2616979727117882
aI10
aI11
aI12
aa(lp528
g163
aF0.5901987458363579
aI13
aI12
aI12
aa(lp529
g163
aF0.1825664638596876
aI17
aI5
aI20
aaa(lp530
I13
aI12
aI12
aI10
aI13
aI15
aI12
aI8
aI13
aI10
aI13
aI24
aI12
aI9
aI12
aI12
aI19
aI12
aI14
aI12
aa(lp531
F0.12642598152160645
aF0.11789703369140625
aF0.12389802932739258
aF0.10512304306030273
aF0.13019990921020508
aF0.1354358196258545
aF0.1183619499206543
aF0.09681200981140137
aF0.12172794342041016
aF0.10919499397277832
aF0.1255650520324707
aF0.19192004203796387
aF0.12128305435180664
aF0.10262393951416016
aF0.12415909767150879
aF0.12331604957580566
aF0.1617569923400879
aF0.11883211135864258
aF0.13198089599609375
aF0.11601805686950684
aasg186
(lp532
(lp533
g6
(g10
S')\\\x8f\xc2\xf5(\xbc?'
p534
tp535
Rp536
ag6
(g10
S'\xa4p=\n\xd7\xa3\xc0?'
p537
tp538
Rp539
ag6
(g10
S'\n\xd7\xa3p=\n\xc7?'
p540
tp541
Rp542
ag6
(g10
S'\xa4p=\n\xd7\xa3\xc0?'
p543
tp544
Rp545
ag6
(g10
S'\x00\x00\x00\x00\x00\x00\x00\x00'
p546
tp547
Rp548
ag6
(g10
S'R\xb8\x1e\x85\xebQ\xc8?'
p549
tp550
Rp551
ag6
(g10
S'{\x14\xaeG\xe1z\xc4?'
p552
tp553
Rp554
ag6
(g10
S'\xa4p=\n\xd7\xa3\xc0?'
p555
tp556
Rp557
ag6
(g10
S')\\\x8f\xc2\xf5(\xcc?'
p558
tp559
Rp560
ag6
(g10
S'\x9a\x99\x99\x99\x99\x99\xc9?'
p561
tp562
Rp563
ag6
(g10
S'\x8f\xc2\xf5(\\\x8f\xd2?'
p564
tp565
Rp566
ag6
(g10
S'\n\xd7\xa3p=\n\xc7?'
p567
tp568
Rp569
ag6
(g10
S'333333\xc3?'
p570
tp571
Rp572
ag6
(g10
S'{\x14\xaeG\xe1z\xc4?'
p573
tp574
Rp575
ag6
(g10
S'\x00\x00\x00\x00\x00\x00\x00\x00'
p576
tp577
Rp578
ag6
(g10
S'\xa4p=\n\xd7\xa3\xc0?'
p579
tp580
Rp581
ag6
(g10
S'\x9a\x99\x99\x99\x99\x99\xd9?'
p582
tp583
Rp584
ag6
(g10
S'\x00\x00\x00\x00\x00\x00\xd0?'
p585
tp586
Rp587
ag6
(g10
S'\xa4p=\n\xd7\xa3\xd0?'
p588
tp589
Rp590
ag6
(g10
S'\xa4p=\n\xd7\xa3\xd0?'
p591
tp592
Rp593
aa(lp594
(lp595
g169
aF0.6940635644032537
aI12
aI6
aI52
aa(lp596
g163
aF0.6463569240255533
aI7
aI2
aI30
aa(lp597
g163
aF0.7452222155394786
aI10
aI3
aI94
aa(lp598
g163
aF0.823296164560918
aI8
aI1
aI33
aa(lp599
g163
aF0.7913337347728117
aI7
aI17
aI77
aa(lp600
g169
aF0.9407025565375913
aI13
aI1
aI37
aa(lp601
g163
aF0.9265165194080136
aI4
aI1
aI60
aa(lp602
g169
aF0.8943137679757991
aI10
aI7
aI36
aa(lp603
g163
aF0.649712525913993
aI8
aI2
aI94
aa(lp604
g169
aF0.9585630985954771
aI16
aI5
aI49
aa(lp605
g169
aF0.8383506644126159
aI19
aI7
aI87
aa(lp606
g163
aF0.9842168239671315
aI19
aI1
aI90
aa(lp607
g169
aF0.41449572653077893
aI3
aI1
aI85
aa(lp608
g163
aF0.457861782821258
aI11
aI2
aI40
aa(lp609
g163
aF0.3065762645146928
aI13
aI9
aI90
aa(lp610
g163
aF0.8946244524863755
aI12
aI3
aI41
aa(lp611
g169
aF0.33301544295798247
aI17
aI9
aI29
aa(lp612
g163
aF0.54641447459453
aI17
aI2
aI44
aa(lp613
g163
aF0.46718320283542936
aI10
aI4
aI20
aa(lp614
g163
aF0.10232050664218602
aI5
aI1
aI11
aaa(lp615
I9
aI9
aI8
aI9
aI13
aI9
aI9
aI9
aI8
aI9
aI7
aI10
aI8
aI10
aI7
aI7
aI9
aI8
aI9
aI8
aa(lp616
F19.890331983566284
aF20.315868854522705
aF19.862192153930664
aF20.752413988113403
aF24.770875930786133
aF21.132137060165405
aF20.492382049560547
aF20.546913146972656
aF19.262338161468506
aF20.589452028274536
aF18.110625982284546
aF21.767394065856934
aF20.14406394958496
aF22.47344398498535
aF19.010860919952393
aF18.313422918319702
aF20.046322107315063
aF19.910778999328613
aF21.414725065231323
aF19.915199995040894
aasg272
(lp617
(lp618
g6
(g10
S'\x00\x00\x00\x00\x00\x00\x00\x00'
p619
tp620
Rp621
ag6
(g10
S'\x00\x00\x00\x00\x00\x00\x00\x00'
p622
tp623
Rp624
ag6
(g10
S'\x00\x00\x00\x00\x00\x00\x00\x00'
p625
tp626
Rp627
ag6
(g10
S'\x00\x00\x00\x00\x00\x00\x00\x00'
p628
tp629
Rp630
ag6
(g10
S'\x00\x00\x00\x00\x00\x00\x00\x00'
p631
tp632
Rp633
ag6
(g10
S'\x00\x00\x00\x00\x00\x00\x00\x00'
p634
tp635
Rp636
ag6
(g10
S'\x00\x00\x00\x00\x00\x00\x00\x00'
p637
tp638
Rp639
ag6
(g10
S'\x00\x00\x00\x00\x00\x00\x00\x00'
p640
tp641
Rp642
ag6
(g10
S'\x00\x00\x00\x00\x00\x00\x00\x00'
p643
tp644
Rp645
ag6
(g10
S'\x00\x00\x00\x00\x00\x00\x00\x00'
p646
tp647
Rp648
ag6
(g10
S'\x00\x00\x00\x00\x00\x00\x00\x00'
p649
tp650
Rp651
ag6
(g10
S'\x00\x00\x00\x00\x00\x00\x00\x00'
p652
tp653
Rp654
ag6
(g10
S'\x00\x00\x00\x00\x00\x00\x00\x00'
p655
tp656
Rp657
ag6
(g10
S'\x00\x00\x00\x00\x00\x00\x00\x00'
p658
tp659
Rp660
ag6
(g10
S'\x00\x00\x00\x00\x00\x00\x00\x00'
p661
tp662
Rp663
ag6
(g10
S'\x00\x00\x00\x00\x00\x00\x00\x00'
p664
tp665
Rp666
ag6
(g10
S'\x00\x00\x00\x00\x00\x00\x00\x00'
p667
tp668
Rp669
ag6
(g10
S'\x00\x00\x00\x00\x00\x00\x00\x00'
p670
tp671
Rp672
ag6
(g10
S'\x00\x00\x00\x00\x00\x00\x00\x00'
p673
tp674
Rp675
ag6
(g10
S'\x00\x00\x00\x00\x00\x00\x00\x00'
p676
tp677
Rp678
aa(lp679
(lp680
I71
ag339
aF0.6791702464148837
aF0.24925457894936984
aa(lp681
I58
ag339
aF0.9127711254170172
aF0.33957470415930713
aa(lp682
I91
ag339
aF0.47015581806952167
aF0.5540168261617259
aa(lp683
I37
ag339
aF0.9703097522658126
aF0.7012757778577858
aa(lp684
I53
ag339
aF0.8176439858368104
aF0.7461370674601355
aa(lp685
I59
ag339
aF0.19239597818963367
aF0.9271773332170032
aa(lp686
I57
ag339
aF0.3291506694220891
aF0.9781502250332359
aa(lp687
I52
ag339
aF0.15950234088467272
aF0.22154885891803044
aa(lp688
I59
ag339
aF0.7460282596038401
aF0.5286828425463406
aa(lp689
I80
ag339
aF0.14308051268228977
aF0.5744099808661458
aa(lp690
I54
ag339
aF0.46612459406092066
aF0.22248530634223584
aa(lp691
I75
ag339
aF0.6069368214663382
aF0.5332287295628008
aa(lp692
I87
ag339
aF0.16666386455588228
aF0.3661355240697165
aa(lp693
I81
ag339
aF0.771089324636252
aF0.6182355180736195
aa(lp694
I54
ag339
aF0.5865790515023049
aF0.7087583060560085
aa(lp695
I26
ag339
aF0.4449842008321968
aF0.7767393797126231
aa(lp696
I67
ag339
aF0.30807332042675595
aF0.2552408606742424
aa(lp697
I12
ag339
aF0.37729786674066546
aF0.7898770231625739
aa(lp698
I96
ag339
aF0.9365052454227653
aF0.5879214552739654
aa(lp699
I63
ag339
aF0.7096730378789523
aF0.3966434669654134
aaa(lp700
I9
aI12
aI9
aI10
aI9
aI10
aI10
aI9
aI9
aI8
aI8
aI8
aI12
aI10
aI10
aI14
aI9
aI12
aI7
aI8
aa(lp701
F0.14827799797058105
aF0.15430903434753418
aF0.1321859359741211
aF0.13177895545959473
aF0.12892699241638184
aF0.13702106475830078
aF0.13977503776550293
aF0.12680292129516602
aF0.15673589706420898
aF0.12611603736877441
aF0.12360906600952148
aF0.11918997764587402
aF0.14481306076049805
aF0.12905383110046387
aF0.14166688919067383
aF0.16128921508789062
aF0.13088703155517578
aF0.15169310569763184
aF0.11908817291259766
aF0.11658000946044922
aassS'popt20'
p702
(dp703
g3
(lp704
(lp705
F0.264
aF0.264
aF0.264
aF0.233
aF0.264
aF0.31
aF0.256
aF0.31
aF0.256
aF0.264
aF0.256
aF0.264
aF0.264
aF0.31
aF0.163
aF0.264
aF0.264
aF0.256
aF0.264
aF0.256
aa(lp706
(lp707
I8
ag88
aa(lp708
I8
ag88
aa(lp709
I8
ag88
aa(lp710
I9
ag75
aa(lp711
I8
ag88
aa(lp712
I10
ag88
aa(lp713
I6
ag88
aa(lp714
I10
ag88
aa(lp715
I6
ag88
aa(lp716
I8
ag88
aa(lp717
I10
ag75
aa(lp718
I8
ag88
aa(lp719
I8
ag75
aa(lp720
I10
ag88
aa(lp721
I4
ag88
aa(lp722
I8
ag75
aa(lp723
I8
ag88
aa(lp724
I6
ag88
aa(lp725
I8
ag88
aa(lp726
I10
ag75
aaa(lp727
I7
aI9
aI8
aI8
aI16
aI13
aI14
aI14
aI10
aI12
aI16
aI10
aI16
aI10
aI10
aI14
aI12
aI10
aI15
aI10
aa(lp728
F0.24639010429382324
aF0.2626368999481201
aF0.25348997116088867
aF0.2653520107269287
aF0.3712902069091797
aF0.33035993576049805
aF0.3401789665222168
aF0.3475799560546875
aF0.3069632053375244
aF0.3358020782470703
aF0.387498140335083
aF0.2835381031036377
aF0.372128963470459
aF0.278609037399292
aF0.2771170139312744
aF0.33435893058776855
aF0.31053996086120605
aF0.28453993797302246
aF0.35724806785583496
aF0.2837409973144531
aasg98
(lp729
(lp730
F0.194
aF0.264
aF0.264
aF0.085
aF0.155
aF0.155
aF0.264
aF0.264
aF0.264
aF0.264
aF0.264
aF0.264
aF0.248
aF0.264
aF0.264
aF0.178
aF0.256
aF0.264
aF0.264
aF0.194
aa(lp731
(lp732
g163
aF0.554108360289249
aI29
aI21
aI12
aa(lp733
g169
aF0.3154194059982057
aI14
aI19
aI17
aa(lp734
g163
aF0.13285770226168644
aI9
aI18
aI21
aa(lp735
g169
aF0.2541867696450947
aI28
aI21
aI8
aa(lp736
g163
aF0.34480000660693844
aI7
aI21
aI11
aa(lp737
g169
aF0.11876884552272339
aI9
aI20
aI4
aa(lp738
g169
aF0.7008293639395237
aI29
aI5
aI2
aa(lp739
g163
aF0.7045111972522905
aI25
aI21
aI21
aa(lp740
g163
aF0.40010276614302986
aI29
aI16
aI16
aa(lp741
g169
aF0.8302549539864225
aI25
aI18
aI5
aa(lp742
g163
aF0.28479511641471167
aI10
aI19
aI1
aa(lp743
g163
aF0.4423631581087544
aI3
aI17
aI9
aa(lp744
g169
aF0.7854384508124482
aI27
aI8
aI7
aa(lp745
g163
aF0.4814954495597855
aI5
aI18
aI16
aa(lp746
g169
aF0.4323610172575737
aI27
aI21
aI17
aa(lp747
g169
aF0.8070071359800198
aI12
aI5
aI19
aa(lp748
g163
aF0.29666027551743657
aI10
aI15
aI14
aa(lp749
g169
aF0.23219348379452856
aI8
aI21
aI12
aa(lp750
g163
aF0.1877169375823255
aI6
aI14
aI6
aa(lp751
g163
aF0.58378245288646
aI11
aI20
aI5
aaa(lp752
I9
aI10
aI16
aI9
aI10
aI10
aI12
aI10
aI9
aI8
aI8
aI14
aI12
aI13
aI10
aI13
aI13
aI13
aI10
aI10
aa(lp753
F0.2448880672454834
aF0.2768068313598633
aF0.3403191566467285
aF0.24562501907348633
aF0.26535987854003906
aF0.2619190216064453
aF0.2843961715698242
aF0.26248598098754883
aF0.24566292762756348
aF0.25226712226867676
aF0.2417287826538086
aF0.32638978958129883
aF0.29900407791137695
aF0.3096780776977539
aF0.26981091499328613
aF0.310985803604126
aF0.3035240173339844
aF0.30397605895996094
aF0.272752046585083
aF0.2606029510498047
aasg186
(lp754
(lp755
F0.264
aF0.264
aF0.264
aF0.264
aF0.264
aF0.186
aF0.256
aF0.264
aF0.264
aF0.264
aF0.264
aF0.256
aF0.264
aF0.264
aF0.264
aF0.264
aF0.264
aF0.248
aF0.264
aF0.264
aa(lp756
(lp757
g169
aF0.7809419836647746
aI29
aI18
aI96
aa(lp758
g163
aF0.23536804876677367
aI25
aI9
aI75
aa(lp759
g169
aF0.9308891692066589
aI7
aI18
aI63
aa(lp760
g169
aF0.3421583871138155
aI20
aI13
aI33
aa(lp761
g163
aF0.9961441245004843
aI26
aI20
aI76
aa(lp762
g169
aF0.5612390941051401
aI4
aI7
aI14
aa(lp763
g169
aF0.8110011109226364
aI11
aI15
aI23
aa(lp764
g169
aF0.23139143803483786
aI15
aI10
aI13
aa(lp765
g169
aF0.6293723618280241
aI22
aI16
aI11
aa(lp766
g169
aF0.28236061832834486
aI24
aI12
aI35
aa(lp767
g163
aF0.12974600544227466
aI29
aI8
aI62
aa(lp768
g169
aF0.8616223472114165
aI10
aI13
aI95
aa(lp769
g163
aF0.8888392850762259
aI20
aI18
aI94
aa(lp770
g169
aF0.31746783939787204
aI15
aI16
aI25
aa(lp771
g169
aF0.9310780079006024
aI11
aI19
aI92
aa(lp772
g163
aF0.1811216069456757
aI2
aI21
aI22
aa(lp773
g163
aF0.9845476531164483
aI13
aI18
aI32
aa(lp774
g163
aF0.1923607628472625
aI30
aI1
aI97
aa(lp775
g169
aF0.7778185639741856
aI27
aI18
aI65
aa(lp776
g169
aF0.6296339538392762
aI8
aI16
aI95
aaa(lp777
I12
aI10
aI7
aI8
aI10
aI14
aI10
aI13
aI16
aI8
aI7
aI9
aI13
aI8
aI9
aI10
aI15
aI8
aI10
aI9
aa(lp778
F24.542622089385986
aF22.278789043426514
aF19.097268104553223
aF20.06432294845581
aF20.446906805038452
aF25.48079800605774
aF22.060198068618774
aF25.183188915252686
aF27.479545831680298
aF19.546706914901733
aF17.544118881225586
aF21.32366418838501
aF26.712098836898804
aF19.712828874588013
aF21.529579877853394
aF22.900577068328857
aF27.571736812591553
aF20.265321969985962
aF23.079830169677734
aF21.08836603164673
aasg272
(lp779
(lp780
F0.264
aF0.264
aF0.264
aF0.256
aF0.256
aF0.264
aF0.264
aF0.264
aF0.264
aF0.264
aF0.202
aF0.147
aF0.264
aF0.256
aF0.264
aF0.264
aF0.264
aF0.264
aF0.264
aF0.264
aa(lp781
(lp782
I52
ag339
aF0.13681785028855836
aF0.4766793466565321
aa(lp783
I49
ag339
aF0.16646086914546815
aF0.8521956327223069
aa(lp784
I52
ag339
aF0.9398106201280831
aF0.8693491739048277
aa(lp785
I91
ag339
aF0.9219810612942275
aF0.15620376064042146
aa(lp786
I90
ag339
aF0.34351547930372484
aF0.15262732718446417
aa(lp787
I27
ag339
aF0.8849778081373848
aF0.5406723883661768
aa(lp788
I3
ag337
aF0.32584485539045294
aF0.6477414981221005
aa(lp789
I3
ag337
aF0.6171787308625734
aF0.12218857645986292
aa(lp790
I76
ag339
aF0.22959582875953538
aF0.9594426786746396
aa(lp791
I94
ag339
aF0.9972198060319157
aF0.26779291717144443
aa(lp792
I24
ag337
aF0.4235110385282569
aF0.14623921238340454
aa(lp793
I82
ag337
aF0.21686047459342467
aF0.8134721045851715
aa(lp794
I4
ag339
aF0.7003976107139928
aF0.6448482375471932
aa(lp795
I56
ag339
aF0.43095996460855146
aF0.19791410211374605
aa(lp796
I40
ag339
aF0.6697286475838726
aF0.49416580971371826
aa(lp797
I92
ag339
aF0.14163086522633672
aF0.4915819100129162
aa(lp798
I37
ag339
aF0.6086274371113479
aF0.8323175576976746
aa(lp799
I15
ag339
aF0.5662720258053678
aF0.33003445990080865
aa(lp800
I30
ag339
aF0.6218733203492033
aF0.3914187735471353
aa(lp801
I1
ag339
aF0.7850314171821386
aF0.9577219474606176
aaa(lp802
I10
aI12
aI13
aI12
aI13
aI13
aI15
aI12
aI13
aI12
aI12
aI13
aI10
aI9
aI9
aI16
aI12
aI12
aI6
aI9
aa(lp803
F0.2897658348083496
aF0.3210759162902832
aF0.32225894927978516
aF0.3102598190307617
aF0.3279139995574951
aF0.3194098472595215
aF0.3518650531768799
aF0.3229100704193115
aF0.33941197395324707
aF0.3157961368560791
aF0.3348679542541504
aF0.3569769859313965
aF0.29344987869262695
aF0.2827019691467285
aF0.2884180545806885
aF0.3814280033111572
aF0.3226752281188965
aF0.32141995429992676
aF0.23117995262145996
aF0.2773759365081787
aass.