(dp0
S'f1'
p1
(dp2
S'KNN'
p3
(lp4
(lp5
cnumpy.core.multiarray
scalar
p6
(cnumpy
dtype
p7
(S'f8'
p8
I0
I1
tp9
Rp10
(I3
S'<'
p11
NNNI-1
I-1
I0
tp12
bS'\xecQ\xb8\x1e\x85\xeb\xe1?'
p13
tp14
Rp15
ag6
(g10
S'=\n\xd7\xa3p=\xe2?'
p16
tp17
Rp18
ag6
(g10
S'=\n\xd7\xa3p=\xe2?'
p19
tp20
Rp21
ag6
(g10
S'333333\xe3?'
p22
tp23
Rp24
ag6
(g10
S'=\n\xd7\xa3p=\xe2?'
p25
tp26
Rp27
ag6
(g10
S'\xecQ\xb8\x1e\x85\xeb\xe1?'
p28
tp29
Rp30
ag6
(g10
S'=\n\xd7\xa3p=\xe2?'
p31
tp32
Rp33
ag6
(g10
S'=\n\xd7\xa3p=\xe2?'
p34
tp35
Rp36
ag6
(g10
S'=\n\xd7\xa3p=\xe2?'
p37
tp38
Rp39
ag6
(g10
S'=\n\xd7\xa3p=\xe2?'
p40
tp41
Rp42
ag6
(g10
S'\xecQ\xb8\x1e\x85\xeb\xe1?'
p43
tp44
Rp45
ag6
(g10
S'=\n\xd7\xa3p=\xe2?'
p46
tp47
Rp48
ag6
(g10
S'\xecQ\xb8\x1e\x85\xeb\xe1?'
p49
tp50
Rp51
ag6
(g10
S'=\n\xd7\xa3p=\xe2?'
p52
tp53
Rp54
ag6
(g10
S'H\xe1z\x14\xaeG\xe1?'
p55
tp56
Rp57
ag6
(g10
S'\xecQ\xb8\x1e\x85\xeb\xe1?'
p58
tp59
Rp60
ag6
(g10
S'\xe1z\x14\xaeG\xe1\xe2?'
p61
tp62
Rp63
ag6
(g10
S'333333\xe3?'
p64
tp65
Rp66
ag6
(g10
S'H\xe1z\x14\xaeG\xe1?'
p67
tp68
Rp69
ag6
(g10
S'H\xe1z\x14\xaeG\xe1?'
p70
tp71
Rp72
aa(lp73
(lp74
I5
aS'distance'
p75
aa(lp76
I8
ag75
aa(lp77
I7
ag75
aa(lp78
I3
aS'uniform'
p79
aa(lp80
I4
ag75
aa(lp81
I10
ag75
aa(lp82
I8
ag75
aa(lp83
I7
ag75
aa(lp84
I8
ag75
aa(lp85
I7
ag75
aa(lp86
I10
ag75
aa(lp87
I8
ag75
aa(lp88
I10
ag75
aa(lp89
I8
ag75
aa(lp90
I9
ag75
aa(lp91
I10
ag75
aa(lp92
I6
ag75
aa(lp93
I3
ag75
aa(lp94
I9
ag79
aa(lp95
I9
ag75
aaa(lp96
I12
aI10
aI14
aI13
aI13
aI8
aI13
aI8
aI10
aI8
aI14
aI12
aI14
aI9
aI15
aI8
aI15
aI8
aI9
aI13
aa(lp97
F0.14368104934692383
aF0.1303730010986328
aF0.15797185897827148
aF0.15285396575927734
aF0.1515810489654541
aF0.11874818801879883
aF0.15172481536865234
aF0.11768603324890137
aF0.13049101829528809
aF0.11716699600219727
aF0.15900182723999023
aF0.14562010765075684
aF0.15751218795776367
aF0.1244659423828125
aF0.16421079635620117
aF0.11915111541748047
aF0.16769695281982422
aF0.11744403839111328
aF0.12365007400512695
aF0.15085816383361816
aasS'DTC'
p98
(lp99
(lp100
g6
(g10
S'H\xe1z\x14\xaeG\xe1?'
p101
tp102
Rp103
ag6
(g10
S'\x85\xebQ\xb8\x1e\x85\xe3?'
p104
tp105
Rp106
ag6
(g10
S'\x9a\x99\x99\x99\x99\x99\xe1?'
p107
tp108
Rp109
ag6
(g10
S'\xa4p=\n\xd7\xa3\xe0?'
p110
tp111
Rp112
ag6
(g10
S'H\xe1z\x14\xaeG\xe1?'
p113
tp114
Rp115
ag6
(g10
S'\x9a\x99\x99\x99\x99\x99\xe1?'
p116
tp117
Rp118
ag6
(g10
S'\xe1z\x14\xaeG\xe1\xe2?'
p119
tp120
Rp121
ag6
(g10
S'\xa4p=\n\xd7\xa3\xe0?'
p122
tp123
Rp124
ag6
(g10
S'\xd7\xa3p=\n\xd7\xe3?'
p125
tp126
Rp127
ag6
(g10
S'\x8f\xc2\xf5(\\\x8f\xe2?'
p128
tp129
Rp130
ag6
(g10
S'\xf6(\\\x8f\xc2\xf5\xe0?'
p131
tp132
Rp133
ag6
(g10
S'\xa4p=\n\xd7\xa3\xe0?'
p134
tp135
Rp136
ag6
(g10
S'\xd7\xa3p=\n\xd7\xe3?'
p137
tp138
Rp139
ag6
(g10
S'\xe1z\x14\xaeG\xe1\xe2?'
p140
tp141
Rp142
ag6
(g10
S'H\xe1z\x14\xaeG\xe1?'
p143
tp144
Rp145
ag6
(g10
S'\x9a\x99\x99\x99\x99\x99\xe1?'
p146
tp147
Rp148
ag6
(g10
S'\xf6(\\\x8f\xc2\xf5\xe0?'
p149
tp150
Rp151
ag6
(g10
S'\xd7\xa3p=\n\xd7\xe3?'
p152
tp153
Rp154
ag6
(g10
S'333333\xe3?'
p155
tp156
Rp157
ag6
(g10
S'\x14\xaeG\xe1z\x14\xde?'
p158
tp159
Rp160
aa(lp161
(lp162
S'entropy'
p163
aF0.30313220197380164
aI14
aI1
aI4
aa(lp164
g163
aF0.6704354984427229
aI12
aI3
aI5
aa(lp165
S'gini'
p166
aF0.6008950249377324
aI10
aI2
aI4
aa(lp167
g163
aF0.7722027224387579
aI19
aI12
aI13
aa(lp168
g163
aF0.10511568422472652
aI4
aI3
aI14
aa(lp169
g166
aF0.31658834339065856
aI17
aI1
aI7
aa(lp170
g163
aF0.22278064225985222
aI24
aI12
aI4
aa(lp171
g166
aF0.5380093331615949
aI21
aI4
aI12
aa(lp172
g163
aF0.8735957749967814
aI30
aI6
aI8
aa(lp173
g163
aF0.927819026814546
aI30
aI18
aI8
aa(lp174
g163
aF0.2813613169009479
aI12
aI4
aI21
aa(lp175
g163
aF0.1805422134209307
aI5
aI19
aI20
aa(lp176
g166
aF0.38187859656980305
aI20
aI8
aI21
aa(lp177
g163
aF0.9045712422206102
aI22
aI15
aI12
aa(lp178
g163
aF0.3831581114899001
aI28
aI17
aI16
aa(lp179
g166
aF0.11161604596800627
aI19
aI12
aI12
aa(lp180
g166
aF0.13207510532693628
aI14
aI15
aI8
aa(lp181
g163
aF0.8119611599796668
aI16
aI18
aI8
aa(lp182
g166
aF0.9679971549154652
aI23
aI5
aI14
aa(lp183
g166
aF0.12281451452569044
aI10
aI1
aI16
aaa(lp184
I10
aI13
aI12
aI9
aI10
aI16
aI14
aI17
aI12
aI12
aI15
aI15
aI13
aI14
aI12
aI9
aI9
aI9
aI15
aI19
aa(lp185
F0.11396503448486328
aF0.12913799285888672
aF0.12156200408935547
aF0.10959792137145996
aF0.11436104774475098
aF0.14368510246276855
aF0.131727933883667
aF0.1526658535003662
aF0.12671399116516113
aF0.1263270378112793
aF0.13783693313598633
aF0.14792418479919434
aF0.1282041072845459
aF0.13914990425109863
aF0.11897492408752441
aF0.1055760383605957
aF0.09957385063171387
aF0.10766100883483887
aF0.14215421676635742
aF0.17694711685180664
aasS'RF'
p186
(lp187
(lp188
g6
(g10
S'333333\xe3?'
p189
tp190
Rp191
ag6
(g10
S'333333\xe3?'
p192
tp193
Rp194
ag6
(g10
S'=\n\xd7\xa3p=\xe2?'
p195
tp196
Rp197
ag6
(g10
S'333333\xe3?'
p198
tp199
Rp200
ag6
(g10
S'333333\xe3?'
p201
tp202
Rp203
ag6
(g10
S'\xd7\xa3p=\n\xd7\xe3?'
p204
tp205
Rp206
ag6
(g10
S'\x85\xebQ\xb8\x1e\x85\xe3?'
p207
tp208
Rp209
ag6
(g10
S'=\n\xd7\xa3p=\xe2?'
p210
tp211
Rp212
ag6
(g10
S'333333\xe3?'
p213
tp214
Rp215
ag6
(g10
S'333333\xe3?'
p216
tp217
Rp218
ag6
(g10
S'333333\xe3?'
p219
tp220
Rp221
ag6
(g10
S'\x85\xebQ\xb8\x1e\x85\xe3?'
p222
tp223
Rp224
ag6
(g10
S'\x8f\xc2\xf5(\\\x8f\xe2?'
p225
tp226
Rp227
ag6
(g10
S'\x8f\xc2\xf5(\\\x8f\xe2?'
p228
tp229
Rp230
ag6
(g10
S'\x85\xebQ\xb8\x1e\x85\xe3?'
p231
tp232
Rp233
ag6
(g10
S'\x8f\xc2\xf5(\\\x8f\xe2?'
p234
tp235
Rp236
ag6
(g10
S'\xe1z\x14\xaeG\xe1\xe2?'
p237
tp238
Rp239
ag6
(g10
S'\xd7\xa3p=\n\xd7\xe3?'
p240
tp241
Rp242
ag6
(g10
S'\x8f\xc2\xf5(\\\x8f\xe2?'
p243
tp244
Rp245
ag6
(g10
S'333333\xe3?'
p246
tp247
Rp248
aa(lp249
(lp250
g163
aF0.3432188693335411
aI2
aI16
aI29
aa(lp251
g163
aF0.36511664201493255
aI2
aI6
aI58
aa(lp252
g163
aF0.6793970649403389
aI8
aI20
aI75
aa(lp253
g163
aF0.8927093041005029
aI4
aI3
aI60
aa(lp254
g166
aF0.45003900054942036
aI17
aI9
aI48
aa(lp255
g163
aF0.42320131348725365
aI3
aI1
aI49
aa(lp256
g163
aF0.2289393709832758
aI28
aI3
aI59
aa(lp257
g163
aF0.43597453138453046
aI9
aI14
aI40
aa(lp258
g166
aF0.7737811454854773
aI14
aI12
aI51
aa(lp259
g166
aF0.9840231892888759
aI7
aI8
aI32
aa(lp260
g163
aF0.6078023301370327
aI13
aI3
aI68
aa(lp261
g163
aF0.47544440962291856
aI24
aI4
aI97
aa(lp262
g163
aF0.2967150352286769
aI26
aI8
aI17
aa(lp263
g163
aF0.9348009490027182
aI22
aI21
aI92
aa(lp264
g163
aF0.7392602259501855
aI13
aI5
aI60
aa(lp265
g163
aF0.8294280091988595
aI30
aI20
aI44
aa(lp266
g163
aF0.47896725703821097
aI21
aI13
aI93
aa(lp267
g166
aF0.9173245074011847
aI26
aI2
aI84
aa(lp268
g166
aF0.6969584807624382
aI10
aI3
aI72
aa(lp269
g163
aF0.35547527241659893
aI29
aI9
aI62
aaa(lp270
I8
aI10
aI10
aI13
aI8
aI9
aI14
aI12
aI9
aI10
aI17
aI15
aI9
aI13
aI9
aI13
aI12
aI16
aI13
aI10
aa(lp271
F19.788262128829956
aF20.966657876968384
aF21.991397857666016
aF23.87855100631714
aF19.430026054382324
aF20.9825599193573
aF25.13728618621826
aF23.29384994506836
aF20.217146158218384
aF20.96290898323059
aF30.589577198028564
aF27.883067846298218
aF20.858235120773315
aF25.19236707687378
aF20.530239820480347
aF26.196038961410522
aF22.680516958236694
aF28.350130796432495
aF24.278845071792603
aF22.415961027145386
aasS'SVM'
p272
(lp273
(lp274
g6
(g10
S'\xb8\x1e\x85\xebQ\xb8\x9e?'
p275
tp276
Rp277
ag6
(g10
S'\x00\x00\x00\x00\x00\x00\x00\x00'
p278
tp279
Rp280
ag6
(g10
S'\xb8\x1e\x85\xebQ\xb8\x9e?'
p281
tp282
Rp283
ag6
(g10
S'\xb8\x1e\x85\xebQ\xb8\x9e?'
p284
tp285
Rp286
ag6
(g10
S'\x9a\x99\x99\x99\x99\x99\xa9?'
p287
tp288
Rp289
ag6
(g10
S'\xecQ\xb8\x1e\x85\xeb\xb1?'
p290
tp291
Rp292
ag6
(g10
S'\x9a\x99\x99\x99\x99\x99\xa9?'
p293
tp294
Rp295
ag6
(g10
S'\x9a\x99\x99\x99\x99\x99\xa9?'
p296
tp297
Rp298
ag6
(g10
S'\xb8\x1e\x85\xebQ\xb8\x9e?'
p299
tp300
Rp301
ag6
(g10
S'\xb8\x1e\x85\xebQ\xb8\x9e?'
p302
tp303
Rp304
ag6
(g10
S'\x00\x00\x00\x00\x00\x00\x00\x00'
p305
tp306
Rp307
ag6
(g10
S'\x9a\x99\x99\x99\x99\x99\xa9?'
p308
tp309
Rp310
ag6
(g10
S'\xb8\x1e\x85\xebQ\xb8\x9e?'
p311
tp312
Rp313
ag6
(g10
S'\x9a\x99\x99\x99\x99\x99\xa9?'
p314
tp315
Rp316
ag6
(g10
S'\x9a\x99\x99\x99\x99\x99\xa9?'
p317
tp318
Rp319
ag6
(g10
S'\xecQ\xb8\x1e\x85\xeb\xb1?'
p320
tp321
Rp322
ag6
(g10
S'\x00\x00\x00\x00\x00\x00\x00\x00'
p323
tp324
Rp325
ag6
(g10
S'\x9a\x99\x99\x99\x99\x99\xa9?'
p326
tp327
Rp328
ag6
(g10
S'\x9a\x99\x99\x99\x99\x99\xa9?'
p329
tp330
Rp331
ag6
(g10
S'\xecQ\xb8\x1e\x85\xeb\xb1?'
p332
tp333
Rp334
aa(lp335
(lp336
I8
aS'rbf'
p337
aF0.8394053596726323
aF0.2779712478304742
aa(lp338
I84
aS'sigmoid'
p339
aF0.5218087900359866
aF0.8935562095397959
aa(lp340
I62
ag337
aF0.15722857810553026
aF0.6238086707017341
aa(lp341
I24
ag337
aF0.4923378724840848
aF0.8613442029444828
aa(lp342
I16
ag337
aF0.6381483981271744
aF0.1446366624026461
aa(lp343
I28
ag337
aF0.1116084171463323
aF0.12762005793482692
aa(lp344
I29
ag337
aF0.6459592393709447
aF0.13965853461867994
aa(lp345
I75
ag337
aF0.5197184677969818
aF0.15677218039023288
aa(lp346
I57
ag337
aF0.15932132212025452
aF0.7450669528558936
aa(lp347
I10
ag337
aF0.2608153886222361
aF0.6454303778566921
aa(lp348
I31
ag339
aF0.21189274566455812
aF0.6088808727191842
aa(lp349
I99
ag337
aF0.7721513056870998
aF0.149037594776335
aa(lp350
I86
ag337
aF0.10427490488530122
aF0.549896814518538
aa(lp351
I17
ag337
aF0.16214505574408072
aF0.2026514266103383
aa(lp352
I6
ag337
aF0.68051425889717
aF0.263594217789542
aa(lp353
I95
ag337
aF0.44649811571424913
aF0.12453844069389616
aa(lp354
I26
ag339
aF0.46981620116930867
aF0.7764485467318738
aa(lp355
I46
ag337
aF0.6711066375461584
aF0.26077008768065374
aa(lp356
I98
ag337
aF0.5782249638016477
aF0.16522429934199212
aa(lp357
I54
ag337
aF0.6721355202911499
aF0.10175980865276998
aaa(lp358
I8
aI6
aI6
aI6
aI7
aI7
aI7
aI10
aI6
aI6
aI6
aI7
aI6
aI7
aI6
aI8
aI6
aI9
aI7
aI8
aa(lp359
F0.17606687545776367
aF0.141679048538208
aF0.1481800079345703
aF0.13411688804626465
aF0.1500701904296875
aF0.15590620040893555
aF0.1585400104522705
aF0.1880960464477539
aF0.1456301212310791
aF0.14561796188354492
aF0.13873815536499023
aF0.16303515434265137
aF0.15008211135864258
aF0.1709880828857422
aF0.14601802825927734
aF0.1651608943939209
aF0.12647294998168945
aF0.15702605247497559
aF0.1490001678466797
aF0.1743619441986084
aassS'precision'
p360
(dp361
g3
(lp362
(lp363
g6
(g10
S'\x9a\x99\x99\x99\x99\x99\xe1?'
p364
tp365
Rp366
ag6
(g10
S'333333\xe3?'
p367
tp368
Rp369
ag6
(g10
S'=\n\xd7\xa3p=\xe2?'
p370
tp371
Rp372
ag6
(g10
S'R\xb8\x1e\x85\xebQ\xe0?'
p373
tp374
Rp375
ag6
(g10
S'=\n\xd7\xa3p=\xe2?'
p376
tp377
Rp378
ag6
(g10
S'\x85\xebQ\xb8\x1e\x85\xe3?'
p379
tp380
Rp381
ag6
(g10
S'R\xb8\x1e\x85\xebQ\xe0?'
p382
tp383
Rp384
ag6
(g10
S'R\xb8\x1e\x85\xebQ\xe0?'
p385
tp386
Rp387
ag6
(g10
S'R\xb8\x1e\x85\xebQ\xe0?'
p388
tp389
Rp390
ag6
(g10
S'R\xb8\x1e\x85\xebQ\xe0?'
p391
tp392
Rp393
ag6
(g10
S'\x85\xebQ\xb8\x1e\x85\xe3?'
p394
tp395
Rp396
ag6
(g10
S'=\n\xd7\xa3p=\xe2?'
p397
tp398
Rp399
ag6
(g10
S'R\xb8\x1e\x85\xebQ\xe0?'
p400
tp401
Rp402
ag6
(g10
S'\x85\xebQ\xb8\x1e\x85\xe3?'
p403
tp404
Rp405
ag6
(g10
S'=\n\xd7\xa3p=\xe2?'
p406
tp407
Rp408
ag6
(g10
S'R\xb8\x1e\x85\xebQ\xe0?'
p409
tp410
Rp411
ag6
(g10
S'=\n\xd7\xa3p=\xe2?'
p412
tp413
Rp414
ag6
(g10
S'\x8f\xc2\xf5(\\\x8f\xe2?'
p415
tp416
Rp417
ag6
(g10
S'333333\xe3?'
p418
tp419
Rp420
ag6
(g10
S'=\n\xd7\xa3p=\xe2?'
p421
tp422
Rp423
aa(lp424
(lp425
I10
ag75
aa(lp426
I6
ag79
aa(lp427
I8
ag79
aa(lp428
I10
ag79
aa(lp429
I8
ag79
aa(lp430
I2
ag79
aa(lp431
I10
ag79
aa(lp432
I7
ag79
aa(lp433
I10
ag79
aa(lp434
I10
ag79
aa(lp435
I2
ag79
aa(lp436
I4
ag79
aa(lp437
I10
ag79
aa(lp438
I2
ag79
aa(lp439
I8
ag79
aa(lp440
I10
ag79
aa(lp441
I8
ag79
aa(lp442
I6
ag75
aa(lp443
I6
ag79
aa(lp444
I8
ag79
aaa(lp445
I12
aI9
aI13
aI14
aI13
aI22
aI9
aI13
aI9
aI14
aI13
aI8
aI8
aI14
aI9
aI14
aI10
aI10
aI16
aI13
aa(lp446
F0.15091896057128906
aF0.12488913536071777
aF0.14939093589782715
aF0.15557312965393066
aF0.1501450538635254
aF0.20813798904418945
aF0.12437295913696289
aF0.15085601806640625
aF0.12198519706726074
aF0.1576690673828125
aF0.15035581588745117
aF0.11667108535766602
aF0.11841297149658203
aF0.15834999084472656
aF0.12362003326416016
aF0.1555781364440918
aF0.1311478614807129
aF0.13042807579040527
aF0.17180109024047852
aF0.15004301071166992
aasg98
(lp447
(lp448
g6
(g10
S'\x00\x00\x00\x00\x00\x00\xe0?'
p449
tp450
Rp451
ag6
(g10
S'\xb8\x1e\x85\xebQ\xb8\xde?'
p452
tp453
Rp454
ag6
(g10
S'\\\x8f\xc2\xf5(\\\xdf?'
p455
tp456
Rp457
ag6
(g10
S'=\n\xd7\xa3p=\xda?'
p458
tp459
Rp460
ag6
(g10
S'\x9a\x99\x99\x99\x99\x99\xd9?'
p461
tp462
Rp463
ag6
(g10
S'\x14\xaeG\xe1z\x14\xde?'
p464
tp465
Rp466
ag6
(g10
S'=\n\xd7\xa3p=\xda?'
p467
tp468
Rp469
ag6
(g10
S'\\\x8f\xc2\xf5(\\\xdf?'
p470
tp471
Rp472
ag6
(g10
S'\\\x8f\xc2\xf5(\\\xdf?'
p473
tp474
Rp475
ag6
(g10
S'\xa4p=\n\xd7\xa3\xe0?'
p476
tp477
Rp478
ag6
(g10
S'\xecQ\xb8\x1e\x85\xeb\xe1?'
p479
tp480
Rp481
ag6
(g10
S'R\xb8\x1e\x85\xebQ\xe0?'
p482
tp483
Rp484
ag6
(g10
S'\x9a\x99\x99\x99\x99\x99\xe1?'
p485
tp486
Rp487
ag6
(g10
S'R\xb8\x1e\x85\xebQ\xe0?'
p488
tp489
Rp490
ag6
(g10
S'\\\x8f\xc2\xf5(\\\xdf?'
p491
tp492
Rp493
ag6
(g10
S'\x9a\x99\x99\x99\x99\x99\xd9?'
p494
tp495
Rp496
ag6
(g10
S'\xa4p=\n\xd7\xa3\xe0?'
p497
tp498
Rp499
ag6
(g10
S'\x9a\x99\x99\x99\x99\x99\xd9?'
p500
tp501
Rp502
ag6
(g10
S'\x9a\x99\x99\x99\x99\x99\xd9?'
p503
tp504
Rp505
ag6
(g10
S'\x14\xaeG\xe1z\x14\xde?'
p506
tp507
Rp508
aa(lp509
(lp510
g163
aF0.4652627899423736
aI17
aI18
aI4
aa(lp511
g166
aF0.347841390441435
aI6
aI4
aI8
aa(lp512
g163
aF0.17358790603420904
aI18
aI2
aI4
aa(lp513
g166
aF0.27601739900920075
aI13
aI19
aI13
aa(lp514
g166
aF0.11181816900368534
aI8
aI7
aI2
aa(lp515
g163
aF0.5795160637537694
aI13
aI13
aI11
aa(lp516
g163
aF0.4795148211293142
aI11
aI14
aI3
aa(lp517
g163
aF0.17905780549211214
aI23
aI5
aI17
aa(lp518
g163
aF0.616493791110685
aI15
aI18
aI8
aa(lp519
g166
aF0.1815949360523687
aI27
aI2
aI6
aa(lp520
g163
aF0.8831344065099718
aI28
aI14
aI6
aa(lp521
g163
aF0.9887250559792051
aI13
aI18
aI13
aa(lp522
g163
aF0.31492159325036717
aI3
aI16
aI16
aa(lp523
g163
aF0.18460520342465964
aI21
aI8
aI12
aa(lp524
g166
aF0.9741296686924376
aI24
aI13
aI12
aa(lp525
g166
aF0.359154446478982
aI20
aI21
aI11
aa(lp526
g166
aF0.514482987973664
aI24
aI12
aI10
aa(lp527
g163
aF0.16958195443623075
aI18
aI14
aI1
aa(lp528
g166
aF0.14532063698902467
aI28
aI10
aI1
aa(lp529
g166
aF0.7605709453934029
aI11
aI4
aI12
aaa(lp530
I9
aI10
aI8
aI12
aI9
aI12
aI15
aI15
aI19
aI9
aI16
aI17
aI15
aI12
aI8
aI9
aI12
aI15
aI9
aI15
aa(lp531
F0.10719609260559082
aF0.11004090309143066
aF0.10173416137695312
aF0.11792516708374023
aF0.10586905479431152
aF0.12443017959594727
aF0.1434030532836914
aF0.13518595695495605
aF0.18197894096374512
aF0.10581707954406738
aF0.15049386024475098
aF0.158674955368042
aF0.13611602783203125
aF0.12172579765319824
aF0.10513591766357422
aF0.10552787780761719
aF0.1192629337310791
aF0.1488499641418457
aF0.10442590713500977
aF0.14480113983154297
aasg186
(lp532
(lp533
g6
(g10
S'\xf6(\\\x8f\xc2\xf5\xe0?'
p534
tp535
Rp536
ag6
(g10
S'\xa4p=\n\xd7\xa3\xe0?'
p537
tp538
Rp539
ag6
(g10
S'R\xb8\x1e\x85\xebQ\xe0?'
p540
tp541
Rp542
ag6
(g10
S'\xf6(\\\x8f\xc2\xf5\xe0?'
p543
tp544
Rp545
ag6
(g10
S'H\xe1z\x14\xaeG\xe1?'
p546
tp547
Rp548
ag6
(g10
S'\x9a\x99\x99\x99\x99\x99\xe1?'
p549
tp550
Rp551
ag6
(g10
S'\xf6(\\\x8f\xc2\xf5\xe0?'
p552
tp553
Rp554
ag6
(g10
S'\xa4p=\n\xd7\xa3\xe0?'
p555
tp556
Rp557
ag6
(g10
S'\xecQ\xb8\x1e\x85\xeb\xe1?'
p558
tp559
Rp560
ag6
(g10
S'H\xe1z\x14\xaeG\xe1?'
p561
tp562
Rp563
ag6
(g10
S'H\xe1z\x14\xaeG\xe1?'
p564
tp565
Rp566
ag6
(g10
S'H\xe1z\x14\xaeG\xe1?'
p567
tp568
Rp569
ag6
(g10
S'H\xe1z\x14\xaeG\xe1?'
p570
tp571
Rp572
ag6
(g10
S'\xa4p=\n\xd7\xa3\xe0?'
p573
tp574
Rp575
ag6
(g10
S'\xf6(\\\x8f\xc2\xf5\xe0?'
p576
tp577
Rp578
ag6
(g10
S'\xa4p=\n\xd7\xa3\xe0?'
p579
tp580
Rp581
ag6
(g10
S'H\xe1z\x14\xaeG\xe1?'
p582
tp583
Rp584
ag6
(g10
S'\x9a\x99\x99\x99\x99\x99\xe1?'
p585
tp586
Rp587
ag6
(g10
S'\x00\x00\x00\x00\x00\x00\xe0?'
p588
tp589
Rp590
ag6
(g10
S'\xf6(\\\x8f\xc2\xf5\xe0?'
p591
tp592
Rp593
aa(lp594
(lp595
g166
aF0.7757188367420887
aI20
aI14
aI75
aa(lp596
g166
aF0.24192955896897578
aI15
aI15
aI65
aa(lp597
g166
aF0.19738067060593545
aI17
aI19
aI70
aa(lp598
g166
aF0.13574170790098988
aI13
aI17
aI45
aa(lp599
g163
aF0.904386571461079
aI15
aI2
aI39
aa(lp600
g166
aF0.6102290946303434
aI18
aI6
aI82
aa(lp601
g163
aF0.10644968544233098
aI25
aI16
aI73
aa(lp602
g163
aF0.8595464513101467
aI24
aI4
aI52
aa(lp603
g163
aF0.194019713418134
aI6
aI1
aI99
aa(lp604
g166
aF0.6154858918579265
aI9
aI7
aI26
aa(lp605
g163
aF0.2993552122390565
aI22
aI4
aI75
aa(lp606
g163
aF0.6823972695153867
aI3
aI13
aI85
aa(lp607
g163
aF0.19563556589755815
aI18
aI14
aI91
aa(lp608
g163
aF0.30396920168761404
aI29
aI19
aI51
aa(lp609
g163
aF0.4606864778421823
aI9
aI8
aI99
aa(lp610
g166
aF0.2885958775237787
aI10
aI12
aI76
aa(lp611
g163
aF0.24042810555635008
aI26
aI13
aI96
aa(lp612
g163
aF0.4290864364735014
aI4
aI2
aI100
aa(lp613
g163
aF0.1240375336583747
aI17
aI17
aI11
aa(lp614
g163
aF0.13716866622586799
aI17
aI16
aI66
aaa(lp615
I12
aI13
aI9
aI9
aI13
aI12
aI9
aI9
aI10
aI10
aI12
aI12
aI10
aI10
aI8
aI8
aI7
aI10
aI8
aI9
aa(lp616
F24.803159952163696
aF24.983690977096558
aF21.396315097808838
aF19.993245124816895
aF24.270042896270752
aF24.165066957473755
aF20.87014889717102
aF20.307670831680298
aF21.524030923843384
aF21.951069831848145
aF24.027651071548462
aF23.74180293083191
aF22.624991178512573
aF20.297864198684692
aF20.061713933944702
aF18.876665830612183
aF19.45386505126953
aF21.906222105026245
aF18.06863498687744
aF20.94260811805725
aasg272
(lp617
(lp618
g6
(g10
S'\x9a\x99\x99\x99\x99\x99\xd9?'
p619
tp620
Rp621
ag6
(g10
S'\x00\x00\x00\x00\x00\x00\x00\x00'
p622
tp623
Rp624
ag6
(g10
S'\x00\x00\x00\x00\x00\x00\x00\x00'
p625
tp626
Rp627
ag6
(g10
S'\x9a\x99\x99\x99\x99\x99\xd9?'
p628
tp629
Rp630
ag6
(g10
S'\x00\x00\x00\x00\x00\x00\x00\x00'
p631
tp632
Rp633
ag6
(g10
S'\x9a\x99\x99\x99\x99\x99\xd9?'
p634
tp635
Rp636
ag6
(g10
S'\x00\x00\x00\x00\x00\x00\x00\x00'
p637
tp638
Rp639
ag6
(g10
S'\x00\x00\x00\x00\x00\x00\xd0?'
p640
tp641
Rp642
ag6
(g10
S'\x9a\x99\x99\x99\x99\x99\xd9?'
p643
tp644
Rp645
ag6
(g10
S'\x00\x00\x00\x00\x00\x00\xf0?'
p646
tp647
Rp648
ag6
(g10
S'\x9a\x99\x99\x99\x99\x99\xd9?'
p649
tp650
Rp651
ag6
(g10
S'\x9a\x99\x99\x99\x99\x99\xd9?'
p652
tp653
Rp654
ag6
(g10
S'\x00\x00\x00\x00\x00\x00\x00\x00'
p655
tp656
Rp657
ag6
(g10
S'\x9a\x99\x99\x99\x99\x99\xd9?'
p658
tp659
Rp660
ag6
(g10
S'\x00\x00\x00\x00\x00\x00\x00\x00'
p661
tp662
Rp663
ag6
(g10
S'\x00\x00\x00\x00\x00\x00\xf0?'
p664
tp665
Rp666
ag6
(g10
S'\x00\x00\x00\x00\x00\x00\xf0?'
p667
tp668
Rp669
ag6
(g10
S'\x00\x00\x00\x00\x00\x00\x00\x00'
p670
tp671
Rp672
ag6
(g10
S'\x00\x00\x00\x00\x00\x00\x00\x00'
p673
tp674
Rp675
ag6
(g10
S'\x9a\x99\x99\x99\x99\x99\xd9?'
p676
tp677
Rp678
aa(lp679
(lp680
I13
ag337
aF0.44076474013804445
aF0.18756469450333924
aa(lp681
I82
ag339
aF0.33063202519449614
aF0.6893213352444583
aa(lp682
I91
ag339
aF0.35484930849803564
aF0.8559961535344923
aa(lp683
I17
ag337
aF0.24428492657147335
aF0.14896320340454455
aa(lp684
I61
ag339
aF0.44387728639742674
aF0.10556537713479888
aa(lp685
I74
ag337
aF0.8543383503920979
aF0.16995180267643684
aa(lp686
I86
ag339
aF0.41932676169746097
aF0.3291506694220891
aa(lp687
I35
ag337
aF0.37222389652638166
aF0.35378957867258953
aa(lp688
I35
ag337
aF0.5359180047424092
aF0.16899518985518952
aa(lp689
I18
ag337
aF0.26082843970967945
aF0.8919908169143581
aa(lp690
I80
ag337
aF0.5348254322835445
aF0.21659499043140773
aa(lp691
I62
ag337
aF0.5126416638154407
aF0.2452968541901952
aa(lp692
I100
ag339
aF0.2336433362537236
aF0.36615781228470545
aa(lp693
I44
ag337
aF0.3346523914730108
aF0.16245919323082048
aa(lp694
I100
ag339
aF0.16200303931115045
aF0.5417006792728662
aa(lp695
I34
ag337
aF0.7087583060560085
aF0.9545623732097307
aa(lp696
I26
ag337
aF0.9589487788504921
aF0.9728321310631456
aa(lp697
I61
ag339
aF0.2299117578806572
aF0.1660596400540273
aa(lp698
I17
ag339
aF0.5621976418598026
aF0.9413463735530875
aa(lp699
I67
ag337
aF0.9320752088661776
aF0.1890362483397504
aaa(lp700
I7
aI6
aI6
aI7
aI6
aI7
aI6
aI6
aI8
aI6
aI7
aI6
aI6
aI8
aI6
aI6
aI6
aI6
aI6
aI7
aa(lp701
F0.17049598693847656
aF0.1604750156402588
aF0.13323283195495605
aF0.15612387657165527
aF0.13885807991027832
aF0.15236401557922363
aF0.14095091819763184
aF0.1338489055633545
aF0.17020106315612793
aF0.13796305656433105
aF0.15706205368041992
aF0.14814400672912598
aF0.14162588119506836
aF0.15599513053894043
aF0.13435792922973633
aF0.13680291175842285
aF0.140822172164917
aF0.13761210441589355
aF0.14155292510986328
aF0.16588711738586426
aassS'popt20'
p702
(dp703
g3
(lp704
(lp705
F0.347
aF0.407
aF0.398
aF0.407
aF0.39
aF0.415
aF0.415
aF0.39
aF0.449
aF0.407
aF0.415
aF0.398
aF0.441
aF0.331
aF0.449
aF0.339
aF0.424
aF0.407
aF0.407
aF0.39
aa(lp706
(lp707
I10
ag75
aa(lp708
I6
ag75
aa(lp709
I7
ag75
aa(lp710
I6
ag75
aa(lp711
I4
ag75
aa(lp712
I2
ag75
aa(lp713
I2
ag75
aa(lp714
I8
ag75
aa(lp715
I3
ag75
aa(lp716
I2
ag79
aa(lp717
I2
ag75
aa(lp718
I6
ag79
aa(lp719
I3
ag79
aa(lp720
I4
ag79
aa(lp721
I3
ag75
aa(lp722
I7
ag79
aa(lp723
I5
ag79
aa(lp724
I2
ag79
aa(lp725
I6
ag75
aa(lp726
I4
ag75
aaa(lp727
I15
aI9
aI10
aI9
aI10
aI10
aI14
aI9
aI13
aI12
aI9
aI16
aI14
aI14
aI12
aI9
aI10
aI14
aI14
aI12
aa(lp728
F0.3650519847869873
aF0.27510499954223633
aF0.31042003631591797
aF0.27763819694519043
aF0.2914440631866455
aF0.28867602348327637
aF0.3476240634918213
aF0.27610182762145996
aF0.3331871032714844
aF0.3201870918273926
aF0.27514004707336426
aF0.37657999992370605
aF0.3495049476623535
aF0.34841299057006836
aF0.3187410831451416
aF0.27763891220092773
aF0.28983283042907715
aF0.3470320701599121
aF0.3494532108306885
aF0.3194620609283447
aasg98
(lp729
(lp730
F0.441
aF0.297
aF0.339
aF0.297
aF0.356
aF0.424
aF0.356
aF0.381
aF0.398
aF0.407
aF0.39
aF0.398
aF0.381
aF0.432
aF0.356
aF0.381
aF0.458
aF0.39
aF0.271
aF0.373
aa(lp731
(lp732
g163
aF0.5784600955021331
aI9
aI1
aI9
aa(lp733
g163
aF0.13285770226168644
aI9
aI18
aI21
aa(lp734
g166
aF0.3726882752736562
aI2
aI12
aI3
aa(lp735
g166
aF0.29784361388457753
aI17
aI3
aI5
aa(lp736
g163
aF0.9847756121874103
aI3
aI15
aI4
aa(lp737
g166
aF0.5179503899058611
aI23
aI12
aI13
aa(lp738
g166
aF0.10623297705150098
aI25
aI2
aI14
aa(lp739
g166
aF0.8550892567784882
aI26
aI3
aI13
aa(lp740
g163
aF0.7906401387462216
aI29
aI11
aI14
aa(lp741
g166
aF0.8266090159229582
aI30
aI6
aI15
aa(lp742
g163
aF0.12067550389693583
aI22
aI14
aI6
aa(lp743
g166
aF0.7204382217378559
aI29
aI3
aI19
aa(lp744
g163
aF0.57575961105748
aI10
aI18
aI21
aa(lp745
g163
aF0.4394677718814606
aI18
aI5
aI9
aa(lp746
g166
aF0.2251242582843504
aI9
aI20
aI21
aa(lp747
g166
aF0.9663093042467541
aI18
aI5
aI4
aa(lp748
g166
aF0.5669759761626025
aI10
aI9
aI9
aa(lp749
g166
aF0.799587651483708
aI16
aI1
aI8
aa(lp750
g163
aF0.6369576854861599
aI2
aI17
aI14
aa(lp751
g166
aF0.6219924894917613
aI17
aI17
aI9
aaa(lp752
I13
aI8
aI10
aI14
aI9
aI12
aI13
aI9
aI9
aI13
aI15
aI7
aI14
aI10
aI8
aI10
aI10
aI17
aI18
aI12
aa(lp753
F0.3156599998474121
aF0.2424449920654297
aF0.27785801887512207
aF0.32705092430114746
aF0.26081109046936035
aF0.301926851272583
aF0.31440305709838867
aF0.25466012954711914
aF0.26325106620788574
aF0.3184528350830078
aF0.34059715270996094
aF0.2376079559326172
aF0.33632707595825195
aF0.27074503898620605
aF0.24788212776184082
aF0.28141093254089355
aF0.27758002281188965
aF0.3879859447479248
aF0.3984978199005127
aF0.3097090721130371
aasg186
(lp754
(lp755
F0.381
aF0.373
aF0.398
aF0.407
aF0.407
aF0.398
aF0.339
aF0.398
aF0.364
aF0.373
aF0.39
aF0.39
aF0.381
aF0.39
aF0.398
aF0.373
aF0.373
aF0.432
aF0.373
aF0.381
aa(lp756
(lp757
g166
aF0.7682772330895967
aI23
aI14
aI70
aa(lp758
g166
aF0.7407742864083853
aI18
aI17
aI90
aa(lp759
g163
aF0.8274472735778975
aI7
aI1
aI33
aa(lp760
g163
aF0.6824203464691123
aI15
aI2
aI68
aa(lp761
g166
aF0.37332059888610725
aI4
aI2
aI84
aa(lp762
g166
aF0.6866478791737893
aI4
aI1
aI74
aa(lp763
g166
aF0.6260293860844339
aI5
aI17
aI66
aa(lp764
g163
aF0.9268725531183951
aI15
aI2
aI67
aa(lp765
g163
aF0.3661581807037082
aI17
aI11
aI56
aa(lp766
g163
aF0.5551225937339641
aI2
aI9
aI26
aa(lp767
g166
aF0.8893340751412346
aI26
aI6
aI87
aa(lp768
g163
aF0.8488645363600573
aI28
aI10
aI76
aa(lp769
g163
aF0.5348932226955416
aI26
aI10
aI65
aa(lp770
g166
aF0.6728233651528869
aI13
aI5
aI82
aa(lp771
g163
aF0.5991299751779766
aI7
aI2
aI40
aa(lp772
g166
aF0.45142752358844396
aI5
aI5
aI48
aa(lp773
g163
aF0.8138610766061835
aI29
aI2
aI79
aa(lp774
g163
aF0.6763106996872944
aI6
aI4
aI39
aa(lp775
g166
aF0.2632839481611272
aI28
aI15
aI26
aa(lp776
g166
aF0.9212879261883907
aI2
aI2
aI94
aaa(lp777
I10
aI8
aI15
aI10
aI9
aI8
aI14
aI9
aI12
aI12
aI10
aI15
aI12
aI17
aI13
aI16
aI12
aI10
aI15
aI10
aa(lp778
F21.76050305366516
aF20.730737924575806
aF26.311172008514404
aF21.54506802558899
aF21.47799587249756
aF19.667087078094482
aF26.199781894683838
aF20.7251558303833
aF24.284190893173218
aF23.927104949951172
aF23.912569046020508
aF28.242090940475464
aF24.94817805290222
aF30.106945037841797
aF24.367856979370117
aF27.129454135894775
aF24.63157296180725
aF21.78127908706665
aF27.154468059539795
aF21.90736198425293
aasg272
(lp779
(lp780
F0.449
aF0.458
aF0.432
aF0.432
aF0.449
aF0.432
aF0.432
aF0.432
aF0.449
aF0.458
aF0.432
aF0.432
aF0.432
aF0.432
aF0.458
aF0.449
aF0.449
aF0.432
aF0.449
aF0.449
aa(lp781
(lp782
I68
ag337
aF0.13175103227011575
aF0.4005352578174498
aa(lp783
I40
ag337
aF0.10040670772912227
aF0.21013822386162756
aa(lp784
I90
ag339
aF0.182300968314742
aF0.9452833592326385
aa(lp785
I72
ag339
aF0.3759166788314222
aF0.6449958443817835
aa(lp786
I89
ag337
aF0.4755748177331187
aF0.5681814348686008
aa(lp787
I89
ag339
aF0.31732649379834255
aF0.7578926066234124
aa(lp788
I94
ag339
aF0.42485300302778917
aF0.9070567580449114
aa(lp789
I16
ag339
aF0.7925746858545968
aF0.6879541775433523
aa(lp790
I31
ag337
aF0.12384611218345667
aF0.5900682762527086
aa(lp791
I83
ag337
aF0.5555330245382184
aF0.23172855779967022
aa(lp792
I98
ag339
aF0.5613849376424754
aF0.15934633196551928
aa(lp793
I58
ag339
aF0.44950974335843685
aF0.5104869315188657
aa(lp794
I53
ag339
aF0.24717772507267466
aF0.6572869928307976
aa(lp795
I29
ag339
aF0.13457906089303834
aF0.3465773732957483
aa(lp796
I80
ag337
aF0.9959750547812866
aF0.24387942833719575
aa(lp797
I92
ag337
aF0.3063581946999984
aF0.4701664879800328
aa(lp798
I78
ag337
aF0.5430606361115563
aF0.2822492217648033
aa(lp799
I37
ag339
aF0.5705126170852473
aF0.230052085332565
aa(lp800
I29
ag337
aF0.9353213516753293
aF0.9460734419293896
aa(lp801
I94
ag337
aF0.5909648785782292
aF0.6750377230265079
aaa(lp802
I12
aI13
aI12
aI10
aI12
aI9
aI9
aI10
aI14
aI15
aI9
aI19
aI9
aI8
aI9
aI15
aI16
aI12
aI13
aI16
aa(lp803
F0.38269996643066406
aF0.39318394660949707
aF0.36964893341064453
aF0.3353860378265381
aF0.37087583541870117
aF0.3157789707183838
aF0.3159210681915283
aF0.33313512802124023
aF0.40830397605895996
aF0.41779184341430664
aF0.3205599784851074
aF0.48054003715515137
aF0.3193089962005615
aF0.298785924911499
aF0.3260478973388672
aF0.43996691703796387
aF0.4497699737548828
aF0.35352611541748047
aF0.4033679962158203
aF0.44138503074645996
aass.